(lp1
((F85
F247
tF31
F92.598724365234375
F0.0011859666556119919
I0
I-1
tp2
a((F51
F267
tF31
F214.56294250488281
F0.0098944436758756638
I0
I-1
tp3
a((F260
F266
tF31
F255.21316528320312
F0.012536460533738136
I0
I-1
tp4
a((F101
F205
tF31
F90.197746276855469
F0.0022145032417029142
I0
I-1
tp5
a((F244
F266
tF31
F309.85675048828125
F0.011061260476708412
I0
I-1
tp6
a((F64
F207
tF31
F65.028732299804688
F0.0089686485007405281
I0
I-1
tp7
a((F81
F207
tF31
F115.13883972167969
F0.0092756012454628944
I0
I-1
tp8
a((F89
F207
tF31
F65.592605590820312
F0.0091150654479861259
I0
I-1
tp9
a((F104
F207
tF31
F110.40467834472656
F0.0042661223560571671
I0
I-1
tp10
a((F260
F263
tF31
F254.54989624023438
F0.0015122779877856374
I0
I-1
tp11
a((F244
F263
tF31
F312.5643310546875
F0.0012803346617147326
I0
I-1
tp12
a((F140
F207
tF31
F170.97267150878906
F0.0031708816532045603
I0
I-1
tp13
a((F156
F207
tF31
F4.9895038604736328
F0.0051828767172992229
I0
I-1
tp14
a((F172
F207
tF31
F117.76625823974609
F0.0044091222807765007
I0
I-1
tp15
a((F116
F146
tF31
F337.85659790039062
F0.0015517865540459752
I0
I-1
tp16
a((F181
F207
tF31
F95.439308166503906
F0.010434032417833805
I0
I-1
tp17
a((F197
F207
tF31
F100.1597900390625
F0.0069823600351810455
I0
I-1
tp18
a((F185
F144
tF31
F278.66256713867188
F0.0023445023689419031
I0
I-1
tp19
a((F116
F144
tF31
F340.4443359375
F0.0012602825881913304
I0
I-1
tp20
a((F237
F257
tF31
F306.44430541992188
F0.009370868094265461
I0
I-1
tp21
a((F204
F207
tF31
F59.702415466308594
F0.0098351519554853439
I0
I-1
tp22
a((F236
F207
tF31
F104.82674407958984
F0.010799279436469078
I0
I-1
tp23
a((F244
F207
tF31
F74.673576354980469
F0.0097291506826877594
I0
I-1
tp24
a((F80
F210
tF31
F126.55754852294922
F0.0033878118265420198
I0
I-1
tp25
a((F90
F210
tF31
F57.870105743408203
F0.0034878957085311413
I0
I-1
tp26
a((F104
F210
tF31
F125.718994140625
F0.001280925003811717
I0
I-1
tp27
a((F116
F210
tF31
F25.156856536865234
F0.0013755904510617256
I0
I-1
tp28
a((F140
F210
tF31
F164.42707824707031
F0.0013292654184624553
I0
I-1
tp29
a((F204
F257
tF31
F292.1304931640625
F0.010213951580226421
I0
I-1
tp30
a((F156
F210
tF31
F10.418586730957031
F0.0019602670799940825
I0
I-1
tp31
a((F172
F210
tF31
F108.78750610351562
F0.0016449447721242905
I0
I-1
tp32
a((F180
F210
tF31
F100.03102874755859
F0.0045262156054377556
I0
I-1
tp33
a((F197
F257
tF31
F253.71975708007812
F0.0095095355063676834
I0
I-1
tp34
a((F204
F210
tF31
F44.915916442871094
F0.0035548314917832613
I0
I-1
tp35
a((F244
F210
tF31
F59.029396057128906
F0.0033788576256483793
I0
I-1
tp36
a((F34
F217
tF31
F241.55081176757812
F0.0048146899789571762
I0
I-1
tp37
a((F39
F217
tF31
F296.09375
F0.0045908987522125244
I0
I-1
tp38
a((F220
F217
tF31
F167.99661254882812
F0.0079866871237754822
I0
I-1
tp39
a((F236
F217
tF31
F289.69064331054688
F0.013445955701172352
I0
I-1
tp40
a((F260
F217
tF31
F199.511962890625
F0.010828681290149689
I0
I-1
tp41
a((F181
F257
tF31
F288.22149658203125
F0.01052407268434763
I0
I-1
tp42
a((F266
F217
tF31
F309.75503540039062
F0.0053533441387116909
I0
I-1
tp43
a((F32
F218
tF31
F227.63241577148438
F0.0061679263599216938
I0
I-1
tp44
a((F41
F218
tF31
F310.46038818359375
F0.0061334292404353619
I0
I-1
tp45
a((F172
F257
tF31
F257.86126708984375
F0.010088872164487839
I0
I-1
tp46
a((F268
F218
tF31
F332.83111572265625
F0.0054738624021410942
I0
I-1
tp47
a((F156
F257
tF31
F288.45562744140625
F0.010238111019134521
I0
I-1
tp48
a((F149
F257
tF31
F253.72966003417969
F0.010183120146393776
I0
I-1
tp49
a((F43
F221
tF31
F318.303466796875
F0.0020598478149622679
I0
I-1
tp50
a((F172
F222
tF31
F123.50291442871094
F0.0029694149270653725
I0
I-1
tp51
a((F185
F225
tF31
F180.26130676269531
F0.0042648222297430038
I0
I-1
tp52
a((F220
F226
tF31
F175.73316955566406
F0.0086734043434262276
I0
I-1
tp53
a((F227
F226
tF31
F190.97341918945312
F0.0016403575427830219
I0
I-1
tp54
a((F230
F226
tF31
F191.79722595214844
F0.011083608493208885
I0
I-1
tp55
a((F185
F228
tF31
F176.25643920898438
F0.0016269488260149956
I0
I-1
tp56
a((F268
F231
tF31
F62.294464111328125
F0.0071282605640590191
I0
I-1
tp57
a((F260
F232
tF31
F124.21653747558594
F0.0097354641184210777
I0
I-1
tp58
a((F266
F232
tF31
F77.577850341796875
F0.0062344870530068874
I0
I-1
tp59
a((F125
F236
tF31
F331.25335693359375
F0.0096367839723825455
I0
I-1
tp60
a((F220
F238
tF31
F186.19137573242188
F0.008681517094373703
I0
I-1
tp61
a((F173
F240
tF31
F259.05792236328125
F0.011037125252187252
I0
I-1
tp62
a((F80
F244
tF31
F128.86859130859375
F0.0047773891128599644
I0
I-1
tp63
a((F90
F244
tF31
F66.181655883789062
F0.005084688775241375
I0
I-1
tp64
a((F260
F244
tF31
F228.80120849609375
F0.0068880892358720303
I0
I-1
tp65
a((F129
F81
tF31
F81.754661560058594
F0.0014206268824636936
I0
I-1
tp66
a((F135
F81
tF31
F58.849555969238281
F0.0016284560551866889
I0
I-1
tp67
a((F81
F246
tF31
F130.15597534179688
F0.0069318613968789577
I0
I-1
tp68
a((F89
F246
tF31
F68.798027038574219
F0.0072904359549283981
I0
I-1
tp69
a((F83
F247
tF31
F116.90399169921875
F0.0071590524166822433
I0
I-1
tp70
a((F87
F247
tF31
F70.363868713378906
F0.0069695538841187954
I0
I-1
tp71
a((F133
F82
tF31
F61.859859466552734
F0.0014276631409302354
I0
I-1
tp72
a((F220
F247
tF31
F186.07803344726562
F0.0078646484762430191
I0
I-1
tp73
a((F234
F247
tF31
F109.18423461914062
F0.0078277550637722015
I0
I-1
tp74
a((F160
F82
tF31
F55.669189453125
F0.0027164421044290066
I0
I-1
tp75
a((F164
F82
tF31
F48.320049285888672
F0.0018406639574095607
I0
I-1
tp76
a((F124
F248
tF31
F252.19644165039062
F0.012666011229157448
I0
I-1
tp77
a((F31
F253
tF31
F134.37918090820312
F0.0045292209833860397
I0
I-1
tp78
a((F134
F257
tF31
F293.53643798828125
F0.011259968392550945
I0
I-1
tp79
a((F156
F254
tF31
F297.50262451171875
F0.0015260231448337436
I0
I-1
tp80
a((F85
F99
tF31
F24.808042526245117
F0.0023452173918485641
I0
I-1
tp81
a((F172
F254
tF31
F257.45111083984375
F0.001519134733825922
I0
I-1
tp82
a((F204
F254
tF31
F305.21353149414062
F0.0016291859792545438
I0
I-1
tp83
a((F32
F255
tF31
F128.53570556640625
F0.0064250691793859005
I0
I-1
tp84
a((F41
F255
tF31
F58.729843139648438
F0.0062642386183142662
I0
I-1
tp85
a((F133
F255
tF31
F289.57363891601562
F0.0099621880799531937
I0
I-1
tp86
a((F180
F255
tF31
F287.8697509765625
F0.0089145898818969727
I0
I-1
tp87
a((F34
F256
tF31
F109.52689361572266
F0.0047319415025413036
I0
I-1
tp88
a((F121
F257
tF31
F251.73968505859375
F0.009535633958876133
I0
I-1
tp89
a((F107
F257
tF31
F277.7237548828125
F0.0093854870647192001
I0
I-1
tp90
a((F39
F256
tF31
F68.235359191894531
F0.0041700671426951885
I0
I-1
tp91
a((F120
F167
tF31
F11.159459114074707
F9.0809749963227659e-05
I0
I-1
tp92
a((F135
F86
tF31
F73.041770935058594
F9.7667696536518633e-05
I0
I-1
tp93
a((F164
F85
tF31
F30.102035522460938
F0.00052358175162225962
I0
I-1
tp94
a((F192
F84
tF31
F43.244838714599609
F0.00010977202327921987
I0
I-1
tp95
a((F99
F255
tF31
F249.50492858886719
F0.00027405319269746542
I0
I-1
tp96
a((F69
F255
tF31
F300.8656005859375
F9.549983951728791e-05
I0
I-1
tp97
a((F176
F84
tF31
F30.506610870361328
F0.00082947156624868512
I0
I-1
tp98
a((F178
F87
tF31
F25.870855331420898
F0.0001177233352791518
I0
I-1
tp99
a((F172
F84
tF31
F24.539821624755859
F0.00051553442608565092
I0
I-1
tp100
a((F120
F165
tF31
F6.2545804977416992
F0.00051777117187157273
I0
I-1
tp101
a((F169
F176
tF31
F174.98709106445312
F0.0011320500634610653
I0
I-1
tp102
a((F136
F84
tF31
F83.854995727539062
F0.00093949510483071208
I0
I-1
tp103
a((F128
F84
tF31
F91.665138244628906
F0.00061724078841507435
I0
I-1
tp104
a((F119
F84
tF31
F83.163017272949219
F0.00026567158056423068
I0
I-1
tp105
a((F155
F159
tF31
F85.034294128417969
F0.00061173387803137302
I0
I-1
tp106
a((F157
F83
tF31
F144.75808715820312
F0.00065787089988589287
I0
I-1
tp107
a((F149
F254
tF31
F246.4893798828125
F0.00015835573140066117
I0
I-1
tp108
a((F153
F100
tF31
F209.98046875
F0.00023881770903244615
I0
I-1
tp109
a((F222
F100
tF31
F132.364990234375
F0.00012569941463880241
I0
I-1
tp110
a((F149
F101
tF31
F187.8408203125
F0.00019041310588363558
I0
I-1
tp111
a((F150
F159
tF31
F84.917282104492188
F0.0003863394376821816
I0
I-1
tp112
a((F83
F102
tF31
F27.730167388916016
F0.00092289864551275969
I0
I-1
tp113
a((F144
F103
tF31
F177.30905151367188
F0.00012589999823831022
I0
I-1
tp114
a((F147
F159
tF31
F93.731666564941406
F0.00026981189148500562
I0
I-1
tp115
a((F155
F104
tF31
F226.10516357421875
F0.00017688369553070515
I0
I-1
tp116
a((F222
F104
tF31
F143.8212890625
F0.00014304570504464209
I0
I-1
tp117
a((F171
F82
tF31
F29.007778167724609
F0.00069847784470766783
I0
I-1
tp118
a((F138
F105
tF31
F201.45700073242188
F0.00035386451054364443
I0
I-1
tp119
a((F151
F105
tF31
F192.54844665527344
F0.00017905236745718867
I0
I-1
tp120
a((F152
F158
tF31
F81.513496398925781
F0.00060518202371895313
I0
I-1
tp121
a((F43
F252
tF31
F41.683914184570312
F0.0011826425325125456
I0
I-1
tp122
a((F146
F106
tF31
F183.97567749023438
F0.00012690814037341624
I0
I-1
tp123
a((F149
F106
tF31
F186.08731079101562
F0.00012129441165598109
I0
I-1
tp124
a((F168
F82
tF31
F35.659347534179688
F0.00067044555908069015
I0
I-1
tp125
a((F155
F82
tF31
F183.734619140625
F0.00027540989685803652
I0
I-1
tp126
a((F138
F82
tF31
F103.03461456298828
F0.00034367185435257852
I0
I-1
tp127
a((F124
F82
tF31
F97.87518310546875
F0.001131405821070075
I0
I-1
tp128
a((F80
F108
tF31
F28.744953155517578
F0.00036042756983079016
I0
I-1
tp129
a((F148
F157
tF31
F94.22314453125
F0.00020741151820402592
I0
I-1
tp130
a((F142
F156
tF31
F114.01959991455078
F0.00018745764100458473
I0
I-1
tp131
a((F189
F81
tF31
F47.236911773681641
F0.00028182449750602245
I0
I-1
tp132
a((F140
F156
tF31
F118.20084381103516
F0.00014098896645009518
I0
I-1
tp133
a((F176
F81
tF31
F34.144725799560547
F0.00069737172452732921
I0
I-1
tp134
a((F174
F81
tF31
F32.46063232421875
F0.00084532087203115225
I0
I-1
tp135
a((F191
F80
tF31
F79.285400390625
F0.0002465824072714895
I0
I-1
tp136
a((F122
F156
tF31
F358.980712890625
F0.00017302458581980318
I0
I-1
tp137
a((F170
F80
tF31
F29.837371826171875
F0.00071391160599887371
I0
I-1
tp138
a((F125
F80
tF31
F111.97553253173828
F0.0011164599563926458
I0
I-1
tp139
a((F121
F80
tF31
F134.4432373046875
F0.00035090598976239562
I0
I-1
tp140
a((F119
F156
tF31
F351.43524169921875
F0.00020076525106560439
I0
I-1
tp141
a((F158
F79
tF31
F206.511474609375
F0.0011287967208772898
I0
I-1
tp142
a((F165
F114
tF31
F21.431282043457031
F9.9554927146527916e-05
I0
I-1
tp143
a((F139
F79
tF31
F36.558380126953125
F0.00026745910872705281
I0
I-1
tp144
a((F134
F155
tF31
F119.48816680908203
F0.00014635098341386765
I0
I-1
tp145
a((F173
F78
tF31
F31.842870712280273
F0.00034899418824352324
I0
I-1
tp146
a((F149
F78
tF31
F221.40481567382812
F0.00011423888645367697
I0
I-1
tp147
a((F129
F78
tF31
F56.492179870605469
F0.00058181578060612082
I0
I-1
tp148
a((F104
F202
tF31
F74.92083740234375
F0.00033734689350239933
I0
I-1
tp149
a((F156
F204
tF31
F344.53036499023438
F0.00088595051784068346
I0
I-1
tp150
a((F188
F116
tF31
F317.90780639648438
F0.0003124330542050302
I0
I-1
tp151
a((F162
F77
tF31
F297.52835083007812
F0.00016594270709902048
I0
I-1
tp152
a((F161
F154
tF31
F132.90118408203125
F9.2301714175846428e-05
I0
I-1
tp153
a((F127
F119
tF31
F31.675485610961914
F0.00031656186911277473
I0
I-1
tp154
a((F160
F77
tF31
F228.4039306640625
F0.00014039113011676818
I0
I-1
tp155
a((F121
F154
tF31
F354.71817016601562
F0.00023201847216114402
I0
I-1
tp156
a((F92
F153
tF31
F281.6751708984375
F0.00013253588986117393
I0
I-1
tp157
a((F187
F151
tF31
F278.97503662109375
F9.4905124569777399e-05
I0
I-1
tp158
a((F156
F77
tF31
F216.64341735839844
F0.00023757919552735984
I0
I-1
tp159
a((F118
F151
tF31
F343.37600708007812
F0.00057799142086878419
I0
I-1
tp160
a((F131
F77
tF31
F357.25543212890625
F0.00013745398609898984
I0
I-1
tp161
a((F129
F120
tF31
F48.967784881591797
F0.00031712939380668104
I0
I-1
tp162
a((F153
F76
tF31
F218.63174438476562
F0.00017115303489845246
I0
I-1
tp163
a((F89
F151
tF31
F295.385986328125
F0.00053784536430612206
I0
I-1
tp164
a((F189
F150
tF31
F286.05999755859375
F0.00023492366017308086
I0
I-1
tp165
a((F182
F38
tF31
F308.54776000976562
F0.000141690339660272
I0
I-1
tp166
a((F104
F150
tF31
F236.04734802246094
F0.00017593079246580601
I0
I-1
tp167
a((F127
F219
tF31
F340.632568359375
F0.0010849263053387403
I0
I-1
tp168
a((F179
F56
tF31
F111.74935150146484
F0.00043020403245463967
I0
I-1
tp169
a((F183
F60
tF31
F110.67916870117188
F0.00031897009466774762
I0
I-1
tp170
a((F175
F74
tF31
F37.234859466552734
F0.00065225927392020822
I0
I-1
tp171
a((F99
F74
tF31
F44.254566192626953
F0.00012611976126208901
I0
I-1
tp172
a((F186
F60
tF31
F114.14923858642578
F0.000134410904138349
I0
I-1
tp173
a((F167
F73
tF31
F359.23757934570312
F0.0001856733433669433
I0
I-1
tp174
a((F189
F148
tF31
F287.44686889648438
F0.00022799419821240008
I0
I-1
tp175
a((F183
F62
tF31
F108.29281616210938
F0.00026393926236778498
I0
I-1
tp176
a((F169
F72
tF31
F10.276392936706543
F0.00031746472814120352
I0
I-1
tp177
a((F104
F148
tF31
F227.64859008789062
F0.00014025361451786011
I0
I-1
tp178
a((F220
F127
tF31
F203.35418701171875
F0.00010472395661054179
I0
I-1
tp179
a((F233
F217
tF31
F230.92266845703125
F0.00071175792254507542
I0
I-1
tp180
a((F165
F64
tF31
F128.87265014648438
F0.00010546051635174081
I0
I-1
tp181
a((F175
F217
tF31
F113.79730224609375
F0.00043657684000208974
I0
I-1
tp182
a((F121
F72
tF31
F193.75315856933594
F0.00032844417728483677
I0
I-1
tp183
a((F37
F217
tF31
F274.23941040039062
F0.00014191943046171218
I0
I-1
tp184
a((F85
F146
tF31
F309.64895629882812
F0.00023319019237533212
I0
I-1
tp185
a((F173
F71
tF31
F30.216835021972656
F0.00091270625125616789
I0
I-1
tp186
a((F165
F71
tF31
F264.6431884765625
F0.00010276817920384929
I0
I-1
tp187
a((F161
F70
tF31
F216.12582397460938
F0.0003249811998102814
I0
I-1
tp188
a((F106
F145
tF31
F212.2855224609375
F9.5339004474226385e-05
I0
I-1
tp189
a((F128
F70
tF31
F290.45660400390625
F0.00019048193644266576
I0
I-1
tp190
a((F158
F69
tF31
F212.95796203613281
F0.00015702375094406307
I0
I-1
tp191
a((F125
F69
tF31
F350.77813720703125
F0.0002895904763136059
I0
I-1
tp192
a((F183
F138
tF31
F271.35928344726562
F0.00021698295313399285
I0
I-1
tp193
a((F78
F139
tF31
F327.9869384765625
F0.00012155346485087648
I0
I-1
tp194
a((F193
F65
tF31
F117.15984344482422
F0.00015761713439133018
I0
I-1
tp195
a((F120
F69
tF31
F127.6358642578125
F0.00024667332763783634
I0
I-1
tp196
a((F174
F68
tF31
F82.348190307617188
F0.00018378406821284443
I0
I-1
tp197
a((F165
F68
tF31
F213.17230224609375
F0.00013699538249056786
I0
I-1
tp198
a((F110
F66
tF31
F55.937046051025391
F0.0001259908895008266
I0
I-1
tp199
a((F116
F140
tF31
F341.93637084960938
F0.00014296150766313076
I0
I-1
tp200
a((F80
F141
tF31
F322.67572021484375
F0.00065932160941883922
I0
I-1
tp201
a((F123
F68
tF31
F91.738067626953125
F0.00020317512098699808
I0
I-1
tp202
a((F163
F67
tF31
F198.24197387695312
F0.00025770961656235158
I0
I-1
tp203
a((F182
F142
tF31
F263.55072021484375
F0.00076351175084710121
I0
I-1
tp204
a((F166
F66
tF31
F156.15567016601562
F0.00012185802916064858
I0
I-1
tp205
a((F82
F144
tF31
F316.2064208984375
F0.00075057265348732471
I0
I-1
tp206
a((F134
F67
tF31
F10.15677547454834
F0.00056975468760356307
I0
I-1
tp207
a((F149
F92
tF31
F183.84869384765625
F7.6696356700267643e-05
I0
I-1
tp208
a((F186
F66
tF31
F108.97509002685547
F8.3290738984942436e-05
I0
I-1
tp209
a((F213
F94
tF31
F142.09967041015625
F7.6840231486130506e-05
I0
I-1
tp210
a((F131
F157
tF31
F50.997745513916016
F8.3676088252104819e-05
I0
I-1
tp211
a((F124
F113
tF31
F357.85818481445312
F7.7275362855289131e-05
I0
I-1
tp212
a((F160
F118
tF31
F68.411689758300781
F8.0953010183293372e-05
I0
I-1
tp213
a((F207
F119
tF31
F225.55023193359375
F8.1640537246130407e-05
I0
I-1
tp214
a((F111
F60
tF31
F60.902149200439453
F8.9858993305824697e-05
I0
I-1
tp215
a((F196
F64
tF31
F116.69755554199219
F8.9221175585407764e-05
I0
I-1
tp216
a((F221
F125
tF31
F200.40481567382812
F7.7524513471871614e-05
I0
I-1
tp217
a((F113
F63
tF31
F62.620975494384766
F7.819746679160744e-05
I0
I-1
tp218
a((F171.60000610351562
F207.60000610351562
tF37.200000762939453
F101.73980712890625
F0.0037819184362888336
I1
I-1
tp219
a((F156
F207.60000610351562
tF37.200000762939453
F355.12728881835938
F0.0043537169694900513
I1
I-1
tp220
a((F236.40000915527344
F256.80001831054688
tF37.200000762939453
F320.87289428710938
F0.0079278135672211647
I1
I-1
tp221
a((F204.00001525878906
F256.80001831054688
tF37.200000762939453
F287.76156616210938
F0.0085698189213871956
I1
I-1
tp222
a((F103.20000457763672
F207.60000610351562
tF37.200000762939453
F75.266799926757812
F0.0045186327770352364
I1
I-1
tp223
a((F90
F207.60000610351562
tF37.200000762939453
F78.131095886230469
F0.0096733514219522476
I1
I-1
tp224
a((F79.200004577636719
F207.60000610351562
tF37.200000762939453
F101.83003997802734
F0.0095656448975205421
I1
I-1
tp225
a((F196.80000305175781
F256.80001831054688
tF37.200000762939453
F263.8326416015625
F0.0077833193354308605
I1
I-1
tp226
a((F64.800003051757812
F207.60000610351562
tF37.200000762939453
F81.2513427734375
F0.0085608726367354393
I1
I-1
tp227
a((F181.20001220703125
F207.60000610351562
tF37.200000762939453
F121.57892608642578
F0.00904044508934021
I1
I-1
tp228
a((F195.60000610351562
F207.60000610351562
tF37.200000762939453
F92.647598266601562
F0.0070372843183577061
I1
I-1
tp229
a((F204.00001525878906
F207.60000610351562
tF37.200000762939453
F62.253250122070312
F0.0087017053738236427
I1
I-1
tp230
a((F181.20001220703125
F256.80001831054688
tF37.200000762939453
F270.69985961914062
F0.0090114325284957886
I1
I-1
tp231
a((F236.40000915527344
F207.60000610351562
tF37.200000762939453
F84.470138549804688
F0.0072004641406238079
I1
I-1
tp232
a((F244.80000305175781
F207.60000610351562
tF37.200000762939453
F70.083427429199219
F0.0096014738082885742
I1
I-1
tp233
a((F80.400001525878906
F210.00001525878906
tF37.200000762939453
F102.73760223388672
F0.0061719464138150215
I1
I-1
tp234
a((F204.00001525878906
F210.00001525878906
tF37.200000762939453
F53.611274719238281
F0.0074238455854356289
I1
I-1
tp235
a((F243.60000610351562
F210.00001525878906
tF37.200000762939453
F58.421257019042969
F0.0061811972409486771
I1
I-1
tp236
a((F219.60000610351562
F217.20001220703125
tF37.200000762939453
F126.83599853515625
F0.0062915482558310032
I1
I-1
tp237
a((F232.80000305175781
F217.20001220703125
tF37.200000762939453
F182.42457580566406
F0.0046810363419353962
I1
I-1
tp238
a((F171.60000610351562
F256.80001831054688
tF37.200000762939453
F270.25698852539062
F0.0083125317469239235
I1
I-1
tp239
a((F236.40000915527344
F217.20001220703125
tF37.200000762939453
F346.02450561523438
F0.0069739515893161297
I1
I-1
tp240
a((F260.4000244140625
F217.20001220703125
tF37.200000762939453
F94.142356872558594
F0.0085381800308823586
I1
I-1
tp241
a((F40.800003051757812
F218.40000915527344
tF37.200000762939453
F301.66799926757812
F0.0069606872275471687
I1
I-1
tp242
a((F184.80000305175781
F225.60000610351562
tF37.200000762939453
F175.5596923828125
F0.0045523704029619694
I1
I-1
tp243
a((F219.60000610351562
F225.60000610351562
tF37.200000762939453
F198.48812866210938
F0.0066685606725513935
I1
I-1
tp244
a((F229.20001220703125
F226.80000305175781
tF37.200000762939453
F208.80224609375
F0.010599484667181969
I1
I-1
tp245
a((F260.4000244140625
F231.60000610351562
tF37.200000762939453
F90.515823364257812
F0.0082561774179339409
I1
I-1
tp246
a((F124.80000305175781
F235.20001220703125
tF37.200000762939453
F341.64834594726562
F0.0079841343685984612
I1
I-1
tp247
a((F129.60000610351562
F235.20001220703125
tF37.200000762939453
F226.98884582519531
F0.0078120613470673561
I1
I-1
tp248
a((F219.60000610351562
F237.60000610351562
tF37.200000762939453
F165.82548522949219
F0.0054700663313269615
I1
I-1
tp249
a((F226.80000305175781
F237.60000610351562
tF37.200000762939453
F158.31500244140625
F0.0051663159392774105
I1
I-1
tp250
a((F229.20001220703125
F237.60000610351562
tF37.200000762939453
F152.05194091796875
F0.0082923984155058861
I1
I-1
tp251
a((F172.80000305175781
F240.00001525878906
tF37.200000762939453
F253.20050048828125
F0.007511527743190527
I1
I-1
tp252
a((F90
F243.60000610351562
tF37.200000762939453
F152.08163452148438
F0.0053219608962535858
I1
I-1
tp253
a((F81.600006103515625
F246.00001525878906
tF37.200000762939453
F315.296630859375
F0.006327776238322258
I1
I-1
tp254
a((F88.800003051757812
F246.00001525878906
tF37.200000762939453
F194.73870849609375
F0.0061356532387435436
I1
I-1
tp255
a((F156
F256.80001831054688
tF37.200000762939453
F275.90106201171875
F0.0086572058498859406
I1
I-1
tp256
a((F220.80000305175781
F246.00001525878906
tF37.200000762939453
F208.73493957519531
F0.0085495030507445335
I1
I-1
tp257
a((F86.400001525878906
F247.20001220703125
tF37.200000762939453
F225.74819946289062
F0.0062934635207056999
I1
I-1
tp258
a((F148.80000305175781
F256.80001831054688
tF37.200000762939453
F267.53424072265625
F0.0085379770025610924
I1
I-1
tp259
a((F236.40000915527344
F247.20001220703125
tF37.200000762939453
F26.680231094360352
F0.0078779002651572227
I1
I-1
tp260
a((F122.40000152587891
F248.40000915527344
tF37.200000762939453
F285.187255859375
F0.0060858763754367828
I1
I-1
tp261
a((F132
F248.40000915527344
tF37.200000762939453
F269.08697509765625
F0.0064347432926297188
I1
I-1
tp262
a((F133.20001220703125
F254.40000915527344
tF37.200000762939453
F270.97860717773438
F0.0079925982281565666
I1
I-1
tp263
a((F180
F254.40000915527344
tF37.200000762939453
F268.02725219726562
F0.0079311849549412727
I1
I-1
tp264
a((F39.600002288818359
F255.60000610351562
tF37.200000762939453
F68.232406616210938
F0.0059589808806777
I1
I-1
tp265
a((F106.80000305175781
F256.80001831054688
tF37.200000762939453
F263.75888061523438
F0.0076287360861897469
I1
I-1
tp266
a((F120.00000762939453
F256.80001831054688
tF37.200000762939453
F274.09304809570312
F0.0088482480496168137
I1
I-1
tp267
a((F134.40000915527344
F256.80001831054688
tF37.200000762939453
F272.72186279296875
F0.0089876158162951469
I1
I-1
tp268
a((F219.60000610351562
F126.00000762939453
tF37.200000762939453
F201.71015930175781
F0.00014708527305629104
I1
I-1
tp269
a((F174
F79.200004577636719
tF37.200000762939453
F44.376213073730469
F0.00048292186693288386
I1
I-1
tp270
a((F188.40000915527344
F79.200004577636719
tF37.200000762939453
F86.42620849609375
F0.00018987630028277636
I1
I-1
tp271
a((F120.00000762939453
F80.400001525878906
tF37.200000762939453
F152.19139099121094
F0.00029992990312166512
I1
I-1
tp272
a((F128.40000915527344
F81.600006103515625
tF37.200000762939453
F62.998825073242188
F0.00054860149975866079
I1
I-1
tp273
a((F133.20001220703125
F81.600006103515625
tF37.200000762939453
F81.873245239257812
F0.00076703220838680863
I1
I-1
tp274
a((F138
F81.600006103515625
tF37.200000762939453
F131.28359985351562
F0.00030624741339124739
I1
I-1
tp275
a((F159.60000610351562
F81.600006103515625
tF37.200000762939453
F161.08265686035156
F0.0010151232127100229
I1
I-1
tp276
a((F164.40000915527344
F81.600006103515625
tF37.200000762939453
F20.997419357299805
F0.0010448787361383438
I1
I-1
tp277
a((F170.40000915527344
F81.600006103515625
tF37.200000762939453
F28.971111297607422
F0.00042791018495336175
I1
I-1
tp278
a((F156
F78
tF37.200000762939453
F209.95587158203125
F0.00026352237910032272
I1
I-1
tp279
a((F120.00000762939453
F82.800003051757812
tF37.200000762939453
F125.31684875488281
F0.00035754026612266898
I1
I-1
tp280
a((F157.20001220703125
F82.800003051757812
tF37.200000762939453
F169.89120483398438
F0.0002772162260953337
I1
I-1
tp281
a((F168
F82.800003051757812
tF37.200000762939453
F23.580175399780273
F0.00046045467024669051
I1
I-1
tp282
a((F123.60000610351562
F84
tF37.200000762939453
F79.974166870117188
F0.00038905130350030959
I1
I-1
tp283
a((F127.20000457763672
F84
tF37.200000762939453
F73.082878112792969
F0.00028684196877293289
I1
I-1
tp284
a((F160.80000305175781
F84
tF37.200000762939453
F85.406166076660156
F0.00090112898033112288
I1
I-1
tp285
a((F171.60000610351562
F84
tF37.200000762939453
F28.828947067260742
F0.00028033860144205391
I1
I-1
tp286
a((F176.40000915527344
F84
tF37.200000762939453
F37.933269500732422
F0.00040315423393622041
I1
I-1
tp287
a((F164.40000915527344
F85.200004577636719
tF37.200000762939453
F31.528789520263672
F0.00039620388997718692
I1
I-1
tp288
a((F182.40000915527344
F37.200000762939453
tF37.200000762939453
F314.85879516601562
F0.00019059429178014398
I1
I-1
tp289
a((F139.20001220703125
F207.60000610351562
tF37.200000762939453
F175.037109375
F0.002752391854301095
I1
I-1
tp290
a((F148.80000305175781
F78
tF37.200000762939453
F220.95201110839844
F0.00016743571904953569
I1
I-1
tp291
a((F117.60000610351562
F207.60000610351562
tF37.200000762939453
F21.656890869140625
F0.0036341175436973572
I1
I-1
tp292
a((F162
F76.800003051757812
tF37.200000762939453
F260.38116455078125
F0.00027477493858896196
I1
I-1
tp293
a((F130.80000305175781
F76.800003051757812
tF37.200000762939453
F352.87350463867188
F0.0002207363722845912
I1
I-1
tp294
a((F175.20001220703125
F55.200000762939453
tF37.200000762939453
F111.68247222900391
F0.00039858298259787261
I1
I-1
tp295
a((F178.80000305175781
F56.400001525878906
tF37.200000762939453
F110.11784362792969
F0.00062100857030600309
I1
I-1
tp296
a((F99.600006103515625
F254.40000915527344
tF37.200000762939453
F261.03903198242188
F0.00053213560022413731
I1
I-1
tp297
a((F68.400001525878906
F254.40000915527344
tF37.200000762939453
F283.87100219726562
F0.00085991079686209559
I1
I-1
tp298
a((F204.00001525878906
F253.20001220703125
tF37.200000762939453
F297.40518188476562
F0.0014877625508233905
I1
I-1
tp299
a((F182.40000915527344
F58.800003051757812
tF37.200000762939453
F108.76567077636719
F0.00025523977819830179
I1
I-1
tp300
a((F110.40000152587891
F60.000003814697266
tF37.200000762939453
F59.159912109375
F0.00015878866543062031
I1
I-1
tp301
a((F171.60000610351562
F253.20001220703125
tF37.200000762939453
F274.080322265625
F0.0012572403065860271
I1
I-1
tp302
a((F156
F253.20001220703125
tF37.200000762939453
F276.73272705078125
F0.0013571798335760832
I1
I-1
tp303
a((F85.200004577636719
F98.400001525878906
tF37.200000762939453
F26.468463897705078
F0.0020648790523409843
I1
I-1
tp304
a((F183.60000610351562
F61.200000762939453
tF37.200000762939453
F108.30145263671875
F0.0003624930395744741
I1
I-1
tp305
a((F121.20000457763672
F253.20001220703125
tF37.200000762939453
F279.0015869140625
F0.0011903574923053384
I1
I-1
tp306
a((F43.200000762939453
F252.00001525878906
tF37.200000762939453
F77.336959838867188
F0.0030388471204787493
I1
I-1
tp307
a((F156
F204.00001525878906
tF37.200000762939453
F328.41171264648438
F0.0010448462562635541
I1
I-1
tp308
a((F152.40000915527344
F99.600006103515625
tF37.200000762939453
F197.302001953125
F0.00018122493929695338
I1
I-1
tp309
a((F222.00001525878906
F99.600006103515625
tF37.200000762939453
F135.02920532226562
F0.00015120067109819502
I1
I-1
tp310
a((F102.00000762939453
F204.00001525878906
tF37.200000762939453
F68.924995422363281
F0.0028197108767926693
I1
I-1
tp311
a((F148.80000305175781
F100.80000305175781
tF37.200000762939453
F187.48614501953125
F0.00020846367988269776
I1
I-1
tp312
a((F82.800003051757812
F102.00000762939453
tF37.200000762939453
F27.092727661132812
F0.00093535956693813205
I1
I-1
tp313
a((F52.800003051757812
F210.00001525878906
tF37.200000762939453
F109.49515533447266
F0.0004490457649808377
I1
I-1
tp314
a((F169.20001220703125
F175.20001220703125
tF37.200000762939453
F176.82121276855469
F0.00047315002302639186
I1
I-1
tp315
a((F81.600006103515625
F104.40000152587891
tF37.200000762939453
F27.008998870849609
F0.00046594080049544573
I1
I-1
tp316
a((F139.20001220703125
F104.40000152587891
tF37.200000762939453
F197.13751220703125
F0.00017850518634077162
I1
I-1
tp317
a((F195.60000610351562
F63.600002288818359
tF37.200000762939453
F120.24632263183594
F0.00022236080258153379
I1
I-1
tp318
a((F222.00001525878906
F104.40000152587891
tF37.200000762939453
F145.55007934570312
F0.00015774270286783576
I1
I-1
tp319
a((F104.40000152587891
F210.00001525878906
tF37.200000762939453
F78.907508850097656
F0.0024493387900292873
I1
I-1
tp320
a((F146.40000915527344
F105.60000610351562
tF37.200000762939453
F187.58045959472656
F0.00015537127910647541
I1
I-1
tp321
a((F150
F105.60000610351562
tF37.200000762939453
F193.10696411132812
F0.00015070936933625489
I1
I-1
tp322
a((F156
F210.00001525878906
tF37.200000762939453
F7.2786350250244141
F0.0036797649227082729
I1
I-1
tp323
a((F171.60000610351562
F210.00001525878906
tF37.200000762939453
F94.329612731933594
F0.0031347712501883507
I1
I-1
tp324
a((F80.400001525878906
F108.00000762939453
tF37.200000762939453
F25.796600341796875
F0.00017777140601538122
I1
I-1
tp325
a((F232.80000305175781
F247.20001220703125
tF37.200000762939453
F168.82363891601562
F0.0026961865369230509
I1
I-1
tp326
a((F193.20001220703125
F64.800003051757812
tF37.200000762939453
F119.98997497558594
F0.00026198872365057468
I1
I-1
tp327
a((F174
F73.200004577636719
tF37.200000762939453
F62.815788269042969
F0.00072761683259159327
I1
I-1
tp328
a((F120.00000762939453
F164.40000915527344
tF37.200000762939453
F6.3766860961914062
F0.00045317260082811117
I1
I-1
tp329
a((F90
F211.20001220703125
tF37.200000762939453
F80.472900390625
F0.00067880266578868032
I1
I-1
tp330
a((F154.80000305175781
F159.60000610351562
tF37.200000762939453
F113.90478515625
F0.00044971090392209589
I1
I-1
tp331
a((F152.40000915527344
F159.60000610351562
tF37.200000762939453
F94.404296875
F0.00049319473328068852
I1
I-1
tp332
a((F150
F159.60000610351562
tF37.200000762939453
F87.175422668457031
F0.00046556975576095283
I1
I-1
tp333
a((F147.60000610351562
F159.60000610351562
tF37.200000762939453
F90.490875244140625
F0.0002817196655087173
I1
I-1
tp334
a((F123.60000610351562
F159.60000610351562
tF37.200000762939453
F7.3386087417602539
F0.00015329635061789304
I1
I-1
tp335
a((F151.20001220703125
F157.20001220703125
tF37.200000762939453
F88.763565063476562
F0.0003797015524469316
I1
I-1
tp336
a((F141.60000610351562
F157.20001220703125
tF37.200000762939453
F111.73973083496094
F0.00023109602625481784
I1
I-1
tp337
a((F168
F72
tF37.200000762939453
F11.699165344238281
F0.00029270138475112617
I1
I-1
tp338
a((F260.4000244140625
F244.80000305175781
tF37.200000762939453
F257.54168701171875
F0.0036402840632945299
I1
I-1
tp339
a((F158.40000915527344
F156
tF37.200000762939453
F139.41458129882812
F0.0003666898119263351
I1
I-1
tp340
a((F178.80000305175781
F211.20001220703125
tF37.200000762939453
F123.89385986328125
F0.0016291245119646192
I1
I-1
tp341
a((F103.20000457763672
F152.40000915527344
tF37.200000762939453
F254.858154296875
F0.00022436684230342507
I1
I-1
tp342
a((F121.20000457763672
F72
tF37.200000762939453
F135.1231689453125
F0.00031201774254441261
I1
I-1
tp343
a((F91.200004577636719
F152.40000915527344
tF37.200000762939453
F279.21640014648438
F0.00047166345757432282
I1
I-1
tp344
a((F190.80000305175781
F151.20001220703125
tF37.200000762939453
F284.94631958007812
F0.00015826501476112753
I1
I-1
tp345
a((F187.20001220703125
F116.40000152587891
tF37.200000762939453
F327.9058837890625
F0.00021342452964745462
I1
I-1
tp346
a((F117.60000610351562
F151.20001220703125
tF37.200000762939453
F338.88467407226562
F0.00025899216416291893
I1
I-1
tp347
a((F88.800003051757812
F151.20001220703125
tF37.200000762939453
F288.30999755859375
F0.00040617151535116136
I1
I-1
tp348
a((F188.40000915527344
F150
tF37.200000762939453
F279.70050048828125
F0.00019178086949978024
I1
I-1
tp349
a((F127.20000457763672
F118.80000305175781
tF37.200000762939453
F11.210260391235352
F0.00017288645904045552
I1
I-1
tp350
a((F165.60000610351562
F66
tF37.200000762939453
F112.75675964355469
F0.00017682122415862978
I1
I-1
tp351
a((F187.20001220703125
F147.60000610351562
tF37.200000762939453
F278.65789794921875
F0.00054829864529892802
I1
I-1
tp352
a((F116.40000152587891
F146.40000915527344
tF37.200000762939453
F329.47259521484375
F0.0012591751292347908
I1
I-1
tp353
a((F85.200004577636719
F146.40000915527344
tF37.200000762939453
F305.10284423828125
F0.00019382646132726222
I1
I-1
tp354
a((F184.80000305175781
F145.20001220703125
tF37.200000762939453
F273.76498413085938
F0.0020769580733031034
I1
I-1
tp355
a((F133.20001220703125
F67.200004577636719
tF37.200000762939453
F44.133010864257812
F0.00066536123631522059
I1
I-1
tp356
a((F81.600006103515625
F144
tF37.200000762939453
F316.43017578125
F0.00031574949389323592
I1
I-1
tp357
a((F181.20001220703125
F142.80000305175781
tF37.200000762939453
F263.16152954101562
F0.0005228572990745306
I1
I-1
tp358
a((F174
F68.400001525878906
tF37.200000762939453
F95.463768005371094
F0.00033096486004069448
I1
I-1
tp359
a((F116.40000152587891
F140.40000915527344
tF37.200000762939453
F335.77447509765625
F0.00022333499509841204
I1
I-1
tp360
a((F80.400001525878906
F140.40000915527344
tF37.200000762939453
F324.54507446289062
F0.00021991894755046815
I1
I-1
tp361
a((F127.20000457763672
F219.60000610351562
tF37.200000762939453
F41.582630157470703
F0.00088289426639676094
I1
I-1
tp362
a((F43.200000762939453
F220.80000305175781
tF37.200000762939453
F289.30047607421875
F0.0036189176607877016
I1
I-1
tp363
a((F171.60000610351562
F222.00001525878906
tF37.200000762939453
F107.41246795654297
F0.0020466700661927462
I1
I-1
tp364
a((F118.80000305175781
F69.600006103515625
tF37.200000762939453
F90.976364135742188
F0.0001621925039216876
I1
I-1
tp365
a((F121.20000457763672
F69.600006103515625
tF37.200000762939453
F92.604843139648438
F0.00026590871857479215
I1
I-1
tp366
a((F136.80000305175781
F69.600006103515625
tF37.200000762939453
F358.21493530273438
F0.00026607952895574272
I1
I-1
tp367
a((F160.80000305175781
F69.600006103515625
tF37.200000762939453
F201.53431701660156
F0.00032524322159588337
I1
I-1
tp368
a((F165.60000610351562
F69.600006103515625
tF37.200000762939453
F349.50033569335938
F0.00016118474013637751
I1
I-1
tp369
a((F138
F79.200004577636719
tF37.200000762939453
F183.57670593261719
F0.0003321574185974896
I1
I-1
tp370
a((F100.80000305175781
F72
tF37.200000762939453
F47.561637878417969
F7.42616321076639e-05
I1
I-1
tp371
a((F133.20001220703125
F157.20001220703125
tF37.200000762939453
F48.132793426513672
F0.0001463433145545423
I1
I-1
tp372
a((F222.00001525878906
F124.80000305175781
tF37.200000762939453
F199.5206298828125
F8.0308585893362761e-05
I1
I-1
tp373
a((F165.60000610351562
F75.600006103515625
tF37.200000762939453
F358.58877563476562
F8.2611084508243948e-05
I1
I-1
tp374
a((F117.60000610351562
F72
tF37.200000762939453
F111.27153015136719
F0.00012394020450301468
I1
I-1
tp375
a((F164.40000915527344
F114.00000762939453
tF37.200000762939453
F21.227998733520508
F9.9160570243839175e-05
I1
I-1
tp376
a((F187.20001220703125
F61.200000762939453
tF37.200000762939453
F112.74237060546875
F0.00010551436571404338
I1
I-1
tp377
a((F157.20001220703125
F69.600006103515625
tF37.200000762939453
F195.64285278320312
F0.00011936247028643265
I1
I-1
tp378
a((F106.80000305175781
F144
tF37.200000762939453
F231.88655090332031
F8.0457321018911898e-05
I1
I-1
tp379
a((F112.80000305175781
F62.400001525878906
tF37.200000762939453
F61.501853942871094
F0.00010413408017484471
I1
I-1
tp380
a((F165.60000610351562
F63.600002288818359
tF37.200000762939453
F113.82654571533203
F0.00013081022188998759
I1
I-1
tp381
a((F162
F178.80000305175781
tF37.200000762939453
F186.11759948730469
F7.9869882029015571e-05
I1
I-1
tp382
a((F75.600006103515625
F134.40000915527344
tF37.200000762939453
F338.51220703125
F0.00010359496081946418
I1
I-1
tp383
a((F186
F66
tF37.200000762939453
F107.75187683105469
F7.6047625043429434e-05
I1
I-1
tp384
a((F154.80000305175781
F104.40000152587891
tF37.200000762939453
F214.74429321289062
F0.00011164095485582948
I1
I-1
tp385
a((F140.40000915527344
F211.20001220703125
tF37.200000762939453
F169.31829833984375
F0.0001374420098727569
I1
I-1
tp386
a((F100.80000305175781
F148.80000305175781
tF37.200000762939453
F244.54397583007812
F0.00010371133248554543
I1
I-1
tp387
a((F78
F138
tF37.200000762939453
F330.68508911132812
F0.00010738676064647734
I1
I-1
tp388
a((F129.60000610351562
F121.20000457763672
tF37.200000762939453
F30.651609420776367
F0.00011575470125535503
I1
I-1
tp389
a((F109.20000457763672
F66
tF37.200000762939453
F54.639560699462891
F0.00011993965017609298
I1
I-1
tp390
a((F104.40000152587891
F142.80000305175781
tF37.200000762939453
F217.8404541015625
F9.5129100373014808e-05
I1
I-1
tp391
a((F182.40000915527344
F138
tF37.200000762939453
F274.96035766601562
F0.00013469718396663666
I1
I-1
tp392
a((F126.00000762939453
F112.80000305175781
tF37.200000762939453
F357.57586669921875
F0.00011564031592570245
I1
I-1
tp393
a((F116.40000152587891
F211.20001220703125
tF37.200000762939453
F28.53337287902832
F0.00013797690917272121
I1
I-1
tp394
a((F98.400001525878906
F73.200004577636719
tF37.200000762939453
F45.180908203125
F0.00010907241812674329
I1
I-1
tp395
a((F104.40000152587891
F147.60000610351562
tF37.200000762939453
F241.56939697265625
F0.00010150686284760013
I1
I-1
tp396
a((F151.20001220703125
F118.80000305175781
tF37.200000762939453
F134.51788330078125
F7.0831396442372352e-05
I1
I-1
tp397
a((F121.20000457763672
F154.80000305175781
tF37.200000762939453
F358.33877563476562
F7.0938782300800085e-05
I1
I-1
tp398
a((F129.60000610351562
F74.400001525878906
tF37.200000762939453
F359.90194702148438
F7.3262075602542609e-05
I1
I-1
tp399
a((F178.56001281738281
F56.160003662109375
tF44.640003204345703
F109.80316162109375
F0.00069207954220473766
I2
I-1
tp400
a((F175.68000793457031
F56.160003662109375
tF44.640003204345703
F109.43580627441406
F0.00078172050416469574
I2
I-1
tp401
a((F178.56001281738281
F253.44000244140625
tF44.640003204345703
F252.24366760253906
F0.0053124073892831802
I2
I-1
tp402
a((F99.360000610351562
F253.44000244140625
tF44.640003204345703
F269.41192626953125
F0.0012652783188968897
I2
I-1
tp403
a((F69.120002746582031
F253.44000244140625
tF44.640003204345703
F267.54403686523438
F0.0018999464809894562
I2
I-1
tp404
a((F171.36000061035156
F252.00001525878906
tF44.640003204345703
F285.34906005859375
F0.0017797604668885469
I2
I-1
tp405
a((F131.04000854492188
F249.12001037597656
tF44.640003204345703
F252.30645751953125
F0.0078006628900766373
I2
I-1
tp406
a((F122.40000152587891
F249.12001037597656
tF44.640003204345703
F293.40350341796875
F0.0072594983503222466
I2
I-1
tp407
a((F236.16000366210938
F247.68000793457031
tF44.640003204345703
F349.42645263671875
F0.0068108681589365005
I2
I-1
tp408
a((F220.32000732421875
F246.24000549316406
tF44.640003204345703
F230.12380981445312
F0.0064573856070637703
I2
I-1
tp409
a((F83.520004272460938
F246.24000549316406
tF44.640003204345703
F271.36648559570312
F0.0077175567857921124
I2
I-1
tp410
a((F87.840003967285156
F244.80000305175781
tF44.640003204345703
F216.59910583496094
F0.0072367140091955662
I2
I-1
tp411
a((F172.80000305175781
F240.48001098632812
tF44.640003204345703
F262.365234375
F0.0057675549760460854
I2
I-1
tp412
a((F220.32000732421875
F237.60000610351562
tF44.640003204345703
F154.54940795898438
F0.0070076505653560162
I2
I-1
tp413
a((F228.96000671386719
F236.16000366210938
tF44.640003204345703
F147.5692138671875
F0.0068520894274115562
I2
I-1
tp414
a((F128.16000366210938
F234.72001647949219
tF44.640003204345703
F263.85159301757812
F0.010519734583795071
I2
I-1
tp415
a((F125.28000640869141
F234.72001647949219
tF44.640003204345703
F338.40841674804688
F0.0096141910180449486
I2
I-1
tp416
a((F228.96000671386719
F226.08000183105469
tF44.640003204345703
F213.33598327636719
F0.0070990254171192646
I2
I-1
tp417
a((F184.32000732421875
F226.08000183105469
tF44.640003204345703
F172.37847900390625
F0.0043938644230365753
I2
I-1
tp418
a((F220.32000732421875
F224.6400146484375
tF44.640003204345703
F202.50274658203125
F0.0079227471724152565
I2
I-1
tp419
a((F171.36000061035156
F220.32000732421875
tF44.640003204345703
F91.103965759277344
F0.0022118210326880217
I2
I-1
tp420
a((F126.72000122070312
F220.32000732421875
tF44.640003204345703
F66.278572082519531
F0.00092686276184394956
I2
I-1
tp421
a((F220.32000732421875
F217.44000244140625
tF44.640003204345703
F132.69706726074219
F0.0073985271155834198
I2
I-1
tp422
a((F234.72001647949219
F216.00001525878906
tF44.640003204345703
F84.964828491210938
F0.0076354821212589741
I2
I-1
tp423
a((F178.56001281738281
F210.24000549316406
tF44.640003204345703
F136.15510559082031
F0.0041350424289703369
I2
I-1
tp424
a((F171.36000061035156
F210.24000549316406
tF44.640003204345703
F94.662406921386719
F0.0035111212637275457
I2
I-1
tp425
a((F53.280002593994141
F210.24000549316406
tF44.640003204345703
F93.253883361816406
F0.00088685756782069802
I2
I-1
tp426
a((F244.80000305175781
F207.36001586914062
tF44.640003204345703
F71.023895263671875
F0.0089468229562044144
I2
I-1
tp427
a((F234.72001647949219
F207.36001586914062
tF44.640003204345703
F83.810768127441406
F0.0082431808114051819
I2
I-1
tp428
a((F204.48001098632812
F207.36001586914062
tF44.640003204345703
F69.66021728515625
F0.0085748936980962753
I2
I-1
tp429
a((F194.40000915527344
F207.36001586914062
tF44.640003204345703
F81.080078125
F0.0070481458678841591
I2
I-1
tp430
a((F181.44000244140625
F207.36001586914062
tF44.640003204345703
F136.62953186035156
F0.0083713950589299202
I2
I-1
tp431
a((F169.92001342773438
F207.36001586914062
tF44.640003204345703
F90.200584411621094
F0.004255758598446846
I2
I-1
tp432
a((F156.96000671386719
F207.36001586914062
tF44.640003204345703
F329.47637939453125
F0.0047675534151494503
I2
I-1
tp433
a((F138.24000549316406
F207.36001586914062
tF44.640003204345703
F183.17189025878906
F0.0027997265569865704
I2
I-1
tp434
a((F118.08000183105469
F207.36001586914062
tF44.640003204345703
F21.959579467773438
F0.003431383753195405
I2
I-1
tp435
a((F102.24000549316406
F207.36001586914062
tF44.640003204345703
F51.620353698730469
F0.0048678144812583923
I2
I-1
tp436
a((F90.720001220703125
F207.36001586914062
tF44.640003204345703
F91.015266418457031
F0.0095708062872290611
I2
I-1
tp437
a((F79.200004577636719
F207.36001586914062
tF44.640003204345703
F83.262130737304688
F0.0082873748615384102
I2
I-1
tp438
a((F64.800003051757812
F207.36001586914062
tF44.640003204345703
F99.268341064453125
F0.0084158815443515778
I2
I-1
tp439
a((F155.52000427246094
F203.04000854492188
tF44.640003204345703
F277.20404052734375
F0.00099818978924304247
I2
I-1
tp440
a((F162.72000122070312
F80.639999389648438
tF44.640003204345703
F356.621826171875
F0.0008900152170099318
I2
I-1
tp441
a((F100.80000305175781
F203.04000854492188
tF44.640003204345703
F51.822071075439453
F0.0029289801605045795
I2
I-1
tp442
a((F184.32000732421875
F145.44000244140625
tF44.640003204345703
F269.75927734375
F0.0019852600526064634
I2
I-1
tp443
a((F116.64000701904297
F145.44000244140625
tF44.640003204345703
F324.85101318359375
F0.0011363450903445482
I2
I-1
tp444
a((F82.080001831054688
F102.24000549316406
tF44.640003204345703
F26.446876525878906
F0.00080393970711156726
I2
I-1
tp445
a((F84.960006713867188
F97.920005798339844
tF44.640003204345703
F29.523683547973633
F0.00184034020639956
I2
I-1
tp446
a((F159.84001159667969
F83.520004272460938
tF44.640003204345703
F231.89460754394531
F0.0007110338774509728
I2
I-1
tp447
a((F133.91999816894531
F84.960006713867188
tF44.640003204345703
F142.30349731445312
F0.0001710436335997656
I2
I-1
tp448
a((F175.68000793457031
F83.520004272460938
tF44.640003204345703
F31.023769378662109
F0.000241486108279787
I2
I-1
tp449
a((F164.16000366210938
F84.960006713867188
tF44.640003204345703
F12.769749641418457
F0.0002940822159871459
I2
I-1
tp450
a((F109.44000244140625
F59.040000915527344
tF44.640003204345703
F59.194149017333984
F0.00017294028657488525
I2
I-1
tp451
a((F182.8800048828125
F59.040000915527344
tF44.640003204345703
F109.85345458984375
F0.00032738424488343298
I2
I-1
tp452
a((F102.24000549316406
F249.12001037597656
tF44.640003204345703
F273.23178100585938
F0.00035199426929466426
I2
I-1
tp453
a((F66.240005493164062
F249.12001037597656
tF44.640003204345703
F253.44844055175781
F0.00025687168817967176
I2
I-1
tp454
a((F164.16000366210938
F63.360000610351562
tF44.640003204345703
F111.29261779785156
F0.0002435464266454801
I2
I-1
tp455
a((F192.96000671386719
F64.800003051757812
tF44.640003204345703
F119.07556915283203
F0.00048378086648881435
I2
I-1
tp456
a((F195.84001159667969
F64.800003051757812
tF44.640003204345703
F123.35698699951172
F0.00028071334236301482
I2
I-1
tp457
a((F132.48001098632812
F67.680000305175781
tF44.640003204345703
F64.260490417480469
F0.00060913496417924762
I2
I-1
tp458
a((F174.24000549316406
F67.680000305175781
tF44.640003204345703
F99.74713134765625
F0.00029225944308564067
I2
I-1
tp459
a((F161.27999877929688
F69.120002746582031
tF44.640003204345703
F124.89286041259766
F0.00033812675974331796
I2
I-1
tp460
a((F211.68000793457031
F93.600006103515625
tF44.640003204345703
F143.51690673828125
F0.00037867747596465051
I2
I-1
tp461
a((F122.40000152587891
F72
tF44.640003204345703
F75.559600830078125
F0.00031012881663627923
I2
I-1
tp462
a((F164.16000366210938
F72
tF44.640003204345703
F91.362594604492188
F0.00025338362320326269
I2
I-1
tp463
a((F123.84000396728516
F83.520004272460938
tF44.640003204345703
F58.351806640625
F0.00038388959364965558
I2
I-1
tp464
a((F167.04000854492188
F72
tF44.640003204345703
F88.540245056152344
F0.00019548191630747169
I2
I-1
tp465
a((F172.80000305175781
F72
tF44.640003204345703
F83.215774536132812
F0.00064564275089651346
I2
I-1
tp466
a((F131.04000854492188
F76.319999694824219
tF44.640003204345703
F60.213592529296875
F0.00021451526845339686
I2
I-1
tp467
a((F151.20001220703125
F99.360000610351562
tF44.640003204345703
F191.17034912109375
F0.00019996691844426095
I2
I-1
tp468
a((F151.20001220703125
F76.319999694824219
tF44.640003204345703
F203.57136535644531
F0.00033925505704246461
I2
I-1
tp469
a((F156.96000671386719
F76.319999694824219
tF44.640003204345703
F198.0035400390625
F0.00039407372241839767
I2
I-1
tp470
a((F148.32000732421875
F100.80000305175781
tF44.640003204345703
F191.1051025390625
F0.00018496370466891676
I2
I-1
tp471
a((F148.32000732421875
F77.760002136230469
tF44.640003204345703
F211.26786804199219
F0.00020767249225173146
I2
I-1
tp472
a((F172.80000305175781
F77.760002136230469
tF44.640003204345703
F42.654506683349609
F0.00043288088636472821
I2
I-1
tp473
a((F135.36000061035156
F79.200004577636719
tF44.640003204345703
F183.42939758300781
F0.00027314858743920922
I2
I-1
tp474
a((F128.16000366210938
F80.639999389648438
tF44.640003204345703
F41.242252349853516
F0.00030805388814769685
I2
I-1
tp475
a((F135.36000061035156
F203.04000854492188
tF44.640003204345703
F196.34474182128906
F0.00047913717571645975
I2
I-1
tp476
a((F149.760009765625
F105.12000274658203
tF44.640003204345703
F188.51765441894531
F0.00020774750737473369
I2
I-1
tp477
a((F169.92001342773438
F80.639999389648438
tF44.640003204345703
F26.280635833740234
F0.00033785446430556476
I2
I-1
tp478
a((F168.48001098632812
F175.68000793457031
tF44.640003204345703
F180.29159545898438
F0.00034026475623250008
I2
I-1
tp479
a((F119.52000427246094
F164.16000366210938
tF44.640003204345703
F8.128758430480957
F0.00043627741979435086
I2
I-1
tp480
a((F158.40000915527344
F158.40000915527344
tF44.640003204345703
F165.27291870117188
F0.0002610660158097744
I2
I-1
tp481
a((F154.08000183105469
F158.40000915527344
tF44.640003204345703
F146.15086364746094
F0.00042918618419207633
I2
I-1
tp482
a((F151.20001220703125
F158.40000915527344
tF44.640003204345703
F126.63371276855469
F0.0003101436304859817
I2
I-1
tp483
a((F141.12001037597656
F158.40000915527344
tF44.640003204345703
F103.60026550292969
F0.00026286911452189088
I2
I-1
tp484
a((F158.40000915527344
F155.52000427246094
tF44.640003204345703
F165.1219482421875
F0.00026582111604511738
I2
I-1
tp485
a((F100.80000305175781
F152.63999938964844
tF44.640003204345703
F264.01663208007812
F0.00032567849848419428
I2
I-1
tp486
a((F89.280006408691406
F151.20001220703125
tF44.640003204345703
F278.36386108398438
F0.00039304469828493893
I2
I-1
tp487
a((F116.64000701904297
F149.760009765625
tF44.640003204345703
F333.2271728515625
F0.00034194975160062313
I2
I-1
tp488
a((F187.20001220703125
F148.32000732421875
tF44.640003204345703
F274.03475952148438
F0.00057646422646939754
I2
I-1
tp489
a((F112.32000732421875
F148.32000732421875
tF44.640003204345703
F305.31527709960938
F0.0003656395711004734
I2
I-1
tp490
a((F99.360000610351562
F148.32000732421875
tF44.640003204345703
F255.9102783203125
F0.00023361858620774001
I2
I-1
tp491
a((F119.52000427246094
F82.080001831054688
tF44.640003204345703
F142.74986267089844
F0.00023247166245710105
I2
I-1
tp492
a((F180
F142.56001281738281
tF44.640003204345703
F261.56744384765625
F0.00040959252510219812
I2
I-1
tp493
a((F74.8800048828125
F133.91999816894531
tF44.640003204345703
F339.01116943359375
F0.00035162238054908812
I2
I-1
tp494
a((F167.04000854492188
F115.20000457763672
tF44.640003204345703
F7.6519355773925781
F6.9788657128810883e-05
I2
I-1
tp495
a((F164.16000366210938
F115.20000457763672
tF44.640003204345703
F18.505542755126953
F9.2750291514676064e-05
I2
I-1
tp496
a((F126.72000122070312
F118.08000183105469
tF44.640003204345703
F357.24105834960938
F0.00010658141400199383
I2
I-1
tp497
a((F152.63999938964844
F118.08000183105469
tF44.640003204345703
F138.21965026855469
F7.02721081324853e-05
I2
I-1
tp498
a((F129.60000610351562
F86.400001525878906
tF44.640003204345703
F80.302291870117188
F8.2523976743686944e-05
I2
I-1
tp499
a((F185.760009765625
F118.08000183105469
tF44.640003204345703
F327.67398071289062
F0.00013357367424760014
I2
I-1
tp500
a((F177.12001037597656
F86.400001525878906
tF44.640003204345703
F21.778396606445312
F8.4495201008394361e-05
I2
I-1
tp501
a((F187.20001220703125
F60.480003356933594
tF44.640003204345703
F111.99217224121094
F0.0001313713873969391
I2
I-1
tp502
a((F112.32000732421875
F61.920001983642578
tF44.640003204345703
F61.313125610351562
F0.00016375216364394873
I2
I-1
tp503
a((F108.00000762939453
F66.240005493164062
tF44.640003204345703
F54.896499633789062
F0.00014928809832781553
I2
I-1
tp504
a((F185.760009765625
F66.240005493164062
tF44.640003204345703
F107.76903533935547
F0.00014505245781037956
I2
I-1
tp505
a((F126.72000122070312
F69.120002746582031
tF44.640003204345703
F65.197616577148438
F0.00011458449444035068
I2
I-1
tp506
a((F118.08000183105469
F70.560005187988281
tF44.640003204345703
F70.270118713378906
F0.00014269161329139024
I2
I-1
tp507
a((F56.160003662109375
F214.56001281738281
tF44.640003204345703
F81.005638122558594
F0.00012306141434237361
I2
I-1
tp508
a((F192.96000671386719
F72
tF44.640003204345703
F121.39030456542969
F0.00013599719386547804
I2
I-1
tp509
a((F116.64000701904297
F73.44000244140625
tF44.640003204345703
F73.14190673828125
F0.0001141663160524331
I2
I-1
tp510
a((F126.72000122070312
F74.8800048828125
tF44.640003204345703
F55.159934997558594
F0.00011536433157743886
I2
I-1
tp511
a((F145.44000244140625
F99.360000610351562
tF44.640003204345703
F182.29966735839844
F7.5919815571978688e-05
I2
I-1
tp512
a((F155.52000427246094
F99.360000610351562
tF44.640003204345703
F191.89578247070312
F0.00012415039236657321
I2
I-1
tp513
a((F155.52000427246094
F82.080001831054688
tF44.640003204345703
F198.31500244140625
F0.00012980106112081558
I2
I-1
tp514
a((F218.8800048828125
F125.28000640869141
tF44.640003204345703
F201.10972595214844
F0.00014301044575404376
I2
I-1
tp515
a((F138.24000549316406
F79.200004577636719
tF44.640003204345703
F193.04917907714844
F0.00017097193631343544
I2
I-1
tp516
a((F188.6400146484375
F79.200004577636719
tF44.640003204345703
F106.57954406738281
F0.00011722729686880484
I2
I-1
tp517
a((F138.24000549316406
F103.68000793457031
tF44.640003204345703
F185.9405517578125
F9.9172386399004608e-05
I2
I-1
tp518
a((F156.96000671386719
F105.12000274658203
tF44.640003204345703
F201.8865966796875
F9.3752751126885414e-05
I2
I-1
tp519
a((F172.80000305175781
F198.72000122070312
tF44.640003204345703
F132.54931640625
F0.00010915124585153535
I2
I-1
tp520
a((F172.80000305175781
F195.84001159667969
tF44.640003204345703
F147.13775634765625
F0.00013255866360850632
I2
I-1
tp521
a((F108.00000762939453
F194.40000915527344
tF44.640003204345703
F19.470588684082031
F9.896846313495189e-05
I2
I-1
tp522
a((F221.760009765625
F105.12000274658203
tF44.640003204345703
F147.88873291015625
F0.0001444910594727844
I2
I-1
tp523
a((F119.52000427246094
F167.04000854492188
tF44.640003204345703
F10.475754737854004
F0.00012467781198211014
I2
I-1
tp524
a((F181.44000244140625
F136.80000305175781
tF44.640003204345703
F277.30654907226562
F7.7480835898313671e-05
I2
I-1
tp525
a((F77.760002136230469
F138.24000549316406
tF44.640003204345703
F329.81448364257812
F0.00011857200297527015
I2
I-1
tp526
a((F146.8800048828125
F161.27999877929688
tF44.640003204345703
F99.637260437011719
F0.00012524666090030223
I2
I-1
tp527
a((F169.92001342773438
F158.40000915527344
tF44.640003204345703
F190.77615356445312
F7.7077216701582074e-05
I2
I-1
tp528
a((F115.20000457763672
F138.24000549316406
tF44.640003204345703
F319.2821044921875
F0.00011880556121468544
I2
I-1
tp529
a((F146.8800048828125
F106.56000518798828
tF44.640003204345703
F186.72200012207031
F0.0001470629358664155
I2
I-1
tp530
a((F126.72000122070312
F154.08000183105469
tF44.640003204345703
F3.0300211906433105
F8.0529847764410079e-05
I2
I-1
tp531
a((F105.12000274658203
F142.56001281738281
tF44.640003204345703
F249.12594604492188
F9.2678325017914176e-05
I2
I-1
tp532
a((F152.63999938964844
F113.76000213623047
tF44.640003204345703
F150.64308166503906
F8.4365841757971793e-05
I2
I-1
tp533
a((F84.960006713867188
F146.8800048828125
tF44.640003204345703
F297.83758544921875
F0.00010739303979789838
I2
I-1
tp534
a((F82.080001831054688
F144
tF44.640003204345703
F312.41064453125
F8.4556224464904517e-05
I2
I-1
tp535
a((F99.360000610351562
F125.28000640869141
tF44.640003204345703
F193.65257263183594
F6.4194849983323365e-05
I2
I-1
tp536
a((F208.80000305175781
F172.80000305175781
tF44.640003204345703
F299.3450927734375
F6.6492633777670562e-05
I2
I-1
tp537
a((F118.08000183105469
F191.52000427246094
tF44.640003204345703
F356.53445434570312
F6.5532440203242004e-05
I2
I-1
tp538
a((F158.40000915527344
F118.08000183105469
tF44.640003204345703
F79.164833068847656
F6.9494271883741021e-05
I2
I-1
tp539
a((F138.24000549316406
F73.44000244140625
tF44.640003204345703
F181.09825134277344
F6.5166175772901624e-05
I2
I-1
tp540
a((F103.68000793457031
F138.24000549316406
tF44.640003204345703
F228.43055725097656
F6.8373759859241545e-05
I2
I-1
tp541
a((F129.60000610351562
F120.96000671386719
tF44.640003204345703
F6.9320588111877441
F6.9684218033216894e-05
I2
I-1
tp542
a((F208.80000305175781
F89.280006408691406
tF44.640003204345703
F144.36833190917969
F6.9079760578460991e-05
I2
I-1
tp543
a((F126.72000122070312
F112.32000732421875
tF44.640003204345703
F349.653076171875
F6.1971928516868502e-05
I2
I-1
tp544
a((F122.40000152587891
F156.96000671386719
tF44.640003204345703
F2.8093173503875732
F6.2200568208936602e-05
I2
I-1
tp545
a((F161.27999877929688
F120.96000671386719
tF44.640003204345703
F53.449455261230469
F6.2513972807209939e-05
I2
I-1
tp546
a((F135.36000061035156
F194.40000915527344
tF44.640003204345703
F248.94219970703125
F5.2104638598393649e-05
I2
I-1
tp547
a((F156.96000671386719
F197.28001403808594
tF44.640003204345703
F246.90208435058594
F5.7408622524235398e-05
I2
I-1
tp548
a((F161.27999877929688
F177.12001037597656
tF44.640003204345703
F185.12779235839844
F5.3271687647793442e-05
I2
I-1
tp549
a((F159.84001159667969
F123.84000396728516
tF44.640003204345703
F79.749893188476562
F5.1553088269429281e-05
I2
I-1
tp550
a((F183.16801452636719
F58.752006530761719
tF53.568004608154297
F111.74069213867188
F0.00034531095298007131
I3
I-1
tp551
a((F176.25601196289062
F57.024005889892578
tF53.568004608154297
F108.87728881835938
F0.00079592893598601222
I3
I-1
tp552
a((F88.128005981445312
F245.37602233886719
tF53.568004608154297
F257.5159912109375
F0.006986845750361681
I3
I-1
tp553
a((F172.80001831054688
F241.92002868652344
tF53.568004608154297
F274.61087036132812
F0.004310940857976675
I3
I-1
tp554
a((F221.18402099609375
F238.46401977539062
tF53.568004608154297
F197.62870788574219
F0.0071185692213475704
I3
I-1
tp555
a((F229.82402038574219
F236.73602294921875
tF53.568004608154297
F181.59925842285156
F0.006396555807441473
I3
I-1
tp556
a((F127.87200927734375
F235.00802612304688
tF53.568004608154297
F260.747802734375
F0.0092006269842386246
I3
I-1
tp557
a((F229.82402038574219
F228.09602355957031
tF53.568004608154297
F178.71133422851562
F0.0070353993214666843
I3
I-1
tp558
a((F191.80801391601562
F63.936004638671875
tF53.568004608154297
F116.31430816650391
F0.00044764467747882009
I3
I-1
tp559
a((F184.89601135253906
F226.36802673339844
tF53.568004608154297
F159.03140258789062
F0.0043260115198791027
I3
I-1
tp560
a((F221.18402099609375
F224.6400146484375
tF53.568004608154297
F153.39828491210938
F0.0077886343933641911
I3
I-1
tp561
a((F133.05601501464844
F67.392005920410156
tF53.568004608154297
F78.74298095703125
F0.00051475508371368051
I3
I-1
tp562
a((F127.87200927734375
F221.18402099609375
tF53.568004608154297
F94.165687561035156
F0.0006287028081715107
I3
I-1
tp563
a((F172.80001831054688
F219.45602416992188
tF53.568004608154297
F102.99842834472656
F0.0023715335410088301
I3
I-1
tp564
a((F162.43202209472656
F69.120010375976562
tF53.568004608154297
F110.90313720703125
F0.00035978594678454101
I3
I-1
tp565
a((F221.18402099609375
F217.72802734375
tF53.568004608154297
F110.87075805664062
F0.0061001474969089031
I3
I-1
tp566
a((F172.80001831054688
F70.848007202148438
tF53.568004608154297
F94.692665100097656
F0.00061031145742163062
I3
I-1
tp567
a((F57.024005889892578
F216.00001525878906
tF53.568004608154297
F83.059783935546875
F0.00034949541441164911
I3
I-1
tp568
a((F167.61601257324219
F72.576004028320312
tF53.568004608154297
F101.58860015869141
F0.00034709213650785387
I3
I-1
tp569
a((F235.00802612304688
F214.27201843261719
tF53.568004608154297
F93.114349365234375
F0.0093686943873763084
I3
I-1
tp570
a((F177.98402404785156
F212.54402160644531
tF53.568004608154297
F133.46200561523438
F0.0014967528404667974
I3
I-1
tp571
a((F141.69601440429688
F212.54402160644531
tF53.568004608154297
F176.98062133789062
F0.00049849797505885363
I3
I-1
tp572
a((F53.568004608154297
F210.81602478027344
tF53.568004608154297
F83.866767883300781
F0.0011855973862111568
I3
I-1
tp573
a((F158.97601318359375
F76.032005310058594
tF53.568004608154297
F115.22185516357422
F0.00059541576774790883
I3
I-1
tp574
a((F157.24801635742188
F209.0880126953125
tF53.568004608154297
F76.21893310546875
F0.0037901587784290314
I3
I-1
tp575
a((F138.24002075195312
F209.0880126953125
tF53.568004608154297
F192.10147094726562
F0.0027161086909472942
I3
I-1
tp576
a((F245.37602233886719
F207.36001586914062
tF53.568004608154297
F74.622306823730469
F0.0058607757091522217
I3
I-1
tp577
a((F174.52801513671875
F77.760009765625
tF53.568004608154297
F58.961822509765625
F0.00044835562584921718
I3
I-1
tp578
a((F235.00802612304688
F207.36001586914062
tF53.568004608154297
F89.271736145019531
F0.0067572928965091705
I3
I-1
tp579
a((F205.63201904296875
F207.36001586914062
tF53.568004608154297
F77.280616760253906
F0.0061939936131238937
I3
I-1
tp580
a((F195.26402282714844
F207.36001586914062
tF53.568004608154297
F85.406898498535156
F0.0048224106431007385
I3
I-1
tp581
a((F181.44001770019531
F207.36001586914062
tF53.568004608154297
F136.70556640625
F0.0050258594565093517
I3
I-1
tp582
a((F164.16001892089844
F81.216011047363281
tF53.568004608154297
F1.5851366519927979
F0.00044005425297655165
I3
I-1
tp583
a((F169.34400939941406
F207.36001586914062
tF53.568004608154297
F101.60295867919922
F0.0031693933997303247
I3
I-1
tp584
a((F117.50401306152344
F207.36001586914062
tF53.568004608154297
F30.935861587524414
F0.0020775038283318281
I3
I-1
tp585
a((F101.95201110839844
F207.36001586914062
tF53.568004608154297
F45.838741302490234
F0.0041137035004794598
I3
I-1
tp586
a((F91.584007263183594
F207.36001586914062
tF53.568004608154297
F94.149894714355469
F0.0069684232585132122
I3
I-1
tp587
a((F79.488006591796875
F207.36001586914062
tF53.568004608154297
F78.90631103515625
F0.0058225910179316998
I3
I-1
tp588
a((F65.664009094238281
F207.36001586914062
tF53.568004608154297
F106.80278015136719
F0.00590143958106637
I3
I-1
tp589
a((F160.70401000976562
F84.672004699707031
tF53.568004608154297
F303.28619384765625
F0.00039264140650629997
I3
I-1
tp590
a((F100.22400665283203
F203.90402221679688
tF53.568004608154297
F48.368984222412109
F0.0031374203972518444
I3
I-1
tp591
a((F119.23200988769531
F164.16001892089844
tF53.568004608154297
F5.8147735595703125
F0.00038795702857896686
I3
I-1
tp592
a((F100.22400665283203
F152.06401062011719
tF53.568004608154297
F274.52560424804688
F0.00045960093848407269
I3
I-1
tp593
a((F91.584007263183594
F152.06401062011719
tF53.568004608154297
F269.0850830078125
F0.00038911207229830325
I3
I-1
tp594
a((F98.496009826660156
F148.60801696777344
tF53.568004608154297
F267.69671630859375
F0.00041011604480445385
I3
I-1
tp595
a((F210.81602478027344
F89.856010437011719
tF53.568004608154297
F140.62677001953125
F0.00054764386732131243
I3
I-1
tp596
a((F184.89601135253906
F145.15200805664062
tF53.568004608154297
F267.41726684570312
F0.0016734874807298183
I3
I-1
tp597
a((F117.50401306152344
F145.15200805664062
tF53.568004608154297
F323.49691772460938
F0.00087249965872615576
I3
I-1
tp598
a((F212.54402160644531
F93.31201171875
tF53.568004608154297
F142.09620666503906
F0.00061612820718437433
I3
I-1
tp599
a((F76.032005310058594
F134.78401184082031
tF53.568004608154297
F337.08740234375
F0.00055840046843513846
I3
I-1
tp600
a((F84.672004699707031
F98.496009826660156
tF53.568004608154297
F33.379436492919922
F0.0012596432352438569
I3
I-1
tp601
a((F81.216011047363281
F101.95201110839844
tF53.568004608154297
F28.307579040527344
F0.00078695651609450579
I3
I-1
tp602
a((F141.69601440429688
F100.22400665283203
tF53.568004608154297
F173.73823547363281
F8.2883227150887251e-05
I3
I-1
tp603
a((F108.864013671875
F60.480007171630859
tF53.568004608154297
F59.000148773193359
F0.0002851207391358912
I3
I-1
tp604
a((F152.06401062011719
F100.22400665283203
tF53.568004608154297
F172.05567932128906
F0.00013072810543235391
I3
I-1
tp605
a((F157.24801635742188
F100.22400665283203
tF53.568004608154297
F122.71728515625
F9.2068352387286723e-05
I3
I-1
tp606
a((F221.18402099609375
F98.496009826660156
tF53.568004608154297
F142.46072387695312
F0.00015417180838994682
I3
I-1
tp607
a((F114.04801177978516
F60.480007171630859
tF53.568004608154297
F63.39044189453125
F0.00019396933203097433
I3
I-1
tp608
a((F174.52801513671875
F62.2080078125
tF53.568004608154297
F107.22164916992188
F9.1286397946532816e-05
I3
I-1
tp609
a((F164.16001892089844
F63.936004638671875
tF53.568004608154297
F110.44645690917969
F0.00027144694468006492
I3
I-1
tp610
a((F108.864013671875
F65.664009094238281
tF53.568004608154297
F57.706031799316406
F0.00019983210950158536
I3
I-1
tp611
a((F148.60801696777344
F105.40801239013672
tF53.568004608154297
F173.7684326171875
F0.00023649576178286225
I3
I-1
tp612
a((F157.24801635742188
F105.40801239013672
tF53.568004608154297
F86.568290710449219
F0.00013170622696634382
I3
I-1
tp613
a((F221.18402099609375
F105.40801239013672
tF53.568004608154297
F150.13429260253906
F0.00030429710750468075
I3
I-1
tp614
a((F122.68801116943359
F65.664009094238281
tF53.568004608154297
F67.405067443847656
F0.00016970594879239798
I3
I-1
tp615
a((F174.52801513671875
F67.392005920410156
tF53.568004608154297
F101.55955505371094
F0.00029222783632576466
I3
I-1
tp616
a((F186.6240234375
F67.392005920410156
tF53.568004608154297
F109.15217590332031
F0.00026153266662731767
I3
I-1
tp617
a((F119.23200988769531
F70.848007202148438
tF53.568004608154297
F63.449256896972656
F0.00015884415188338608
I3
I-1
tp618
a((F164.16001892089844
F72.576004028320312
tF53.568004608154297
F111.37865447998047
F0.00029612978687509894
I3
I-1
tp619
a((F193.5360107421875
F72.576004028320312
tF53.568004608154297
F122.44243621826172
F0.00026376641471870244
I3
I-1
tp620
a((F127.87200927734375
F74.304008483886719
tF53.568004608154297
F79.734054565429688
F0.00015179930778685957
I3
I-1
tp621
a((F152.06401062011719
F114.04801177978516
tF53.568004608154297
F146.41615295410156
F0.00010419779573567212
I3
I-1
tp622
a((F74.304008483886719
F115.77600860595703
tF53.568004608154297
F13.351840972900391
F0.00012361296103335917
I3
I-1
tp623
a((F138.24002075195312
F74.304008483886719
tF53.568004608154297
F117.53237915039062
F9.2808266344945878e-05
I3
I-1
tp624
a((F119.23200988769531
F77.760009765625
tF53.568004608154297
F64.117706298828125
F0.00012185639207018539
I3
I-1
tp625
a((F148.60801696777344
F77.760009765625
tF53.568004608154297
F171.69532775878906
F0.00022771085787098855
I3
I-1
tp626
a((F129.60000610351562
F79.488006591796875
tF53.568004608154297
F107.98422241210938
F0.00016445321671199054
I3
I-1
tp627
a((F164.16001892089844
F115.77600860595703
tF53.568004608154297
F10.12952995300293
F8.5461229900829494e-05
I3
I-1
tp628
a((F134.78401184082031
F79.488006591796875
tF53.568004608154297
F143.21707153320312
F0.00020902356482110918
I3
I-1
tp629
a((F186.6240234375
F117.50401306152344
tF53.568004608154297
F331.0863037109375
F0.0001087462660507299
I3
I-1
tp630
a((F167.61601257324219
F79.488006591796875
tF53.568004608154297
F49.908962249755859
F0.00032394551089964807
I3
I-1
tp631
a((F119.23200988769531
F82.944007873535156
tF53.568004608154297
F84.753974914550781
F0.00010297560220351443
I3
I-1
tp632
a((F155.52001953125
F82.944007873535156
tF53.568004608154297
F233.92462158203125
F9.3455957539845258e-05
I3
I-1
tp633
a((F176.25601196289062
F82.944007873535156
tF53.568004608154297
F29.040988922119141
F0.00012109057570341974
I3
I-1
tp634
a((F124.416015625
F84.672004699707031
tF53.568004608154297
F160.86885070800781
F0.00018883969460148364
I3
I-1
tp635
a((F134.78401184082031
F84.672004699707031
tF53.568004608154297
F183.67184448242188
F8.4726423665415496e-05
I3
I-1
tp636
a((F172.80001831054688
F195.26402282714844
tF53.568004608154297
F146.09718322753906
F0.00021203953656367958
I3
I-1
tp637
a((F117.50401306152344
F193.5360107421875
tF53.568004608154297
F9.4479284286499023
F8.828450518194586e-05
I3
I-1
tp638
a((F108.864013671875
F193.5360107421875
tF53.568004608154297
F22.445096969604492
F0.00010329551150789484
I3
I-1
tp639
a((F162.43202209472656
F179.71202087402344
tF53.568004608154297
F190.71878051757812
F8.330594573635608e-05
I3
I-1
tp640
a((F169.34400939941406
F176.25601196289062
tF53.568004608154297
F184.14141845703125
F0.0001860727061284706
I3
I-1
tp641
a((F152.06401062011719
F162.43202209472656
tF53.568004608154297
F158.33372497558594
F0.00012140731996623799
I3
I-1
tp642
a((F221.18402099609375
F127.87200927734375
tF53.568004608154297
F203.50875854492188
F0.00013301199942361563
I3
I-1
tp643
a((F169.34400939941406
F158.97601318359375
tF53.568004608154297
F189.74696350097656
F0.00031310401391237974
I3
I-1
tp644
a((F155.52001953125
F158.97601318359375
tF53.568004608154297
F168.35652160644531
F0.00025471922708675265
I3
I-1
tp645
a((F139.968017578125
F158.97601318359375
tF53.568004608154297
F49.258415222167969
F0.00014708926028106362
I3
I-1
tp646
a((F122.68801116943359
F157.24801635742188
tF53.568004608154297
F358.3533935546875
F0.00011438845831435174
I3
I-1
tp647
a((F158.97601318359375
F155.52001953125
tF53.568004608154297
F177.7587890625
F0.0001905297685880214
I3
I-1
tp648
a((F190.08001708984375
F153.79200744628906
tF53.568004608154297
F268.21148681640625
F0.00012231674918439239
I3
I-1
tp649
a((F115.77600860595703
F138.24002075195312
tF53.568004608154297
F306.68963623046875
F0.00016620138194411993
I3
I-1
tp650
a((F172.80001831054688
F153.79200744628906
tF53.568004608154297
F209.24775695800781
F0.00030098142451606691
I3
I-1
tp651
a((F126.14401245117188
F153.79200744628906
tF53.568004608154297
F356.84765625
F8.5097402916289866e-05
I3
I-1
tp652
a((F103.68000793457031
F143.42401123046875
tF53.568004608154297
F267.66949462890625
F0.0001061045695678331
I3
I-1
tp653
a((F190.08001708984375
F150.33601379394531
tF53.568004608154297
F270.4842529296875
F0.00026271227397955954
I3
I-1
tp654
a((F88.128005981445312
F150.33601379394531
tF53.568004608154297
F277.58770751953125
F0.0002434078196529299
I3
I-1
tp655
a((F179.71202087402344
F145.15200805664062
tF53.568004608154297
F253.078857421875
F0.00034056633012369275
I3
I-1
tp656
a((F146.88002014160156
F115.77600860595703
tF53.568004608154297
F149.70806884765625
F5.373034582589753e-05
I3
I-1
tp657
a((F129.60000610351562
F86.400009155273438
tF53.568004608154297
F159.25486755371094
F7.6188742241356522e-05
I3
I-1
tp658
a((F122.68801116943359
F167.61601257324219
tF53.568004608154297
F12.577753067016602
F7.5705080234911293e-05
I3
I-1
tp659
a((F157.24801635742188
F198.72001647949219
tF53.568004608154297
F218.16096496582031
F8.0597310443408787e-05
I3
I-1
tp660
a((F158.97601318359375
F119.23200988769531
tF53.568004608154297
F107.69249725341797
F7.9784462286625057e-05
I3
I-1
tp661
a((F100.22400665283203
F122.68801116943359
tF53.568004608154297
F200.43684387207031
F7.1118876803666353e-05
I3
I-1
tp662
a((F210.81602478027344
F143.42401123046875
tF53.568004608154297
F245.39747619628906
F7.7768650953657925e-05
I3
I-1
tp663
a((F126.14401245117188
F193.5360107421875
tF53.568004608154297
F352.70883178710938
F5.9337977290851995e-05
I3
I-1
tp664
a((F209.0880126953125
F172.80001831054688
tF53.568004608154297
F293.913330078125
F6.9316185545176268e-05
I3
I-1
tp665
a((F103.68000793457031
F60.480007171630859
tF53.568004608154297
F54.309955596923828
F6.8441062467172742e-05
I3
I-1
tp666
a((F138.24002075195312
F105.40801239013672
tF53.568004608154297
F173.28765869140625
F6.0781701904488727e-05
I3
I-1
tp667
a((F134.78401184082031
F195.26402282714844
tF53.568004608154297
F243.59297180175781
F8.1946564023382962e-05
I3
I-1
tp668
a((F188.35202026367188
F77.760009765625
tF53.568004608154297
F111.47815704345703
F7.9214049037545919e-05
I3
I-1
tp669
a((F117.50401306152344
F160.70401000976562
tF53.568004608154297
F357.34103393554688
F7.0739173679612577e-05
I3
I-1
tp670
a((F103.68000793457031
F138.24002075195312
tF53.568004608154297
F255.78125
F6.1799190007150173e-05
I3
I-1
tp671
a((F167.61601257324219
F115.77600860595703
tF53.568004608154297
F347.54473876953125
F5.9258098190184683e-05
I3
I-1
tp672
a((F134.78401184082031
F158.97601318359375
tF53.568004608154297
F21.626628875732422
F7.533185271313414e-05
I3
I-1
tp673
a((F160.70401000976562
F188.35202026367188
tF53.568004608154297
F198.35163879394531
F4.928864655084908e-05
I3
I-1
tp674
a((F209.0880126953125
F133.05601501464844
tF53.568004608154297
F236.02090454101562
F5.1842413085978478e-05
I3
I-1
tp675
a((F84.672004699707031
F148.60801696777344
tF53.568004608154297
F291.30718994140625
F4.9184392992174253e-05
I3
I-1
tp676
a((F192.84483337402344
F64.281608581542969
tF64.281608581542969
F122.26214599609375
F0.00071642827242612839
I4
I-1
tp677
a((F126.48961639404297
F234.31683349609375
tF64.281608581542969
F218.2777099609375
F0.0062033426947891712
I4
I-1
tp678
a((F184.55043029785156
F226.02243041992188
tF64.281608581542969
F126.83975219726562
F0.0041087050922214985
I4
I-1
tp679
a((F221.87522888183594
F223.94883728027344
tF64.281608581542969
F69.138359069824219
F0.0095648374408483505
I4
I-1
tp680
a((F172.10882568359375
F219.8016357421875
tF64.281608581542969
F112.66229248046875
F0.0017770901322364807
I4
I-1
tp681
a((F192.84483337402344
F68.428810119628906
tF64.281608581542969
F120.93163299560547
F0.0007450134726241231
I4
I-1
tp682
a((F221.87522888183594
F217.72802734375
tF64.281608581542969
F81.026962280273438
F0.0072290445677936077
I4
I-1
tp683
a((F234.31683349609375
F213.58082580566406
tF64.281608581542969
F95.809196472167969
F0.01200074702501297
I4
I-1
tp684
a((F170.03521728515625
F209.43362426757812
tF64.281608581542969
F126.35616302490234
F0.0041361232288181782
I4
I-1
tp685
a((F157.5936279296875
F209.43362426757812
tF64.281608581542969
F116.049072265625
F0.003700813977047801
I4
I-1
tp686
a((F143.07841491699219
F209.43362426757812
tF64.281608581542969
F209.41242980957031
F0.00094792706659063697
I4
I-1
tp687
a((F136.85762023925781
F209.43362426757812
tF64.281608581542969
F258.29345703125
F0.0027346608694642782
I4
I-1
tp688
a((F101.60641479492188
F209.43362426757812
tF64.281608581542969
F49.7342529296875
F0.0053712986409664154
I4
I-1
tp689
a((F234.31683349609375
F207.36003112792969
tF64.281608581542969
F92.786796569824219
F0.007509374525398016
I4
I-1
tp690
a((F192.84483337402344
F207.36003112792969
tF64.281608581542969
F106.60421752929688
F0.0055341226980090141
I4
I-1
tp691
a((F182.47682189941406
F207.36003112792969
tF64.281608581542969
F126.14138031005859
F0.0050336634740233421
I4
I-1
tp692
a((F118.19521331787109
F207.36003112792969
tF64.281608581542969
F34.985286712646484
F0.0021683564409613609
I4
I-1
tp693
a((F91.238410949707031
F207.36003112792969
tF64.281608581542969
F76.820838928222656
F0.0064699309878051281
I4
I-1
tp694
a((F78.79681396484375
F207.36003112792969
tF64.281608581542969
F88.169075012207031
F0.0060769808478653431
I4
I-1
tp695
a((F66.355209350585938
F207.36003112792969
tF64.281608581542969
F101.64221954345703
F0.0060907700099050999
I4
I-1
tp696
a((F134.78401184082031
F203.21282958984375
tF64.281608581542969
F265.52786254882812
F0.0011190054938197136
I4
I-1
tp697
a((F99.532814025878906
F203.21282958984375
tF64.281608581542969
F49.645259857177734
F0.0034757561516016722
I4
I-1
tp698
a((F170.03521728515625
F157.5936279296875
tF64.281608581542969
F198.22697448730469
F0.00086767569882795215
I4
I-1
tp699
a((F118.19521331787109
F147.22561645507812
tF64.281608581542969
F327.65777587890625
F0.00073134765261784196
I4
I-1
tp700
a((F184.55043029785156
F145.15202331542969
tF64.281608581542969
F260.12408447265625
F0.0014953040517866611
I4
I-1
tp701
a((F85.017608642578125
F97.459213256835938
tF64.281608581542969
F35.272731781005859
F0.00092750962357968092
I4
I-1
tp702
a((F213.58082580566406
F93.31201171875
tF64.281608581542969
F140.85597229003906
F0.00078747834777459502
I4
I-1
tp703
a((F122.34241485595703
F64.281608581542969
tF64.281608581542969
F67.113418579101562
F0.00020321088959462941
I4
I-1
tp704
a((F107.82721710205078
F66.355209350585938
tF64.281608581542969
F57.501590728759766
F0.00025455577997490764
I4
I-1
tp705
a((F186.6240234375
F66.355209350585938
tF64.281608581542969
F114.59872436523438
F0.00060961185954511166
I4
I-1
tp706
a((F126.48961639404297
F221.87522888183594
tF64.281608581542969
F136.18914794921875
F0.00052180927013978362
I4
I-1
tp707
a((F161.74082946777344
F68.428810119628906
tF64.281608581542969
F102.78825378417969
F0.0004078008932992816
I4
I-1
tp708
a((F209.43362426757812
F89.164810180664062
tF64.281608581542969
F138.72737121582031
F0.00054254021961241961
I4
I-1
tp709
a((F221.87522888183594
F97.459213256835938
tF64.281608581542969
F143.77510070800781
F0.00022515947057399899
I4
I-1
tp710
a((F172.10882568359375
F70.502410888671875
tF64.281608581542969
F101.561279296875
F0.00066660722950473428
I4
I-1
tp711
a((F163.81442260742188
F72.576011657714844
tF64.281608581542969
F100.65189361572266
F0.00043452874524518847
I4
I-1
tp712
a((F124.416015625
F74.649612426757812
tF64.281608581542969
F70.850418090820312
F0.00022470852127298713
I4
I-1
tp713
a((F159.66722106933594
F74.649612426757812
tF64.281608581542969
F102.07962036132812
F0.0005553755909204483
I4
I-1
tp714
a((F194.91842651367188
F74.649612426757812
tF64.281608581542969
F124.78289031982422
F0.00047599105164408684
I4
I-1
tp715
a((F219.8016357421875
F101.60641479492188
tF64.281608581542969
F148.97543334960938
F0.00054186867782846093
I4
I-1
tp716
a((F165.88803100585938
F80.870414733886719
tF64.281608581542969
F68.33428955078125
F0.00022311802604235709
I4
I-1
tp717
a((F107.82721710205078
F196.99203491210938
tF64.281608581542969
F28.787755966186523
F0.00028824101900681853
I4
I-1
tp718
a((F172.10882568359375
F194.91842651367188
tF64.281608581542969
F152.72911071777344
F0.00032060878584161401
I4
I-1
tp719
a((F116.12161254882812
F194.91842651367188
tF64.281608581542969
F20.704240798950195
F0.00026518927188590169
I4
I-1
tp720
a((F221.87522888183594
F105.75361633300781
tF64.281608581542969
F154.75787353515625
F0.00043664814438670874
I4
I-1
tp721
a((F109.90081787109375
F192.84483337402344
tF64.281608581542969
F24.184597015380859
F0.00028692313935607672
I4
I-1
tp722
a((F118.19521331787109
F163.81442260742188
tF64.281608581542969
F358.72567749023438
F0.00043165625538676977
I4
I-1
tp723
a((F172.10882568359375
F153.44642639160156
tF64.281608581542969
F210.48237609863281
F0.00042158321593888104
I4
I-1
tp724
a((F165.88803100585938
F153.44642639160156
tF64.281608581542969
F196.6910400390625
F0.00039581989403814077
I4
I-1
tp725
a((F124.416015625
F153.44642639160156
tF64.281608581542969
F352.83987426757812
F0.00031484206556342542
I4
I-1
tp726
a((F99.532814025878906
F151.37281799316406
tF64.281608581542969
F289.51742553710938
F0.00060430250596255064
I4
I-1
tp727
a((F91.238410949707031
F151.37281799316406
tF64.281608581542969
F277.2252197265625
F0.00029693671967834234
I4
I-1
tp728
a((F190.77122497558594
F149.29922485351562
tF64.281608581542969
F263.35064697265625
F0.00031928441603668034
I4
I-1
tp729
a((F114.04801940917969
F149.29922485351562
tF64.281608581542969
F322.0040283203125
F0.00067673291778191924
I4
I-1
tp730
a((F161.74082946777344
F85.017608642578125
tF64.281608581542969
F348.69436645507812
F0.00023115043586585671
I4
I-1
tp731
a((F116.12161254882812
F138.93121337890625
tF64.281608581542969
F303.80722045898438
F0.00025811351952143013
I4
I-1
tp732
a((F76.723213195800781
F134.78401184082031
tF64.281608581542969
F332.21139526367188
F0.00047089497093111277
I4
I-1
tp733
a((F147.22561645507812
F114.04801940917969
tF64.281608581542969
F152.38108825683594
F9.2209600552450866e-05
I4
I-1
tp734
a((F134.78401184082031
F194.91842651367188
tF64.281608581542969
F291.169189453125
F0.00010952333832392469
I4
I-1
tp735
a((F157.5936279296875
F105.75361633300781
tF64.281608581542969
F95.078666687011719
F0.00011558510595932603
I4
I-1
tp736
a((F126.48961639404297
F192.84483337402344
tF64.281608581542969
F356.78131103515625
F9.5282754045911133e-05
I4
I-1
tp737
a((F186.6240234375
F118.19521331787109
tF64.281608581542969
F326.83978271484375
F0.00011004368570866063
I4
I-1
tp738
a((F111.97441864013672
F188.6976318359375
tF64.281608581542969
F18.918279647827148
F0.00017922966799233109
I4
I-1
tp739
a((F163.81442260742188
F174.18241882324219
tF64.281608581542969
F184.51655578613281
F9.548919479129836e-05
I4
I-1
tp740
a((F149.29922485351562
F105.75361633300781
tF64.281608581542969
F140.84550476074219
F0.00018948750221170485
I4
I-1
tp741
a((F124.416015625
F85.017608642578125
tF64.281608581542969
F124.16387939453125
F9.4395196356344968e-05
I4
I-1
tp742
a((F120.26881408691406
F82.944015502929688
tF64.281608581542969
F69.905593872070312
F0.00010735930118244141
I4
I-1
tp743
a((F207.36003112792969
F80.870414733886719
tF64.281608581542969
F135.29547119140625
F0.0001323111355304718
I4
I-1
tp744
a((F149.29922485351562
F163.81442260742188
tF64.281608581542969
F165.39202880859375
F0.00010466654930496588
I4
I-1
tp745
a((F219.8016357421875
F126.48961639404297
tF64.281608581542969
F201.83380126953125
F0.00011618774442467839
I4
I-1
tp746
a((F155.52001953125
F159.66722106933594
tF64.281608581542969
F175.51026916503906
F0.00016958446940407157
I4
I-1
tp747
a((F151.37281799316406
F99.532814025878906
tF64.281608581542969
F150.37240600585938
F0.00010519579518586397
I4
I-1
tp748
a((F138.93121337890625
F159.66722106933594
tF64.281608581542969
F27.639642715454102
F0.00015178970352280885
I4
I-1
tp749
a((F159.66722106933594
F155.52001953125
tF64.281608581542969
F183.86367797851562
F0.00012561540643218905
I4
I-1
tp750
a((F151.37281799316406
F114.04801940917969
tF64.281608581542969
F137.19248962402344
F0.00010314409882994369
I4
I-1
tp751
a((F128.56321716308594
F80.870414733886719
tF64.281608581542969
F107.43831634521484
F9.8113880085293204e-05
I4
I-1
tp752
a((F149.29922485351562
F78.79681396484375
tF64.281608581542969
F143.67399597167969
F0.00020127018797211349
I4
I-1
tp753
a((F157.5936279296875
F101.60641479492188
tF64.281608581542969
F64.1995849609375
F0.0001002075950964354
I4
I-1
tp754
a((F188.6976318359375
F76.723213195800781
tF64.281608581542969
F117.26480102539062
F0.00011091923079220578
I4
I-1
tp755
a((F155.52001953125
F85.017608642578125
tF64.281608581542969
F260.24649047851562
F0.00010066003596875817
I4
I-1
tp756
a((F209.43362426757812
F143.07841491699219
tF64.281608581542969
F255.13427734375
F0.0001097806089092046
I4
I-1
tp757
a((F134.78401184082031
F78.79681396484375
tF64.281608581542969
F114.6038818359375
F0.00015531395911239088
I4
I-1
tp758
a((F167.96162414550781
F116.12161254882812
tF64.281608581542969
F337.88082885742188
F6.0442398535087705e-05
I4
I-1
tp759
a((F143.07841491699219
F194.91842651367188
tF64.281608581542969
F244.12399291992188
F6.055976336938329e-05
I4
I-1
tp760
a((F107.82721710205078
F138.93121337890625
tF64.281608581542969
F281.197509765625
F6.4598338212817907e-05
I4
I-1
tp761
a((F130.63682556152344
F85.017608642578125
tF64.281608581542969
F166.94552612304688
F8.9692526671569794e-05
I4
I-1
tp762
a((F209.43362426757812
F170.03521728515625
tF64.281608581542969
F283.73870849609375
F8.6780491983518004e-05
I4
I-1
tp763
a((F99.532814025878906
F122.34241485595703
tF64.281608581542969
F279.71719360351562
F8.3570463175419718e-05
I4
I-1
tp764
a((F74.649612426757812
F114.04801940917969
tF64.281608581542969
F12.589661598205566
F8.3790269854944199e-05
I4
I-1
tp765
a((F176.25602722167969
F82.944015502929688
tF64.281608581542969
F65.3028564453125
F8.0380552390124649e-05
I4
I-1
tp766
a((F138.93121337890625
F103.68001556396484
tF64.281608581542969
F148.40863037109375
F7.2362032369710505e-05
I4
I-1
tp767
a((F143.07841491699219
F99.532814025878906
tF64.281608581542969
F168.76052856445312
F7.6368720328900963e-05
I4
I-1
tp768
a((F149.29922485351562
F155.52001953125
tF64.281608581542969
F163.83583068847656
F9.0298482973594218e-05
I4
I-1
tp769
a((F163.81442260742188
F116.12161254882812
tF64.281608581542969
F319.5374755859375
F7.2227288910653442e-05
I4
I-1
tp770
a((F134.78401184082031
F85.017608642578125
tF64.281608581542969
F171.00274658203125
F6.3735133153386414e-05
I4
I-1
tp771
a((F103.68001556396484
F136.85762023925781
tF64.281608581542969
F274.30657958984375
F4.2547486373223364e-05
I4
I-1
tp772
a((F205.28642272949219
F145.15202331542969
tF64.281608581542969
F263.48419189453125
F4.354925113148056e-05
I4
I-1
tp773
a((F153.44642639160156
F118.19521331787109
tF64.281608581542969
F156.48161315917969
F4.4745513150701299e-05
I4
I-1
tp774
a((F209.43362426757812
F132.71041870117188
tF64.281608581542969
F238.154541015625
F5.1950970373582095e-05
I4
I-1
tp775
a((F130.63682556152344
F111.97441864013672
tF64.281608581542969
F311.74801635742188
F4.9191196012543514e-05
I4
I-1
tp776
a((F159.66722106933594
F176.25602722167969
tF64.281608581542969
F186.18191528320312
F3.9013331843307242e-05
I4
I-1
tp777
a((F207.36003112792969
F163.81442260742188
tF64.281608581542969
F280.54193115234375
F4.0096318116411567e-05
I4
I-1
tp778
a((F126.48961639404297
F118.19521331787109
tF64.281608581542969
F312.2144775390625
F3.1263210985343903e-05
I4
I-1
tp779
a((F221.87522888183594
F109.90081787109375
tF64.281608581542969
F161.2269287109375
F3.4367752959951758e-05
I4
I-1
tp780
a((F176.25602722167969
F130.63682556152344
tF64.281608581542969
F287.380859375
F2.6419435016578063e-05
I4
I-1
tp781
a((F119.43939208984375
F149.29924011230469
tF77.137939453125
F335.03472900390625
F0.00055721856188029051
I5
I-1
tp782
a((F221.46052551269531
F221.46052551269531
tF77.137939453125
F68.925559997558594
F0.0093588121235370636
I5
I-1
tp783
a((F174.18243408203125
F216.48388671875
tF77.137939453125
F123.30149841308594
F0.0023477878421545029
I5
I-1
tp784
a((F199.06564331054688
F213.99557495117188
tF77.137939453125
F104.61015319824219
F0.0066233659163117409
I5
I-1
tp785
a((F151.78755187988281
F211.50724792480469
tF77.137939453125
F141.80503845214844
F0.0011870597954839468
I5
I-1
tp786
a((F144.32260131835938
F211.50724792480469
tF77.137939453125
F116.66874694824219
F0.00069319503381848335
I5
I-1
tp787
a((F109.48610687255859
F211.50724792480469
tF77.137939453125
F43.772457122802734
F0.0012267341371625662
I5
I-1
tp788
a((F206.53060913085938
F209.01893615722656
tF77.137939453125
F98.985176086425781
F0.0062641394324600697
I5
I-1
tp789
a((F191.60069274902344
F209.01893615722656
tF77.137939453125
F111.19816589355469
F0.0057917595840990543
I5
I-1
tp790
a((F169.20579528808594
F209.01893615722656
tF77.137939453125
F147.03884887695312
F0.0035789669491350651
I5
I-1
tp791
a((F209.01893615722656
F89.579544067382812
tF77.137939453125
F135.23561096191406
F0.00076242350041866302
I5
I-1
tp792
a((F159.25251770019531
F209.01893615722656
tF77.137939453125
F152.11824035644531
F0.0028535870369523764
I5
I-1
tp793
a((F213.99557495117188
F94.556182861328125
tF77.137939453125
F141.67668151855469
F0.00059437553863972425
I5
I-1
tp794
a((F84.602897644042969
F97.044502258300781
tF77.137939453125
F34.799839019775391
F0.00059406994841992855
I5
I-1
tp795
a((F136.85763549804688
F209.01893615722656
tF77.137939453125
F326.11483764648438
F0.0020977661479264498
I5
I-1
tp796
a((F119.43939208984375
F209.01893615722656
tF77.137939453125
F37.951213836669922
F0.0021875023376196623
I5
I-1
tp797
a((F99.532821655273438
F209.01893615722656
tF77.137939453125
F53.700565338134766
F0.0064389281906187534
I5
I-1
tp798
a((F92.067863464355469
F209.01893615722656
tF77.137939453125
F60.398040771484375
F0.0068489830009639263
I5
I-1
tp799
a((F77.137939453125
F209.01893615722656
tF77.137939453125
F99.5101318359375
F0.0065287342295050621
I5
I-1
tp800
a((F184.13572692871094
F206.53060913085938
tF77.137939453125
F117.48628997802734
F0.0051421835087239742
I5
I-1
tp801
a((F171.69412231445312
F159.25251770019531
tF77.137939453125
F204.71723937988281
F0.00095268513541668653
I5
I-1
tp802
a((F99.532821655273438
F151.78755187988281
tF77.137939453125
F307.37664794921875
F0.00071684014983475208
I5
I-1
tp803
a((F189.11236572265625
F149.29924011230469
tF77.137939453125
F251.65127563476562
F0.00074921961640939116
I5
I-1
tp804
a((F184.13572692871094
F146.8109130859375
tF77.137939453125
F249.93023681640625
F0.0014257334405556321
I5
I-1
tp805
a((F179.15908813476562
F144.32260131835938
tF77.137939453125
F247.70664978027344
F0.0010506038088351488
I5
I-1
tp806
a((F149.29924011230469
F166.71748352050781
tF77.137939453125
F186.66702270507812
F4.7589495807187632e-05
I5
I-1
tp807
a((F189.11236572265625
F77.137939453125
tF77.137939453125
F118.6024169921875
F0.00014537878450937569
I5
I-1
tp808
a((F161.7408447265625
F116.95106506347656
tF77.137939453125
F280.01205444335938
F8.2589976955205202e-05
I5
I-1
tp809
a((F134.36930847167969
F79.626258850097656
tF77.137939453125
F97.850318908691406
F0.00013977373600937426
I5
I-1
tp810
a((F164.22915649414062
F79.626258850097656
tF77.137939453125
F89.973724365234375
F0.00024552401737309992
I5
I-1
tp811
a((F119.43939208984375
F82.114578247070312
tF77.137939453125
F62.154808044433594
F8.9349377958569676e-05
I5
I-1
tp812
a((F186.62403869628906
F119.43939208984375
tF77.137939453125
F301.32028198242188
F0.00011331929999869317
I5
I-1
tp813
a((F99.532821655273438
F121.92771148681641
tF77.137939453125
F320.90521240234375
F5.9765301557490602e-05
I5
I-1
tp814
a((F176.67076110839844
F82.114578247070312
tF77.137939453125
F104.47502136230469
F9.6448442491237074e-05
I5
I-1
tp815
a((F87.091217041015625
F87.091217041015625
tF77.137939453125
F40.732612609863281
F0.00037664489354938269
I5
I-1
tp816
a((F221.46052551269531
F126.90435028076172
tF77.137939453125
F200.79652404785156
F7.8186072641983628e-05
I5
I-1
tp817
a((F221.46052551269531
F97.044502258300781
tF77.137939453125
F144.36093139648438
F0.00028349293279461563
I5
I-1
tp818
a((F151.78755187988281
F99.532821655273438
tF77.137939453125
F117.06573486328125
F0.00012591439008247107
I5
I-1
tp819
a((F77.137939453125
F134.36930847167969
tF77.137939453125
F323.96102905273438
F0.00046924492926336825
I5
I-1
tp820
a((F181.64739990234375
F134.36930847167969
tF77.137939453125
F270.00201416015625
F6.5177875512745231e-05
I5
I-1
tp821
a((F139.345947265625
F104.50946807861328
tF77.137939453125
F124.60031127929688
F6.9704961788374931e-05
I5
I-1
tp822
a((F116.95106506347656
F139.345947265625
tF77.137939453125
F304.87371826171875
F0.00028055542497895658
I5
I-1
tp823
a((F151.78755187988281
F111.97442626953125
tF77.137939453125
F156.29985046386719
F9.7619973530527204e-05
I5
I-1
tp824
a((F144.32260131835938
F199.06564331054688
tF77.137939453125
F221.38850402832031
F0.00022463378263637424
I5
I-1
tp825
a((F156.76419067382812
F196.57733154296875
tF77.137939453125
F174.27786254882812
F0.00017856957856565714
I5
I-1
tp826
a((F149.29924011230469
F77.137939453125
tF77.137939453125
F100.96690368652344
F0.00019455754954833537
I5
I-1
tp827
a((F149.29924011230469
F196.57733154296875
tF77.137939453125
F197.95657348632812
F8.7283719039987773e-05
I5
I-1
tp828
a((F221.46052551269531
F106.99778747558594
tF77.137939453125
F158.44017028808594
F0.00055007310584187508
I5
I-1
tp829
a((F194.08900451660156
F149.29924011230469
tF77.137939453125
F256.12591552734375
F0.00032758375164121389
I5
I-1
tp830
a((F92.067863464355469
F151.78755187988281
tF77.137939453125
F296.50732421875
F0.00047695168177597225
I5
I-1
tp831
a((F156.76419067382812
F104.50946807861328
tF77.137939453125
F96.473274230957031
F0.00010996928176609799
I5
I-1
tp832
a((F149.29924011230469
F156.76419067382812
tF77.137939453125
F171.21739196777344
F0.00010251604544464499
I5
I-1
tp833
a((F154.27587890625
F156.76419067382812
tF77.137939453125
F180.4151611328125
F8.2606813521124423e-05
I5
I-1
tp834
a((F149.29924011230469
F104.50946807861328
tF77.137939453125
F119.42105102539062
F0.00013531789591070265
I5
I-1
tp835
a((F119.43939208984375
F161.7408447265625
tF77.137939453125
F349.77557373046875
F0.00053012487478554249
I5
I-1
tp836
a((F159.25251770019531
F161.7408447265625
tF77.137939453125
F186.72215270996094
F0.00028117175679653883
I5
I-1
tp837
a((F116.95106506347656
F196.57733154296875
tF77.137939453125
F21.870050430297852
F0.00043207191629335284
I5
I-1
tp838
a((F209.01893615722656
F164.22915649414062
tF77.137939453125
F273.72418212890625
F5.4390813602367416e-05
I5
I-1
tp839
a((F171.69412231445312
F194.08900451660156
tF77.137939453125
F160.9176025390625
F0.00035222238511778414
I5
I-1
tp840
a((F144.32260131835938
F194.08900451660156
tF77.137939453125
F220.12281799316406
F0.0001119744629249908
I5
I-1
tp841
a((F209.01893615722656
F169.20579528808594
tF77.137939453125
F279.79388427734375
F6.9071742473170161e-05
I5
I-1
tp842
a((F134.36930847167969
F194.08900451660156
tF77.137939453125
F339.87240600585938
F0.00011425303819123656
I5
I-1
tp843
a((F126.90435028076172
F194.08900451660156
tF77.137939453125
F1.7064265012741089
F0.00010164216655539349
I5
I-1
tp844
a((F159.25251770019531
F176.67076110839844
tF77.137939453125
F187.58419799804688
F5.2322175179142505e-05
I5
I-1
tp845
a((F109.48610687255859
F194.08900451660156
tF77.137939453125
F26.282535552978516
F0.00044867253745906055
I5
I-1
tp846
a((F111.97442626953125
F189.11236572265625
tF77.137939453125
F18.079133987426758
F0.0005541057325899601
I5
I-1
tp847
a((F119.43939208984375
F99.532821655273438
tF77.137939453125
F167.35549926757812
F1.6158446669578552e-05
I5
I-1
tp848
a((F124.41603088378906
F114.46274566650391
tF77.137939453125
F217.82989501953125
F2.8757351174135692e-05
I5
I-1
tp849
a((F84.602897644042969
F119.43939208984375
tF77.137939453125
F354.63619995117188
F2.3371430870611221e-05
I5
I-1
tp850
a((F119.43939208984375
F119.43939208984375
tF77.137939453125
F240.20814514160156
F1.9691036868607625e-05
I5
I-1
tp851
a((F94.556182861328125
F126.90435028076172
tF77.137939453125
F314.82070922851562
F3.3654003345873207e-05
I5
I-1
tp852
a((F184.13572692871094
F126.90435028076172
tF77.137939453125
F286.24481201171875
F3.1431194656761363e-05
I5
I-1
tp853
a((F161.7408447265625
F94.556182861328125
tF77.137939453125
F16.994277954101562
F2.418778240098618e-05
I5
I-1
tp854
a((F171.69412231445312
F109.48610687255859
tF77.137939453125
F350.69638061523438
F2.6307476218789816e-05
I5
I-1
tp855
a((F199.06564331054688
F144.32260131835938
tF77.137939453125
F259.65280151367188
F4.1928942664526403e-05
I5
I-1
tp856
a((F204.04228210449219
F134.36930847167969
tF77.137939453125
F249.75387573242188
F1.8159691535402089e-05
I5
I-1
tp857
a((F176.67076110839844
F129.39266967773438
tF77.137939453125
F281.1092529296875
F2.7519066861714236e-05
I5
I-1
tp858
a((F209.01893615722656
F131.88099670410156
tF77.137939453125
F236.19122314453125
F3.6299446946941316e-05
I5
I-1
tp859
a((F141.83427429199219
F169.20579528808594
tF77.137939453125
F315.16424560546875
F7.5419334280013572e-06
I5
I-1
tp860
a((F216.48388671875
F171.69412231445312
tF77.137939453125
F281.9210205078125
F1.2051525118295103e-05
I5
I-1
tp861
a((F109.48610687255859
F87.091217041015625
tF77.137939453125
F43.854480743408203
F8.7914140749489889e-06
I5
I-1
tp862
a((F149.29924011230469
F89.579544067382812
tF77.137939453125
F153.22592163085938
F1.4186039152264129e-05
I5
I-1
tp863
a((F206.53060913085938
F82.114578247070312
tF77.137939453125
F129.85395812988281
F-2.6292377697245684e-06
I5
I-1
tp864
a((F206.53060913085938
F116.95106506347656
tF77.137939453125
F190.907470703125
F7.2935054049594328e-06
I5
I-1
tp865
a((F139.345947265625
F174.18243408203125
tF77.137939453125
F340.85494995117188
F-1.7895301596126956e-07
I5
I-1
tp866
a((F171.69412231445312
F149.29924011230469
tF77.137939453125
F219.430908203125
F6.6408010752638802e-06
I5
I-1
tp867
a((F221.46052551269531
F111.97442626953125
tF77.137939453125
F166.64431762695312
F5.6724193200352602e-06
I5
I-1
tp868
a((F119.43939208984375
F98.537498474121094
tF92.565528869628906
F52.933917999267578
F2.761992254818324e-05
I6
I-1
tp869
a((F173.18711853027344
F101.52348327636719
tF92.565528869628906
F71.482818603515625
F1.9051392882829532e-05
I6
I-1
tp870
a((F149.29924011230469
F104.50946807861328
tF92.565528869628906
F335.03433227539062
F0.0001297259732382372
I6
I-1
tp871
a((F185.13105773925781
F104.50946807861328
tF92.565528869628906
F131.26559448242188
F3.4928394597955048e-05
I6
I-1
tp872
a((F107.49545288085938
F110.48143768310547
tF92.565528869628906
F5.0019540786743164
F-6.943035259610042e-06
I6
I-1
tp873
a((F131.38333129882812
F110.48143768310547
tF92.565528869628906
F209.79484558105469
F2.8061160264769569e-05
I6
I-1
tp874
a((F143.3272705078125
F110.48143768310547
tF92.565528869628906
F293.8035888671875
F0.0001010001142276451
I6
I-1
tp875
a((F149.29924011230469
F110.48143768310547
tF92.565528869628906
F335.4324951171875
F0.00011652036482701078
I6
I-1
tp876
a((F122.42537689208984
F113.46742248535156
tF92.565528869628906
F213.84486389160156
F3.3788041037041694e-05
I6
I-1
tp877
a((F185.13105773925781
F116.45340728759766
tF92.565528869628906
F247.31430053710938
F0.00012070696539012715
I6
I-1
tp878
a((F203.04696655273438
F116.45340728759766
tF92.565528869628906
F200.462158203125
F8.1321049947291613e-06
I6
I-1
tp879
a((F98.537498474121094
F119.43939208984375
tF92.565528869628906
F334.89471435546875
F2.8346090402919799e-05
I6
I-1
tp880
a((F119.43939208984375
F119.43939208984375
tF92.565528869628906
F245.87124633789062
F2.4049933927017264e-05
I6
I-1
tp881
a((F191.10302734375
F119.43939208984375
tF92.565528869628906
F237.47300720214844
F0.00011869157606270164
I6
I-1
tp882
a((F200.06097412109375
F122.42537689208984
tF92.565528869628906
F225.8424072265625
F2.6629018975654617e-05
I6
I-1
tp883
a((F92.565528869628906
F125.41136169433594
tF92.565528869628906
F325.76809692382812
F3.1930761906551197e-05
I6
I-1
tp884
a((F113.46742248535156
F125.41136169433594
tF92.565528869628906
F296.3861083984375
F5.6341592426178977e-05
I6
I-1
tp885
a((F176.173095703125
F125.41136169433594
tF92.565528869628906
F267.212158203125
F3.2192532671615481e-05
I6
I-1
tp886
a((F143.3272705078125
F134.36932373046875
tF92.565528869628906
F230.42669677734375
F1.3448568097373936e-05
I6
I-1
tp887
a((F116.45340728759766
F137.35530090332031
tF92.565528869628906
F308.85064697265625
F0.00025276042288169265
I6
I-1
tp888
a((F200.06097412109375
F143.3272705078125
tF92.565528869628906
F250.47918701171875
F0.00012369261821731925
I6
I-1
tp889
a((F182.14508056640625
F146.31326293945312
tF92.565528869628906
F239.00830078125
F0.0012746723368763924
I6
I-1
tp890
a((F194.08901977539062
F146.31326293945312
tF92.565528869628906
F247.91024780273438
F0.00033557834103703499
I6
I-1
tp891
a((F98.537498474121094
F149.29924011230469
tF92.565528869628906
F319.06240844726562
F0.001021499396301806
I6
I-1
tp892
a((F110.48143768310547
F149.29924011230469
tF92.565528869628906
F326.33016967773438
F0.0011627221247181296
I6
I-1
tp893
a((F119.43939208984375
F149.29924011230469
tF92.565528869628906
F336.37832641601562
F0.00039226800436154008
I6
I-1
tp894
a((F140.34127807617188
F149.29924011230469
tF92.565528869628906
F34.98309326171875
F2.6407302357256413e-05
I6
I-1
tp895
a((F167.21514892578125
F149.29924011230469
tF92.565528869628906
F212.86360168457031
F0.0003233029565308243
I6
I-1
tp896
a((F149.29924011230469
F155.27120971679688
tF92.565528869628906
F197.87493896484375
F0.00010702116560423747
I6
I-1
tp897
a((F158.2572021484375
F155.27120971679688
tF92.565528869628906
F199.76924133300781
F0.00071855279384180903
I6
I-1
tp898
a((F134.36932373046875
F158.2572021484375
tF92.565528869628906
F337.53839111328125
F7.7148179116193205e-05
I6
I-1
tp899
a((F170.20114135742188
F158.2572021484375
tF92.565528869628906
F210.99757385253906
F0.0011365610407665372
I6
I-1
tp900
a((F116.45340728759766
F161.24317932128906
tF92.565528869628906
F339.6865234375
F0.00056910066632553935
I6
I-1
tp901
a((F158.2572021484375
F161.24317932128906
tF92.565528869628906
F199.35519409179688
F0.00082979333819821477
I6
I-1
tp902
a((F116.45340728759766
F167.21514892578125
tF92.565528869628906
F347.42501831054688
F0.00010646958253346384
I6
I-1
tp903
a((F140.34127807617188
F167.21514892578125
tF92.565528869628906
F270.16552734375
F2.5434228518861346e-05
I6
I-1
tp904
a((F161.24317932128906
F167.21514892578125
tF92.565528869628906
F196.28350830078125
F-9.2137197498232126e-05
I6
I-1
tp905
a((F158.2572021484375
F176.173095703125
tF92.565528869628906
F183.911865234375
F4.7242032451322302e-05
I6
I-1
tp906
a((F167.21514892578125
F176.173095703125
tF92.565528869628906
F183.98200988769531
F-4.9199901695828885e-05
I6
I-1
tp907
a((F110.48143768310547
F188.11703491210938
tF92.565528869628906
F15.437684059143066
F0.00092305132420733571
I6
I-1
tp908
a((F125.41136169433594
F191.10302734375
tF92.565528869628906
F10.382059097290039
F8.7705317127984017e-05
I6
I-1
tp909
a((F134.36932373046875
F191.10302734375
tF92.565528869628906
F9.7041759490966797
F9.3743044999428093e-05
I6
I-1
tp910
a((F158.2572021484375
F191.10302734375
tF92.565528869628906
F167.87872314453125
F0.00016815222625155002
I6
I-1
tp911
a((F170.20114135742188
F191.10302734375
tF92.565528869628906
F162.13368225097656
F0.00038827929529361427
I6
I-1
tp912
a((F143.3272705078125
F194.08901977539062
tF92.565528869628906
F142.67112731933594
F0.00019635859644040465
I6
I-1
tp913
a((F116.45340728759766
F197.07499694824219
tF92.565528869628906
F25.613801956176758
F0.0010874915169551969
I6
I-1
tp914
a((F98.537498474121094
F200.06097412109375
tF92.565528869628906
F44.421451568603516
F0.0036022081039845943
I6
I-1
tp915
a((F179.15908813476562
F200.06097412109375
tF92.565528869628906
F132.9927978515625
F0.0037154329475015402
I6
I-1
tp916
a((F121.82818603515625
F111.07863616943359
tF111.07863616943359
F358.14013671875
F4.2209987441310659e-05
I7
I-1
tp917
a((F132.57772827148438
F111.07863616943359
tF111.07863616943359
F226.96017456054688
F2.4114788175211288e-05
I7
I-1
tp918
a((F157.66000366210938
F118.24500274658203
tF111.07863616943359
F294.47268676757812
F6.5128668211400509e-05
I7
I-1
tp919
a((F186.32545471191406
F118.24500274658203
tF111.07863616943359
F214.42453002929688
F0.00011563345469767228
I7
I-1
tp920
a((F118.24500274658203
F121.82818603515625
tF111.07863616943359
F324.69888305664062
F3.2851548894541338e-05
I7
I-1
tp921
a((F179.15908813476562
F121.82818603515625
tF111.07863616943359
F230.02336120605469
F9.1435504145920277e-05
I7
I-1
tp922
a((F175.57591247558594
F128.99455261230469
tF111.07863616943359
F237.94309997558594
F4.3636147893266752e-05
I7
I-1
tp923
a((F143.3272705078125
F136.16090393066406
tF111.07863616943359
F247.1563720703125
F2.0682575268438086e-05
I7
I-1
tp924
a((F118.24500274658203
F139.74409484863281
tF111.07863616943359
F325.59869384765625
F0.00030661330674774945
I7
I-1
tp925
a((F132.57772827148438
F139.74409484863281
tF111.07863616943359
F293.33596801757812
F3.2449977879878134e-05
I7
I-1
tp926
a((F111.07863616943359
F150.49363708496094
tF111.07863616943359
F327.36386108398438
F0.00134445377625525
I7
I-1
tp927
a((F121.82818603515625
F150.49363708496094
tF111.07863616943359
F324.29379272460938
F0.00035442202351987362
I7
I-1
tp928
a((F168.4095458984375
F150.49363708496094
tF111.07863616943359
F220.71641540527344
F0.00040322710992768407
I7
I-1
tp929
a((F182.74227905273438
F150.49363708496094
tF111.07863616943359
F228.56770324707031
F0.0013622639235109091
I7
I-1
tp930
a((F146.91046142578125
F154.07681274414062
tF111.07863616943359
F236.19245910644531
F7.4859366577584296e-05
I7
I-1
tp931
a((F171.99273681640625
F157.66000366210938
tF111.07863616943359
F213.90228271484375
F0.0011004359694197774
I7
I-1
tp932
a((F118.24500274658203
F161.24317932128906
tF111.07863616943359
F335.62808227539062
F0.00071685970760881901
I7
I-1
tp933
a((F161.24317932128906
F161.24317932128906
tF111.07863616943359
F211.99264526367188
F0.0011538674589246511
I7
I-1
tp934
a((F118.24500274658203
F168.4095458984375
tF111.07863616943359
F342.68460083007812
F0.00036843976704403758
I7
I-1
tp935
a.