(lp1
((F191.72688293457031
F30.73780632019043
tF32
F223.32017517089844
F34728.75
I1
I1
tp2
a((F103.26326751708984
F29.299263000488281
tF32
F33.142814636230469
F33318.16796875
I1
I1
tp3
a((F48.448017120361328
F70.660102844238281
tF23
F4.3602995872497559
F32042.30859375
I0
I1
tp4
a((F170.06875610351562
F74.782279968261719
tF21
F312.54653930664062
F31129.61328125
I0
I1
tp5
a((F122.23811340332031
F69.676017761230469
tF22
F0.083914667367935181
F30512.720703125
I0
I1
tp6
a((F96.22344970703125
F73.99066162109375
tF21
F314.18719482421875
F29396.068359375
I0
I1
tp7
a((F103.5164794921875
F66.896492004394531
tF21
F63.716388702392578
F27178.388671875
I0
I-1
tp8
a((F177.15434265136719
F67.500068664550781
tF21
F70.637550354003906
F26517.3203125
I0
I-1
tp9
a((F32.226570129394531
F29.876192092895508
tF32
F244.924560546875
F25549.62109375
I1
I1
tp10
a((F77.41583251953125
F75.294937133789062
tF19
F205.32261657714844
F24755.96875
I0
I1
tp11
a((F61.258747100830078
F36.016162872314453
tF20
F355.31759643554688
F23624.546875
I0
I1
tp12
a((F99.635673522949219
F33.070140838623047
tF17
F70.352058410644531
F21943.1015625
I0
I1
tp13
a((F188.30491638183594
F34.142105102539062
tF17
F68.334579467773438
F21817.505859375
I0
I1
tp14
a((F131.69509887695312
F62.506561279296875
tF23
F86.210426330566406
F21587.2734375
I0
I-1
tp15
a((F74.413169860839844
F64.757453918457031
tF22
F108.12110900878906
F21355.1171875
I0
I-1
tp16
a((F117.62776184082031
F61.420085906982422
tF16
F93.940681457519531
F21278.85546875
I0
I-1
tp17
a((F58.096942901611328
F62.455642700195312
tF22
F82.742256164550781
F21191.41796875
I0
I-1
tp18
a((F148.12821960449219
F65.160858154296875
tF22
F110.79959869384766
F20788.498046875
I0
I-1
tp19
a((F89.54541015625
F62.9783935546875
tF19
F187.37944030761719
F20739.859375
I0
I-1
tp20
a((F172.48822021484375
F82.3739013671875
tF17
F284.75457763671875
F20463.0390625
I0
I-1
tp21
a((F151.54055786132812
F32.367298126220703
tF21
F105.22618103027344
F20374.7421875
I0
I1
tp22
a((F29.700860977172852
F61.863021850585938
tF19
F25.785655975341797
F20109.98046875
I0
I-1
tp23
a((F71.333595275878906
F41.832199096679688
tF29
F206.32354736328125
F20074.78125
I1
I-1
tp24
a((F25.834156036376953
F30.774578094482422
tF21
F234.11402893066406
F19979.962890625
I0
I1
tp25
a((F192.00445556640625
F61.973812103271484
tF18
F100.24581909179688
F19291.673828125
I0
I-1
tp26
a((F125.16201019287109
F49.804924011230469
tF45
F251.43937683105469
F19256.21484375
I1
I1
tp27
a((F98.803962707519531
F81.685020446777344
tF17
F285.5927734375
F19246.48828125
I0
I-1
tp28
a((F163.34332275390625
F63.471485137939453
tF19
F28.322443008422852
F19237.66015625
I0
I-1
tp29
a((F24.973302841186523
F31.257696151733398
tF18
F106.39646148681641
F19119.529296875
I0
I1
tp30
a((F32.241966247558594
F43.391941070556641
tF23
F267.99777221679688
F18610.041015625
I0
I-1
tp31
a((F157.15876770019531
F45.418655395507812
tF29
F109.2965087890625
F18357.447265625
I1
I-1
tp32
a((F106.78663635253906
F66.215003967285156
tF31
F73.546920776367188
F17754.267578125
I1
I-1
tp33
a((F50.031059265136719
F42.738544464111328
tF28
F203.35714721679688
F17621.412109375
I1
I-1
tp34
a((F196.64570617675781
F27.186452865600586
tF16
F28.759866714477539
F17562.32421875
I0
I1
tp35
a((F159.14512634277344
F31.793254852294922
tF35
F226.43148803710938
F17204.576171875
I1
I1
tp36
a((F155.97705078125
F58.053653717041016
tF21
F111.34117889404297
F17156.142578125
I0
I1
tp37
a((F180.64216613769531
F67.198745727539062
tF31
F70.642570495605469
F17136.34765625
I1
I-1
tp38
a((F29.914871215820312
F43.083919525146484
tF29
F268.76345825195312
F16962.490234375
I1
I-1
tp39
a((F161.18482971191406
F31.835075378417969
tF37
F246.41328430175781
F16891.48828125
I1
I1
tp40
a((F114.91960144042969
F77.744300842285156
tF22
F139.34829711914062
F16433.396484375
I0
I-1
tp41
a((F80.829612731933594
F52.356815338134766
tF37
F88.561866760253906
F16196.0634765625
I1
I1
tp42
a((F161.93190002441406
F41.134140014648438
tF14
F96.946220397949219
F15699.541015625
I0
I-1
tp43
a((F168.9132080078125
F53.855297088623047
tF35
F97.514617919921875
F15664.603515625
I1
I1
tp44
a((F35.069103240966797
F39.261650085449219
tF14
F98.319000244140625
F13922.4970703125
I0
I-1
tp45
a((F45.2232666015625
F30.156248092651367
tF20
F20.839929580688477
F13685.8330078125
I0
I-1
tp46
a((F98.108604431152344
F57.426082611083984
tF23
F67.612579345703125
F13212.390625
I0
I1
tp47
a((F125.59284973144531
F41.461166381835938
tF21
F222.72381591796875
F12790.4521484375
I0
I1
tp48
a((F60.172500610351562
F50.34368896484375
tF29
F86.927680969238281
F12761.5166015625
I1
I1
tp49
a((F55.307403564453125
F83.191055297851562
tF17
F240.474853515625
F12590.5087890625
I0
I-1
tp50
a((F98.400611877441406
F45.150154113769531
tF32
F261.669189453125
F11490.6259765625
I1
I-1
tp51
a((F136.9329833984375
F36.562122344970703
tF32
F307.736572265625
F11200.79296875
I1
I-1
tp52
a((F39.422523498535156
F53.287899017333984
tF29
F99.791595458984375
F11194.60546875
I1
I1
tp53
a((F140.40261840820312
F33.701572418212891
tF43
F243.62356567382812
F10187.9404296875
I1
I-1
tp54
a((F117.67591857910156
F77.926261901855469
tF16
F134.68324279785156
F10105.453125
I0
I-1
tp55
a((F176.51762390136719
F38.486728668212891
tF41
F2.9675140380859375
F9856.072265625
I1
I-1
tp56
a((F195.14410400390625
F69.597030639648438
tF21
F138.63679504394531
F9302.5966796875
I0
I1
tp57
a((F176.78303527832031
F46.739860534667969
tF22
F301.738037109375
F8636.47265625
I0
I-1
tp58
a((F50.836837768554688
F56.213142395019531
tF16
F77.490669250488281
F8599.3125
I0
I1
tp59
a((F133.56832885742188
F39.312934875488281
tF22
F330.7305908203125
F8535.029296875
I0
I-1
tp60
a((F186.98170471191406
F46.541015625
tF32
F266.2669677734375
F8346.560546875
I1
I-1
tp61
a((F123.90033721923828
F56.707672119140625
tF15
F86.574127197265625
F8340.3779296875
I0
I1
tp62
a((F82.2181396484375
F59.433456420898438
tF17
F134.168212890625
F8331.814453125
I0
I1
tp63
a((F138.25830078125
F81.217048645019531
tF16
F242.36952209472656
F8070.9873046875
I0
I1
tp64
a((F165.35169982910156
F34.600517272949219
tF16
F7.5534720420837402
F7935.85888671875
I0
I1
tp65
a((F198.33978271484375
F55.031044006347656
tF22
F244.34579467773438
F7746.24755859375
I0
I1
tp66
a((F179.2335205078125
F45.684642791748047
tF31
F293.24053955078125
F7555.61962890625
I1
I-1
tp67
a((F160.82341003417969
F68.040885925292969
tF31
F86.067985534667969
F6640.96728515625
I1
I-1
tp68
a((F37.269233703613281
F70.899559020996094
tF22
F158.29281616210938
F6514.52783203125
I0
I-1
tp69
a((F200.44047546386719
F55.154834747314453
tF29
F241.96585083007812
F6253.97412109375
I1
I1
tp70
a((F74.407440185546875
F53.511096954345703
tF20
F103.49041748046875
F5610.31640625
I0
I1
tp71
a((F133.36100769042969
F72.907821655273438
tF21
F10.437292098999023
F5485.68408203125
I0
I-1
tp72
a((F70.578895568847656
F26.386381149291992
tF33
F181.26968383789062
F5328.576171875
I1
I-1
tp73
a((F67.649703979492188
F75.313690185546875
tF23
F214.40496826171875
F5303.8701171875
I0
I-1
tp74
a((F87.168525695800781
F67.218284606933594
tF32
F91.999969482421875
F5100.81591796875
I1
I-1
tp75
a.