(lp1
((F103
F264
tF31
F353.08154296875
F0.00036269967677071691
I0
I-1
tp2
a((F69
F266
tF31
F120.39903259277344
F0.00066635245457291603
I0
I-1
tp3
a((F76
F251
tF31
F27.55372428894043
F0.00097251246916130185
I0
I-1
tp4
a((F91
F32
tF31
F236.69937133789062
F0.00057846063282340765
I0
I-1
tp5
a((F54
F33
tF31
F206.27105712890625
F0.00073263439116999507
I0
I-1
tp6
a((F55
F31
tF31
F218.4490966796875
F0.00083789293421432376
I0
I-1
tp7
a((F65
F250
tF31
F282.15286254882812
F0.00091189466184005141
I0
I-1
tp8
a((F89
F35
tF31
F242.53900146484375
F0.00065562879899516702
I0
I-1
tp9
a((F90
F229
tF31
F326.1002197265625
F0.0024654960725456476
I0
I-1
tp10
a((F97
F364
tF31
F99.835052490234375
F0.0025310683995485306
I0
I-1
tp11
a((F91
F351
tF31
F276.40423583984375
F0.0018394757062196732
I0
I-1
tp12
a((F76
F248
tF31
F56.385509490966797
F0.002794693922623992
I0
I-1
tp13
a((F102
F267
tF31
F357.49755859375
F0.0026161177083849907
I0
I-1
tp14
a((F109
F63
tF31
F265.51715087890625
F0.0025048169773072004
I0
I-1
tp15
a((F124
F346
tF31
F47.919658660888672
F0.00081087619764730334
I0
I-1
tp16
a((F100
F225
tF31
F7.3252835273742676
F0.00092795206001028419
I0
I-1
tp17
a((F100
F222
tF31
F2.6970405578613281
F0.0036160433664917946
I0
I-1
tp18
a((F126
F343
tF31
F24.737646102905273
F0.00039507343899458647
I0
I-1
tp19
a((F95
F72
tF31
F238.22573852539062
F0.00094480963889509439
I0
I-1
tp20
a((F73
F343
tF31
F21.087871551513672
F0.003677294822409749
I0
I-1
tp21
a((F76
F340
tF31
F34.165061950683594
F0.0011727492092177272
I0
I-1
tp22
a((F104
F75
tF31
F51.04327392578125
F0.00064318388467654586
I0
I-1
tp23
a((F102
F76
tF31
F67.205696105957031
F0.00097509939223527908
I0
I-1
tp24
a((F104
F337
tF31
F245.95919799804688
F0.00088675471488386393
I0
I-1
tp25
a((F98
F221
tF31
F1.2495228052139282
F0.0043572364374995232
I0
I-1
tp26
a((F79
F337
tF31
F15.348862648010254
F0.0033001124393194914
I0
I-1
tp27
a((F53
F82
tF31
F123.97441101074219
F0.0010628626914694905
I0
I-1
tp28
a((F51
F83
tF31
F123.55604553222656
F0.0015736269997432828
I0
I-1
tp29
a((F63
F83
tF31
F120.44400787353516
F0.0029838946647942066
I0
I-1
tp30
a((F68
F83
tF31
F118.47372436523438
F0.0013222746783867478
I0
I-1
tp31
a((F62
F248
tF31
F228.62916564941406
F0.0012157839955762029
I0
I-1
tp32
a((F63
F85
tF31
F133.14675903320312
F0.003810628317296505
I0
I-1
tp33
a((F65
F85
tF31
F137.07275390625
F0.0030735163018107414
I0
I-1
tp34
a((F72
F85
tF31
F96.066436767578125
F0.003082389710471034
I0
I-1
tp35
a((F96
F85
tF31
F93.923606872558594
F0.0024456412065774202
I0
I-1
tp36
a((F100
F219
tF31
F357.20916748046875
F0.0035760030150413513
I0
I-1
tp37
a((F135
F86
tF31
F27.049274444580078
F0.00050940056098625064
I0
I-1
tp38
a((F71
F87
tF31
F138.9315185546875
F0.0026303934864699841
I0
I-1
tp39
a((F95
F219
tF31
F356.04205322265625
F0.0020518419332802296
I0
I-1
tp40
a((F72
F90
tF31
F268.51162719726562
F0.0019113280577585101
I0
I-1
tp41
a((F132
F90
tF31
F32.013256072998047
F0.0026770338881760836
I0
I-1
tp42
a((F61
F93
tF31
F193.41194152832031
F0.0014081908157095313
I0
I-1
tp43
a((F100
F269
tF31
F8.3255290985107422
F0.0036452480126172304
I0
I-1
tp44
a((F102
F217
tF31
F357.3062744140625
F0.0017209014622494578
I0
I-1
tp45
a((F111
F334
tF31
F226.18637084960938
F0.0017138897674158216
I0
I-1
tp46
a((F80
F105
tF31
F62.086509704589844
F0.001546435640193522
I0
I-1
tp47
a((F70
F108
tF31
F86.371185302734375
F0.0022974626626819372
I0
I-1
tp48
a((F90
F109
tF31
F320.49667358398438
F0.00063393131131306291
I0
I-1
tp49
a((F104
F334
tF31
F240.85154724121094
F0.0025941543281078339
I0
I-1
tp50
a((F124
F333
tF31
F311.6798095703125
F0.0006285437848418951
I0
I-1
tp51
a((F91
F112
tF31
F35.177082061767578
F0.002545404015108943
I0
I-1
tp52
a((F72
F273
tF31
F149.25315856933594
F0.0033953974489122629
I0
I-1
tp53
a((F103
F119
tF31
F14.474808692932129
F0.00054876611102372408
I0
I-1
tp54
a((F101
F122
tF31
F3.5261445045471191
F0.00096304231556132436
I0
I-1
tp55
a((F139
F214
tF31
F59.273323059082031
F0.0007198233506642282
I0
I-1
tp56
a((F99
F123
tF31
F0.4251442551612854
F0.0005519745172932744
I0
I-1
tp57
a((F78
F124
tF31
F284.02902221679688
F0.00074147275881841779
I0
I-1
tp58
a((F116
F331
tF31
F270.30169677734375
F0.00044273820822127163
I0
I-1
tp59
a((F64
F126
tF31
F198.28518676757812
F0.0026398913469165564
I0
I-1
tp60
a((F69
F274
tF31
F163.87716674804688
F0.001138727180659771
I0
I-1
tp61
a((F39
F275
tF31
F283.086181640625
F0.0021492545492947102
I0
I-1
tp62
a((F146
F132
tF31
F59.753921508789062
F0.00092417740961536765
I0
I-1
tp63
a((F70
F325
tF31
F213.34909057617188
F0.0018436940154060721
I0
I-1
tp64
a((F141
F213
tF31
F47.188037872314453
F0.0013399481540545821
I0
I-1
tp65
a((F76
F140
tF31
F67.889442443847656
F0.0033025383017957211
I0
I-1
tp66
a((F91
F140
tF31
F98.535125732421875
F0.00084715289995074272
I0
I-1
tp67
a((F95
F323
tF31
F47.593753814697266
F0.002377823693677783
I0
I-1
tp68
a((F73
F143
tF31
F54.392253875732422
F0.0014006203273311257
I0
I-1
tp69
a((F97
F321
tF31
F57.419803619384766
F0.0033774501644074917
I0
I-1
tp70
a((F99
F319
tF31
F48.3587646484375
F0.0036324411630630493
I0
I-1
tp71
a((F65
F159
tF31
F198.76882934570312
F0.0037421269807964563
I0
I-1
tp72
a((F80
F159
tF31
F304.55606079101562
F0.00055977021111175418
I0
I-1
tp73
a((F82
F160
tF31
F299.41851806640625
F0.00048529758350923657
I0
I-1
tp74
a((F102
F318
tF31
F34.550678253173828
F0.0035013903398066759
I0
I-1
tp75
a((F60
F164
tF31
F195.81126403808594
F0.00039226378430612385
I0
I-1
tp76
a((F76
F316
tF31
F113.31625366210938
F0.00096701300935819745
I0
I-1
tp77
a((F48
F239
tF31
F281.90652465820312
F0.0013933959417045116
I0
I-1
tp78
a((F96
F314
tF31
F37.289569854736328
F0.00039175860001705587
I0
I-1
tp79
a((F89
F238
tF31
F332.2410888671875
F0.0020283476915210485
I0
I-1
tp80
a((F134
F171
tF31
F29.364418029785156
F0.00079069146886467934
I0
I-1
tp81
a((F133
F173
tF31
F29.419229507446289
F0.0011543805012479424
I0
I-1
tp82
a((F78
F299
tF31
F20.482023239135742
F0.00053715799003839493
I0
I-1
tp83
a((F78
F297
tF31
F36.971687316894531
F0.0030473317019641399
I0
I-1
tp84
a((F78
F175
tF31
F82.985916137695312
F0.0018038189737126231
I0
I-1
tp85
a((F63
F236
tF31
F263.08563232421875
F0.00040970658301375806
I0
I-1
tp86
a((F130
F175
tF31
F23.844585418701172
F0.00040294902282766998
I0
I-1
tp87
a((F74
F176
tF31
F71.438209533691406
F0.0011684434721246362
I0
I-1
tp88
a((F94
F176
tF31
F105.36542510986328
F0.00042314190068282187
I0
I-1
tp89
a((F72
F179
tF31
F70.186691284179688
F0.00064619531622156501
I0
I-1
tp90
a((F66
F297
tF31
F175.92976379394531
F0.00073160312604159117
I0
I-1
tp91
a((F71
F183
tF31
F13.398420333862305
F0.0038667835760861635
I0
I-1
tp92
a((F67
F184
tF31
F203.24951171875
F0.0007378871669061482
I0
I-1
tp93
a((F69
F278
tF31
F219.4578857421875
F0.00078443973325192928
I0
I-1
tp94
a((F64
F296
tF31
F178.03315734863281
F0.00096756371203809977
I0
I-1
tp95
a((F101
F279
tF31
F32.559719085693359
F0.0019821966998279095
I0
I-1
tp96
a((F82
F295
tF31
F24.770954132080078
F0.00065080815693363547
I0
I-1
tp97
a((F50
F287
tF31
F259.74636840820312
F0.00077050318941473961
I0
I-1
tp98
a((F124
F197
tF31
F240.1734619140625
F0.0021319044753909111
I0
I-1
tp99
a((F63
F286
tF31
F256.80130004882812
F0.00047471321886405349
I0
I-1
tp100
a((F63
F284
tF31
F254.03215026855469
F0.00091799773508682847
I0
I-1
tp101
a((F99
F280
tF31
F26.994285583496094
F0.0018602684140205383
I0
I-1
tp102
a((F73
F206
tF31
F46.522235870361328
F0.0028422616887837648
I0
I-1
tp103
a((F66
F280
tF31
F251.71517944335938
F0.00056713976664468646
I0
I-1
tp104
a((F95
F264
tF31
F334.49017333984375
F0.0012016419786959887
I0
I-1
tp105
a((F66
F188
tF31
F220.90620422363281
F0.00031951753771863878
I0
I-1
tp106
a((F94
F31
tF31
F246.71403503417969
F0.00035100601962767541
I0
I-1
tp107
a((F122
F347
tF31
F61.206398010253906
F0.00036008292227052152
I0
I-1
tp108
a((F65
F233
tF31
F253.35554504394531
F0.00032392347929999232
I0
I-1
tp109
a((F126
F336
tF31
F335.58892822265625
F0.00029613680089823902
I0
I-1
tp110
a((F88.800003051757812
F37.200000762939453
tF37.200000762939453
F262.40472412109375
F0.00059559004148468375
I1
I-1
tp111
a((F90
F350.4000244140625
tF37.200000762939453
F307.6387939453125
F0.0015951723325997591
I1
I-1
tp112
a((F123.60000610351562
F345.60000610351562
tF37.200000762939453
F45.881515502929688
F0.00090768089285120368
I1
I-1
tp113
a((F73.200004577636719
F343.20001220703125
tF37.200000762939453
F100.61029815673828
F0.0034540791530162096
I1
I-1
tp114
a((F75.600006103515625
F339.60000610351562
tF37.200000762939453
F354.69891357421875
F0.001747910282574594
I1
I-1
tp115
a((F108.00000762939453
F62.400001525878906
tF37.200000762939453
F314.67156982421875
F0.001883839606307447
I1
I-1
tp116
a((F79.200004577636719
F337.20001220703125
tF37.200000762939453
F344.81997680664062
F0.0032124642748385668
I1
I-1
tp117
a((F124.80000305175781
F333.60000610351562
tF37.200000762939453
F324.7132568359375
F0.00072708749212324619
I1
I-1
tp118
a((F92.400001525878906
F68.400001525878906
tF37.200000762939453
F278.56051635742188
F0.0013013741699978709
I1
I-1
tp119
a((F94.800003051757812
F69.600006103515625
tF37.200000762939453
F275.65524291992188
F0.0011050578905269504
I1
I-1
tp120
a((F109.20000457763672
F333.60000610351562
tF37.200000762939453
F235.75144958496094
F0.001821658224798739
I1
I-1
tp121
a((F104.40000152587891
F333.60000610351562
tF37.200000762939453
F261.17227172851562
F0.0022707253228873014
I1
I-1
tp122
a((F69.600006103515625
F324
tF37.200000762939453
F193.98902893066406
F0.0016351358499377966
I1
I-1
tp123
a((F94.800003051757812
F322.80001831054688
tF37.200000762939453
F23.471311569213867
F0.0018619302427396178
I1
I-1
tp124
a((F94.800003051757812
F72
tF37.200000762939453
F311.863037109375
F0.00094006047584116459
I1
I-1
tp125
a((F99.600006103515625
F319.20001220703125
tF37.200000762939453
F39.035137176513672
F0.0032854864839464426
I1
I-1
tp126
a((F102.00000762939453
F316.80001831054688
tF37.200000762939453
F29.030189514160156
F0.0027870351914316416
I1
I-1
tp127
a((F76.800003051757812
F315.60000610351562
tF37.200000762939453
F337.50469970703125
F0.00073310470907017589
I1
I-1
tp128
a((F104.40000152587891
F76.800003051757812
tF37.200000762939453
F94.785263061523438
F0.00065915822051465511
I1
I-1
tp129
a((F94.800003051757812
F310.80001831054688
tF37.200000762939453
F26.359966278076172
F0.00068468513200059533
I1
I-1
tp130
a((F51.600002288818359
F82.800003051757812
tF37.200000762939453
F141.88400268554688
F0.00086469639791175723
I1
I-1
tp131
a((F61.200000762939453
F82.800003051757812
tF37.200000762939453
F124.06834411621094
F0.0023795641027390957
I1
I-1
tp132
a((F48
F84
tF37.200000762939453
F139.07563781738281
F0.0029417646583169699
I1
I-1
tp133
a((F72
F85.200004577636719
tF37.200000762939453
F118.53049468994141
F0.0029058319050818682
I1
I-1
tp134
a((F96
F85.200004577636719
tF37.200000762939453
F83.604461669921875
F0.0018389006145298481
I1
I-1
tp135
a((F62.400001525878906
F86.400001525878906
tF37.200000762939453
F142.16925048828125
F0.0014288477832451463
I1
I-1
tp136
a((F132
F88.800003051757812
tF37.200000762939453
F9.6342182159423828
F0.0029549740720540285
I1
I-1
tp137
a((F72
F90
tF37.200000762939453
F204.05258178710938
F0.0014672570396214724
I1
I-1
tp138
a((F61.200000762939453
F92.400001525878906
tF37.200000762939453
F176.64776611328125
F0.0010072708828374743
I1
I-1
tp139
a((F78
F296.4000244140625
tF37.200000762939453
F8.2925434112548828
F0.0024189555551856756
I1
I-1
tp140
a((F64.800003051757812
F295.20001220703125
tF37.200000762939453
F171.10597229003906
F0.00062677025562152267
I1
I-1
tp141
a((F60.000003814697266
F285.60000610351562
tF37.200000762939453
F258.6317138671875
F0.0010545680997893214
I1
I-1
tp142
a((F49.200000762939453
F285.60000610351562
tF37.200000762939453
F171.03228759765625
F0.00064832979114726186
I1
I-1
tp143
a((F79.200004577636719
F104.40000152587891
tF37.200000762939453
F330.78030395507812
F0.00084017525659874082
I1
I-1
tp144
a((F69.600006103515625
F108.00000762939453
tF37.200000762939453
F133.73947143554688
F0.0013898552861064672
I1
I-1
tp145
a((F63.600002288818359
F283.20001220703125
tF37.200000762939453
F261.18051147460938
F0.0012314384803175926
I1
I-1
tp146
a((F90
F111.60000610351562
tF37.200000762939453
F12.150679588317871
F0.0019757023546844721
I1
I-1
tp147
a((F66
F279.60000610351562
tF37.200000762939453
F249.39193725585938
F0.00063225807389244437
I1
I-1
tp148
a((F100.80000305175781
F278.4000244140625
tF37.200000762939453
F19.873680114746094
F0.0021282110828906298
I1
I-1
tp149
a((F68.400001525878906
F278.4000244140625
tF37.200000762939453
F229.41702270507812
F0.0010834195418283343
I1
I-1
tp150
a((F102.00000762939453
F118.80000305175781
tF37.200000762939453
F7.7091832160949707
F0.0010360358282923698
I1
I-1
tp151
a((F100.80000305175781
F121.20000457763672
tF37.200000762939453
F352.20791625976562
F0.0011730667902156711
I1
I-1
tp152
a((F98.400001525878906
F122.40000152587891
tF37.200000762939453
F347.58258056640625
F0.00074403296457603574
I1
I-1
tp153
a((F78
F123.60000610351562
tF37.200000762939453
F278.87326049804688
F0.00062315934337675571
I1
I-1
tp154
a((F39.600002288818359
F274.80001831054688
tF37.200000762939453
F249.12030029296875
F0.0017097792588174343
I1
I-1
tp155
a((F64.800003051757812
F124.80000305175781
tF37.200000762939453
F199.8641357421875
F0.0023454187903553247
I1
I-1
tp156
a((F72
F272.4000244140625
tF37.200000762939453
F156.3983154296875
F0.0031710152979940176
I1
I-1
tp157
a((F100.80000305175781
F268.80001831054688
tF37.200000762939453
F15.207991600036621
F0.002557405037805438
I1
I-1
tp158
a((F102.00000762939453
F266.4000244140625
tF37.200000762939453
F2.8966190814971924
F0.0018821865087375045
I1
I-1
tp159
a((F94.800003051757812
F264
tF37.200000762939453
F1.0769294500350952
F0.00098597141914069653
I1
I-1
tp160
a((F76.800003051757812
F140.40000915527344
tF37.200000762939453
F53.344013214111328
F0.0027728504501283169
I1
I-1
tp161
a((F91.200004577636719
F140.40000915527344
tF37.200000762939453
F105.36708831787109
F0.00063318607863038778
I1
I-1
tp162
a((F73.200004577636719
F142.80000305175781
tF37.200000762939453
F90.281646728515625
F0.0018495843978598714
I1
I-1
tp163
a((F64.800003051757812
F249.60000610351562
tF37.200000762939453
F162.13084411621094
F0.00071298860711976886
I1
I-1
tp164
a((F76.800003051757812
F248.40000915527344
tF37.200000762939453
F12.421758651733398
F0.0027539846487343311
I1
I-1
tp165
a((F62.400001525878906
F248.40000915527344
tF37.200000762939453
F181.29765319824219
F0.00097644684137776494
I1
I-1
tp166
a((F48
F238.80000305175781
tF37.200000762939453
F151.66993713378906
F0.00094480393454432487
I1
I-1
tp167
a((F64.800003051757812
F158.40000915527344
tF37.200000762939453
F204.76211547851562
F0.0032692074310034513
I1
I-1
tp168
a((F88.800003051757812
F237.60000610351562
tF37.200000762939453
F9.5958843231201172
F0.0018184337532147765
I1
I-1
tp169
a((F117.60000610351562
F158.40000915527344
tF37.200000762939453
F292.10003662109375
F0.0025588877033442259
I1
I-1
tp170
a((F62.400001525878906
F236.40000915527344
tF37.200000762939453
F266.53363037109375
F0.00075077556539326906
I1
I-1
tp171
a((F90
F230.40000915527344
tF37.200000762939453
F333.29177856445312
F0.0024981871247291565
I1
I-1
tp172
a((F38.400001525878906
F226.80000305175781
tF37.200000762939453
F230.56585693359375
F0.0017483573174104095
I1
I-1
tp173
a((F99.600006103515625
F224.40000915527344
tF37.200000762939453
F8.3957996368408203
F0.00081465253606438637
I1
I-1
tp174
a((F100.80000305175781
F220.80000305175781
tF37.200000762939453
F2.0526473522186279
F0.0025478587485849857
I1
I-1
tp175
a((F98.400001525878906
F220.80000305175781
tF37.200000762939453
F4.2885861396789551
F0.0039953812956809998
I1
I-1
tp176
a((F134.40000915527344
F170.40000915527344
tF37.200000762939453
F17.153966903686523
F0.00078120612306520343
I1
I-1
tp177
a((F132
F172.80000305175781
tF37.200000762939453
F13.062766075134277
F0.0013912131544202566
I1
I-1
tp178
a((F100.80000305175781
F218.40000915527344
tF37.200000762939453
F358.122314453125
F0.0023665642365813255
I1
I-1
tp179
a((F98.400001525878906
F217.20001220703125
tF37.200000762939453
F355.80978393554688
F0.0040965392254292965
I1
I-1
tp180
a((F78
F175.20001220703125
tF37.200000762939453
F75.075820922851562
F0.0015507934149354696
I1
I-1
tp181
a((F92.400001525878906
F217.20001220703125
tF37.200000762939453
F6.9675798416137695
F0.0021379368845373392
I1
I-1
tp182
a((F139.20001220703125
F213.60000610351562
tF37.200000762939453
F54.569614410400391
F0.0013813042314723134
I1
I-1
tp183
a((F73.200004577636719
F206.40000915527344
tF37.200000762939453
F89.856643676757812
F0.0029494252521544695
I1
I-1
tp184
a((F123.60000610351562
F196.80000305175781
tF37.200000762939453
F246.18060302734375
F0.001564714009873569
I1
I-1
tp185
a((F72
F180
tF37.200000762939453
F105.19432067871094
F0.0009831537026911974
I1
I-1
tp186
a((F70.800003051757812
F182.40000915527344
tF37.200000762939453
F139.52394104003906
F0.0036252420395612717
I1
I-1
tp187
a((F66
F184.80000305175781
tF37.200000762939453
F197.21401977539062
F0.0019961383659392595
I1
I-1
tp188
a((F74.400001525878906
F184.80000305175781
tF37.200000762939453
F307.11090087890625
F0.0027220293413847685
I1
I-1
tp189
a((F64.800003051757812
F232.80000305175781
tF37.200000762939453
F253.61067199707031
F0.00047369164531119168
I1
I-1
tp190
a((F81.600006103515625
F159.60000610351562
tF37.200000762939453
F295.77325439453125
F0.00047750730300322175
I1
I-1
tp191
a((F82.800003051757812
F295.20001220703125
tF37.200000762939453
F344.59051513671875
F0.00054440251551568508
I1
I-1
tp192
a((F121.20000457763672
F331.20001220703125
tF37.200000762939453
F303.29464721679688
F0.00047749935765750706
I1
I-1
tp193
a((F96
F313.20001220703125
tF37.200000762939453
F36.025539398193359
F0.00056089193094521761
I1
I-1
tp194
a((F121.20000457763672
F346.80001831054688
tF37.200000762939453
F56.278423309326172
F0.00054764916421845555
I1
I-1
tp195
a((F126.00000762939453
F342
tF37.200000762939453
F19.048328399658203
F0.00051041203550994396
I1
I-1
tp196
a((F69.600006103515625
F266.4000244140625
tF37.200000762939453
F134.84872436523438
F0.00052504590712487698
I1
I-1
tp197
a((F103.20000457763672
F74.400001525878906
tF37.200000762939453
F100.47991943359375
F0.00051149335922673345
I1
I-1
tp198
a((F58.800003051757812
F164.40000915527344
tF37.200000762939453
F187.66804504394531
F0.00045394740300253034
I1
I-1
tp199
a((F126.00000762939453
F336
tF37.200000762939453
F340.45269775390625
F0.00046592758735641837
I1
I-1
tp200
a((F89.280006408691406
F349.92001342773438
tF44.640003204345703
F358.88656616210938
F0.0013920128112658858
I2
I-1
tp201
a((F73.44000244140625
F342.72000122070312
tF44.640003204345703
F148.00489807128906
F0.0028946499805897474
I2
I-1
tp202
a((F74.8800048828125
F339.84002685546875
tF44.640003204345703
F267.65927124023438
F0.0015464684693142772
I2
I-1
tp203
a((F79.200004577636719
F338.4000244140625
tF44.640003204345703
F331.28912353515625
F0.0027034496888518333
I2
I-1
tp204
a((F109.44000244140625
F334.08001708984375
tF44.640003204345703
F290.7724609375
F0.0017195213586091995
I2
I-1
tp205
a((F105.12000274658203
F334.08001708984375
tF44.640003204345703
F292.097412109375
F0.0022965276148170233
I2
I-1
tp206
a((F67.680000305175781
F324
tF44.640003204345703
F179.09001159667969
F0.0022556199692189693
I2
I-1
tp207
a((F93.600006103515625
F322.55999755859375
tF44.640003204345703
F8.2673702239990234
F0.0017839926294982433
I2
I-1
tp208
a((F99.360000610351562
F319.68002319335938
tF44.640003204345703
F10.773311614990234
F0.0026646465994417667
I2
I-1
tp209
a((F102.24000549316406
F316.80001831054688
tF44.640003204345703
F15.505649566650391
F0.002142161363735795
I2
I-1
tp210
a((F80.639999389648438
F296.6400146484375
tF44.640003204345703
F332.35916137695312
F0.0029911673627793789
I2
I-1
tp211
a((F77.760002136230469
F296.6400146484375
tF44.640003204345703
F323.77349853515625
F0.0020155597012490034
I2
I-1
tp212
a((F63.360000610351562
F283.68002319335938
tF44.640003204345703
F263.41262817382812
F0.0019451336702331901
I2
I-1
tp213
a((F60.480003356933594
F283.68002319335938
tF44.640003204345703
F257.63388061523438
F0.0026331928092986345
I2
I-1
tp214
a((F97.920005798339844
F279.36001586914062
tF44.640003204345703
F5.5638594627380371
F0.0022849298547953367
I2
I-1
tp215
a((F47.520000457763672
F83.520004272460938
tF44.640003204345703
F155.314697265625
F0.0024892794899642467
I2
I-1
tp216
a((F60.480003356933594
F83.520004272460938
tF44.640003204345703
F148.2967529296875
F0.0022587780840694904
I2
I-1
tp217
a((F70.560005187988281
F84.960006713867188
tF44.640003204345703
F143.77566528320312
F0.0017494115745648742
I2
I-1
tp218
a((F61.920001983642578
F86.400001525878906
tF44.640003204345703
F144.73066711425781
F0.0015749293379485607
I2
I-1
tp219
a((F66.240005493164062
F86.400001525878906
tF44.640003204345703
F141.09332275390625
F0.0022682184353470802
I2
I-1
tp220
a((F95.040000915527344
F86.400001525878906
tF44.640003204345703
F63.55767822265625
F0.0017305102664977312
I2
I-1
tp221
a((F72
F89.280006408691406
tF44.640003204345703
F134.78140258789062
F0.0018203790532425046
I2
I-1
tp222
a((F131.04000854492188
F89.280006408691406
tF44.640003204345703
F350.84323120117188
F0.0025135320611298084
I2
I-1
tp223
a((F100.80000305175781
F277.92001342773438
tF44.640003204345703
F9.5159521102905273
F0.0020059836097061634
I2
I-1
tp224
a((F76.319999694824219
F275.04000854492188
tF44.640003204345703
F202.43917846679688
F0.0022608384024351835
I2
I-1
tp225
a((F70.560005187988281
F272.16000366210938
tF44.640003204345703
F186.34222412109375
F0.0025818462017923594
I2
I-1
tp226
a((F100.80000305175781
F269.27999877929688
tF44.640003204345703
F15.607192993164062
F0.0018879054114222527
I2
I-1
tp227
a((F76.319999694824219
F249.12001037597656
tF44.640003204345703
F302.03610229492188
F0.002221937058493495
I2
I-1
tp228
a((F87.840003967285156
F236.16000366210938
tF44.640003204345703
F354.9208984375
F0.0021432568319141865
I2
I-1
tp229
a((F89.280006408691406
F230.40000915527344
tF44.640003204345703
F338.21920776367188
F0.0021643317304551601
I2
I-1
tp230
a((F89.280006408691406
F110.8800048828125
tF44.640003204345703
F346.83511352539062
F0.0015038197161629796
I2
I-1
tp231
a((F97.920005798339844
F224.6400146484375
tF44.640003204345703
F359.15203857421875
F0.0015380213735625148
I2
I-1
tp232
a((F99.360000610351562
F221.760009765625
tF44.640003204345703
F2.9057736396789551
F0.0022438722662627697
I2
I-1
tp233
a((F100.80000305175781
F217.44000244140625
tF44.640003204345703
F17.194158554077148
F0.0014434281038120389
I2
I-1
tp234
a((F92.160003662109375
F217.44000244140625
tF44.640003204345703
F2.0646021366119385
F0.0016010269755497575
I2
I-1
tp235
a((F73.44000244140625
F207.36001586914062
tF44.640003204345703
F120.06157684326172
F0.0031154307071119547
I2
I-1
tp236
a((F64.800003051757812
F185.760009765625
tF44.640003204345703
F187.38510131835938
F0.0026696203276515007
I2
I-1
tp237
a((F73.44000244140625
F184.32000732421875
tF44.640003204345703
F152.31744384765625
F0.0029384756926447153
I2
I-1
tp238
a((F70.560005187988281
F181.44000244140625
tF44.640003204345703
F163.08377075195312
F0.0021457262337207794
I2
I-1
tp239
a((F72
F178.56001281738281
tF44.640003204345703
F153.54913330078125
F0.0016639261739328504
I2
I-1
tp240
a((F74.8800048828125
F141.12001037597656
tF44.640003204345703
F123.95333099365234
F0.0022468045353889465
I2
I-1
tp241
a((F77.760002136230469
F175.68000793457031
tF44.640003204345703
F61.454643249511719
F0.0017938439268618822
I2
I-1
tp242
a((F129.60000610351562
F174.24000549316406
tF44.640003204345703
F3.840435266494751
F0.0014629147481173277
I2
I-1
tp243
a((F63.360000610351562
F159.84001159667969
tF44.640003204345703
F195.20591735839844
F0.0025647375732660294
I2
I-1
tp244
a((F116.64000701904297
F158.40000915527344
tF44.640003204345703
F312.28961181640625
F0.0019133832538500428
I2
I-1
tp245
a((F47.520000457763672
F239.04000854492188
tF44.640003204345703
F154.79161071777344
F0.00065651017939671874
I2
I-1
tp246
a((F120.96000671386719
F347.04000854492188
tF44.640003204345703
F28.972850799560547
F0.0010010774713009596
I2
I-1
tp247
a((F123.84000396728516
F345.60000610351562
tF44.640003204345703
F32.587459564208984
F0.0010334833059459925
I2
I-1
tp248
a((F125.28000640869141
F342.72000122070312
tF44.640003204345703
F20.35807991027832
F0.00099057250190526247
I2
I-1
tp249
a((F100.80000305175781
F273.60000610351562
tF44.640003204345703
F14.630876541137695
F0.00069115229416638613
I2
I-1
tp250
a((F60.480003356933594
F92.160003662109375
tF44.640003204345703
F160.59675598144531
F0.00067664630478248
I2
I-1
tp251
a((F108.00000762939453
F61.920001983642578
tF44.640003204345703
F328.80319213867188
F0.0013761591399088502
I2
I-1
tp252
a((F69.120002746582031
F279.36001586914062
tF44.640003204345703
F225.45426940917969
F0.00099940237123519182
I2
I-1
tp253
a((F123.84000396728516
F334.08001708984375
tF44.640003204345703
F327.383544921875
F0.0010434533469378948
I2
I-1
tp254
a((F132.48001098632812
F172.80000305175781
tF44.640003204345703
F0.13927672803401947
F0.0012614118168130517
I2
I-1
tp255
a((F93.600006103515625
F263.52001953125
tF44.640003204345703
F14.627457618713379
F0.0009249339927919209
I2
I-1
tp256
a((F93.600006103515625
F69.120002746582031
tF44.640003204345703
F162.89689636230469
F0.0008944877190515399
I2
I-1
tp257
a((F120.96000671386719
F331.20001220703125
tF44.640003204345703
F303.00640869140625
F0.00075019028736278415
I2
I-1
tp258
a((F102.24000549316406
F118.08000183105469
tF44.640003204345703
F14.669949531555176
F0.0010071187280118465
I2
I-1
tp259
a((F80.639999389648438
F105.12000274658203
tF44.640003204345703
F328.29400634765625
F0.00076047808397561312
I2
I-1
tp260
a((F100.80000305175781
F120.96000671386719
tF44.640003204345703
F353.38519287109375
F0.0012369434116408229
I2
I-1
tp261
a((F64.800003051757812
F280.80001831054688
tF44.640003204345703
F250.36764526367188
F0.00072622153675183654
I2
I-1
tp262
a((F64.800003051757812
F326.8800048828125
tF44.640003204345703
F187.01412963867188
F0.0012555352877825499
I2
I-1
tp263
a((F44.640003204345703
F80.639999389648438
tF44.640003204345703
F156.06686401367188
F0.0011357424082234502
I2
I-1
tp264
a((F102.24000549316406
F264.96002197265625
tF44.640003204345703
F4.515709400177002
F0.0010947800474241376
I2
I-1
tp265
a((F97.920005798339844
F122.40000152587891
tF44.640003204345703
F345.49114990234375
F0.0011915272334590554
I2
I-1
tp266
a((F64.800003051757812
F233.28001403808594
tF44.640003204345703
F252.8116455078125
F0.00071887613739818335
I2
I-1
tp267
a((F64.800003051757812
F188.6400146484375
tF44.640003204345703
F193.39363098144531
F0.0010304262395948172
I2
I-1
tp268
a((F93.600006103515625
F72
tF44.640003204345703
F107.53467559814453
F0.00073513406096026301
I2
I-1
tp269
a((F69.120002746582031
F108.00000762939453
tF44.640003204345703
F166.96060180664062
F0.00095129263354465365
I2
I-1
tp270
a((F63.360000610351562
F236.16000366210938
tF44.640003204345703
F266.23223876953125
F0.0010154430055990815
I2
I-1
tp271
a((F93.600006103515625
F309.60000610351562
tF44.640003204345703
F14.077756881713867
F0.00076228816760703921
I2
I-1
tp272
a((F77.760002136230469
F277.92001342773438
tF44.640003204345703
F173.96119689941406
F0.00060014898190274835
I2
I-1
tp273
a((F77.760002136230469
F123.84000396728516
tF44.640003204345703
F225.103515625
F0.00065017194719985127
I2
I-1
tp274
a((F125.28000640869141
F336.96002197265625
tF44.640003204345703
F346.348388671875
F0.00062731490470468998
I2
I-1
tp275
a((F93.31201171875
F260.92803955078125
tF53.568004608154297
F11.101685523986816
F0.00084775325376540422
I3
I-1
tp276
a((F108.864013671875
F62.2080078125
tF53.568004608154297
F332.53643798828125
F0.00087481783702969551
I3
I-1
tp277
a((F124.416015625
F343.87203979492188
tF53.568004608154297
F6.7311344146728516
F0.0013680767733603716
I3
I-1
tp278
a((F101.95201110839844
F269.56802368164062
tF53.568004608154297
F6.7886557579040527
F0.0010080088395625353
I3
I-1
tp279
a((F74.304008483886719
F205.63201904296875
tF53.568004608154297
F167.82734680175781
F0.0024572741240262985
I3
I-1
tp280
a((F88.128005981445312
F235.00802612304688
tF53.568004608154297
F347.19439697265625
F0.001906811841763556
I3
I-1
tp281
a((F63.936004638671875
F235.00802612304688
tF53.568004608154297
F256.14688110351562
F0.0016311734216287732
I3
I-1
tp282
a((F89.856010437011719
F229.82402038574219
tF53.568004608154297
F349.53204345703125
F0.0023989782202988863
I3
I-1
tp283
a((F60.480007171630859
F82.944007873535156
tF53.568004608154297
F180.83074951171875
F0.0019284855807200074
I3
I-1
tp284
a((F74.304008483886719
F342.14404296875
tF53.568004608154297
F152.66596984863281
F0.0026714066043496132
I3
I-1
tp285
a((F63.936004638671875
F86.400009155273438
tF53.568004608154297
F161.99807739257812
F0.0019250180339440703
I3
I-1
tp286
a((F95.040008544921875
F86.400009155273438
tF53.568004608154297
F63.292732238769531
F0.0015165610238909721
I3
I-1
tp287
a((F72.576004028320312
F88.128005981445312
tF53.568004608154297
F133.06532287597656
F0.0020477243233472109
I3
I-1
tp288
a((F69.120010375976562
F271.2960205078125
tF53.568004608154297
F232.38002014160156
F0.0025754265952855349
I3
I-1
tp289
a((F65.664009094238281
F274.75201416015625
tF53.568004608154297
F224.32395935058594
F0.0026667732745409012
I3
I-1
tp290
a((F79.488006591796875
F338.68801879882812
tF53.568004608154297
F7.1201825141906738
F0.002620132640004158
I3
I-1
tp291
a((F110.59201049804688
F333.5040283203125
tF53.568004608154297
F329.36422729492188
F0.0016941701760515571
I3
I-1
tp292
a((F105.40801239013672
F333.5040283203125
tF53.568004608154297
F325.79522705078125
F0.0018910542130470276
I3
I-1
tp293
a((F76.032005310058594
F274.75201416015625
tF53.568004608154297
F273.77859497070312
F0.001723512657918036
I3
I-1
tp294
a((F70.848007202148438
F108.864013671875
tF53.568004608154297
F192.34860229492188
F0.00092207826673984528
I3
I-1
tp295
a((F124.416015625
F331.77603149414062
tF53.568004608154297
F323.86514282226562
F0.00088177958969026804
I3
I-1
tp296
a((F89.856010437011719
F110.59201049804688
tF53.568004608154297
F342.79925537109375
F0.0010019814362749457
I3
I-1
tp297
a((F122.68801116943359
F195.26402282714844
tF53.568004608154297
F59.592208862304688
F0.00099538196809589863
I3
I-1
tp298
a((F101.95201110839844
F117.50401306152344
tF53.568004608154297
F21.035253524780273
F0.0014167720219120383
I3
I-1
tp299
a((F98.496009826660156
F278.20803833007812
tF53.568004608154297
F4.2842950820922852
F0.0021956467535346746
I3
I-1
tp300
a((F98.496009826660156
F122.68801116943359
tF53.568004608154297
F345.86752319335938
F0.0018976354040205479
I3
I-1
tp301
a((F63.936004638671875
F124.416015625
tF53.568004608154297
F177.16856384277344
F0.0017646844498813152
I3
I-1
tp302
a((F63.936004638671875
F184.89601135253906
tF53.568004608154297
F181.50456237792969
F0.0026726310607045889
I3
I-1
tp303
a((F77.760009765625
F248.83203125
tF53.568004608154297
F301.17608642578125
F0.002053750678896904
I3
I-1
tp304
a((F120.96001434326172
F330.04803466796875
tF53.568004608154297
F318.37680053710938
F0.0010871959384530783
I3
I-1
tp305
a((F76.032005310058594
F141.69601440429688
tF53.568004608154297
F173.18281555175781
F0.0022999302018433809
I3
I-1
tp306
a((F65.664009094238281
F279.93603515625
tF53.568004608154297
F235.69131469726562
F0.0011524335714057088
I3
I-1
tp307
a((F74.304008483886719
F181.44001770019531
tF53.568004608154297
F168.77166748046875
F0.0032579060643911362
I3
I-1
tp308
a((F69.120010375976562
F179.71202087402344
tF53.568004608154297
F180.94511413574219
F0.0027583523187786341
I3
I-1
tp309
a((F91.584007263183594
F216.00001525878906
tF53.568004608154297
F7.9762115478515625
F0.0013542911037802696
I3
I-1
tp310
a((F117.50401306152344
F157.24801635742188
tF53.568004608154297
F323.52880859375
F0.0012993846321478486
I3
I-1
tp311
a((F63.936004638671875
F158.97601318359375
tF53.568004608154297
F177.90031433105469
F0.0021770382300019264
I3
I-1
tp312
a((F100.22400665283203
F221.18402099609375
tF53.568004608154297
F9.5023078918457031
F0.0016489650588482618
I3
I-1
tp313
a((F63.936004638671875
F326.592041015625
tF53.568004608154297
F175.96356201171875
F0.0013078085612505674
I3
I-1
tp314
a((F72.576004028320312
F177.98402404785156
tF53.568004608154297
F188.15530395507812
F0.0023520751856267452
I3
I-1
tp315
a((F67.392005920410156
F323.13601684570312
tF53.568004608154297
F170.91278076171875
F0.0020285323262214661
I3
I-1
tp316
a((F93.31201171875
F321.40802001953125
tF53.568004608154297
F3.0201241970062256
F0.0017561062704771757
I3
I-1
tp317
a((F60.480007171630859
F281.66403198242188
tF53.568004608154297
F217.10264587402344
F0.0024333063047379255
I3
I-1
tp318
a((F76.032005310058594
F176.25601196289062
tF53.568004608154297
F212.20416259765625
F0.0031482898630201817
I3
I-1
tp319
a((F79.488006591796875
F295.488037109375
tF53.568004608154297
F322.83102416992188
F0.0018982052570208907
I3
I-1
tp320
a((F98.496009826660156
F224.6400146484375
tF53.568004608154297
F353.730224609375
F0.0013189287856221199
I3
I-1
tp321
a((F76.032005310058594
F120.96001434326172
tF53.568004608154297
F161.1053466796875
F0.00059176952345296741
I3
I-1
tp322
a((F95.040008544921875
F311.0400390625
tF53.568004608154297
F5.5280466079711914
F0.00067130697425454855
I3
I-1
tp323
a((F69.120010375976562
F229.82402038574219
tF53.568004608154297
F250.48800659179688
F0.0006589049007743597
I3
I-1
tp324
a((F89.856010437011719
F321.40802001953125
tF53.568004608154297
F12.268289566040039
F0.00071862834738567472
I3
I-1
tp325
a((F57.024005889892578
F167.61601257324219
tF53.568004608154297
F174.7183837890625
F0.00063728593522682786
I3
I-1
tp326
a((F101.95201110839844
F262.65603637695312
tF53.568004608154297
F8.9686365127563477
F0.00079732784070074558
I3
I-1
tp327
a((F107.13600921630859
F340.41604614257812
tF53.568004608154297
F322.58566284179688
F0.00062873016577214003
I3
I-1
tp328
a((F77.760009765625
F278.20803833007812
tF53.568004608154297
F331.85806274414062
F0.00062867684755474329
I3
I-1
tp329
a((F60.480007171630859
F328.32003784179688
tF53.568004608154297
F178.86222839355469
F0.00078650354407727718
I3
I-1
tp330
a((F93.31201171875
F307.58401489257812
tF53.568004608154297
F5.178525447845459
F0.00073965423507615924
I3
I-1
tp331
a((F91.584007263183594
F67.392005920410156
tF53.568004608154297
F125.42465209960938
F0.00049663078971207142
I3
I-1
tp332
a((F81.216011047363281
F105.40801239013672
tF53.568004608154297
F334.95089721679688
F0.00056902476353570819
I3
I-1
tp333
a((F58.752006530761719
F164.16001892089844
tF53.568004608154297
F175.05149841308594
F0.00057253800332546234
I3
I-1
tp334
a((F58.752006530761719
F331.77603149414062
tF53.568004608154297
F180.17845153808594
F0.00053007499082013965
I3
I-1
tp335
a((F70.848007202148438
F266.11203002929688
tF53.568004608154297
F170.83514404296875
F0.00047093571629375219
I3
I-1
tp336
a((F79.488006591796875
F124.416015625
tF53.568004608154297
F125.77347564697266
F0.00047823591739870608
I3
I-1
tp337
a((F60.480007171630859
F91.584007263183594
tF53.568004608154297
F153.18327331542969
F0.00046631964505650103
I3
I-1
tp338
a((F89.164810180664062
F68.428810119628906
tF64.281608581542969
F119.66987609863281
F0.000290701660560444
I4
I-1
tp339
a((F99.532814025878906
F72.576011657714844
tF64.281608581542969
F46.210014343261719
F0.0003024431352969259
I4
I-1
tp340
a((F105.75361633300781
F78.79681396484375
tF64.281608581542969
F20.870395660400391
F0.00034400992444716394
I4
I-1
tp341
a((F72.576011657714844
F85.017608642578125
tF64.281608581542969
F169.07952880859375
F0.00135725864674896
I4
I-1
tp342
a((F66.355209350585938
F323.48165893554688
tF64.281608581542969
F168.84573364257812
F0.0021352127660065889
I4
I-1
tp343
a((F95.385612487792969
F85.017608642578125
tF64.281608581542969
F44.333381652832031
F0.0012478228891268373
I4
I-1
tp344
a((F72.576011657714844
F89.164810180664062
tF64.281608581542969
F161.51179504394531
F0.0013392793480306864
I4
I-1
tp345
a((F93.31201171875
F321.40805053710938
tF64.281608581542969
F352.44403076171875
F0.0014644633047282696
I4
I-1
tp346
a((F76.723213195800781
F317.26083374023438
tF64.281608581542969
F93.754753112792969
F0.00033081200672313571
I4
I-1
tp347
a((F80.870414733886719
F105.75361633300781
tF64.281608581542969
F40.252334594726562
F0.0004926660330966115
I4
I-1
tp348
a((F70.502410888671875
F109.90081787109375
tF64.281608581542969
F198.03404235839844
F0.0007274803938344121
I4
I-1
tp349
a((F87.091209411621094
F109.90081787109375
tF64.281608581542969
F2.5952837467193604
F0.00089561403729021549
I4
I-1
tp350
a((F101.60641479492188
F315.187255859375
tF64.281608581542969
F340.38485717773438
F0.0016158052021637559
I4
I-1
tp351
a((F99.532814025878906
F120.26881408691406
tF64.281608581542969
F7.9634599685668945
F0.0015129342209547758
I4
I-1
tp352
a((F74.649612426757812
F122.34241485595703
tF64.281608581542969
F161.42060852050781
F0.00045269681140780449
I4
I-1
tp353
a((F93.31201171875
F141.00482177734375
tF64.281608581542969
F337.4049072265625
F0.00035175637458451092
I4
I-1
tp354
a((F74.649612426757812
F143.07841491699219
tF64.281608581542969
F188.82733154296875
F0.0017702816985547543
I4
I-1
tp355
a((F93.31201171875
F311.0400390625
tF64.281608581542969
F357.21133422851562
F0.00079616374569013715
I4
I-1
tp356
a((F78.79681396484375
F157.5936279296875
tF64.281608581542969
F143.84205627441406
F0.00042560033034533262
I4
I-1
tp357
a((F82.944015502929688
F159.66722106933594
tF64.281608581542969
F123.39694213867188
F0.00030104926554486156
I4
I-1
tp358
a((F78.79681396484375
F296.52484130859375
tF64.281608581542969
F2.2709846496582031
F0.0016579900402575731
I4
I-1
tp359
a((F64.281608581542969
F282.0096435546875
tF64.281608581542969
F169.51637268066406
F0.0016470184782519937
I4
I-1
tp360
a((F99.532814025878906
F275.78884887695312
tF64.281608581542969
F2.5512256622314453
F0.0020278769079595804
I4
I-1
tp361
a((F64.281608581542969
F275.78884887695312
tF64.281608581542969
F251.130615234375
F0.0025897929444909096
I4
I-1
tp362
a((F76.723213195800781
F176.25602722167969
tF64.281608581542969
F202.31913757324219
F0.0027705896645784378
I4
I-1
tp363
a((F97.459213256835938
F178.32962036132812
tF64.281608581542969
F2.2083218097686768
F0.00029102462576702237
I4
I-1
tp364
a((F66.355209350585938
F180.40322875976562
tF64.281608581542969
F184.44290161132812
F0.0031436905264854431
I4
I-1
tp365
a((F74.649612426757812
F184.55043029785156
tF64.281608581542969
F176.11439514160156
F0.0022412524558603764
I4
I-1
tp366
a((F78.79681396484375
F273.71524047851562
tF64.281608581542969
F13.040431022644043
F0.00043124164221808314
I4
I-1
tp367
a((F76.723213195800781
F188.6976318359375
tF64.281608581542969
F148.04922485351562
F0.00057663506595417857
I4
I-1
tp368
a((F99.532814025878906
F269.56802368164062
tF64.281608581542969
F0.71672886610031128
F0.00078808987746015191
I4
I-1
tp369
a((F80.870414733886719
F205.28642272949219
tF64.281608581542969
F115.00608825683594
F0.00075476965866982937
I4
I-1
tp370
a((F74.649612426757812
F207.36003112792969
tF64.281608581542969
F179.05155944824219
F0.0022609434090554714
I4
I-1
tp371
a((F70.502410888671875
F267.49444580078125
tF64.281608581542969
F158.35073852539062
F0.00075720623135566711
I4
I-1
tp372
a((F99.532814025878906
F213.58082580566406
tF64.281608581542969
F36.55859375
F0.0014354920713230968
I4
I-1
tp373
a((F89.164810180664062
F215.65443420410156
tF64.281608581542969
F19.794265747070312
F0.0011438608635216951
I4
I-1
tp374
a((F101.60641479492188
F263.34722900390625
tF64.281608581542969
F4.9988694190979004
F0.00049690919695422053
I4
I-1
tp375
a((F99.532814025878906
F221.87522888183594
tF64.281608581542969
F19.988256454467773
F0.0013371551176533103
I4
I-1
tp376
a((F97.459213256835938
F228.09603881835938
tF64.281608581542969
F1.5223608016967773
F0.00045937669347040355
I4
I-1
tp377
a((F68.428810119628906
F230.16963195800781
tF64.281608581542969
F254.80142211914062
F0.0015746770659461617
I4
I-1
tp378
a((F89.164810180664062
F230.16963195800781
tF64.281608581542969
F354.35433959960938
F0.002640644321218133
I4
I-1
tp379
a((F64.281608581542969
F232.24322509765625
tF64.281608581542969
F247.76670837402344
F0.001104275113902986
I4
I-1
tp380
a((F91.238410949707031
F261.27365112304688
tF64.281608581542969
F4.645510196685791
F0.00078363512875512242
I4
I-1
tp381
a((F87.091209411621094
F234.31683349609375
tF64.281608581542969
F339.89859008789062
F0.0024327635765075684
I4
I-1
tp382
a((F64.281608581542969
F236.39042663574219
tF64.281608581542969
F221.41485595703125
F0.0018938597058877349
I4
I-1
tp383
a((F76.723213195800781
F248.83203125
tF64.281608581542969
F338.77017211914062
F0.001412076991982758
I4
I-1
tp384
a((F101.60641479492188
F111.97441864013672
tF64.281608581542969
F4.3677763938903809
F0.00019788565987255424
I4
I-1
tp385
a((F91.238410949707031
F277.8624267578125
tF64.281608581542969
F3.2847764492034912
F0.00027293548919260502
I4
I-1
tp386
a((F78.79681396484375
F279.93603515625
tF64.281608581542969
F346.224609375
F0.00021468602062668651
I4
I-1
tp387
a((F72.576011657714844
F149.29922485351562
tF64.281608581542969
F186.37648010253906
F0.00024223234504461288
I4
I-1
tp388
a((F64.281608581542969
F294.45123291015625
tF64.281608581542969
F154.16294860839844
F8.6087733507156372e-05
I4
I-1
tp389
a((F76.723213195800781
F232.24322509765625
tF64.281608581542969
F305.5623779296875
F5.4119489504955709e-05
I4
I-1
tp390
a((F87.091217041015625
F84.602897644042969
tF77.137939453125
F93.09716796875
F-0.00012218444317113608
I5
I-1
tp391
a((F94.556182861328125
F87.091217041015625
tF77.137939453125
F58.820274353027344
F0.0015909817302599549
I5
I-1
tp392
a((F94.556182861328125
F99.532821655273438
tF77.137939453125
F32.353855133056641
F-2.6985027943737805e-05
I5
I-1
tp393
a((F87.091217041015625
F109.48610687255859
tF77.137939453125
F39.085891723632812
F0.0008235190762206912
I5
I-1
tp394
a((F99.532821655273438
F119.43939208984375
tF77.137939453125
F8.7618007659912109
F0.002045121043920517
I5
I-1
tp395
a((F94.556182861328125
F141.83427429199219
tF77.137939453125
F326.2076416015625
F0.00030797207728028297
I5
I-1
tp396
a((F79.626258850097656
F156.76419067382812
tF77.137939453125
F177.36099243164062
F0.00061510264640673995
I5
I-1
tp397
a((F92.067863464355469
F159.25251770019531
tF77.137939453125
F324.93826293945312
F5.4379675020754803e-06
I5
I-1
tp398
a((F97.044502258300781
F161.7408447265625
tF77.137939453125
F337.67904663085938
F-0.00014584056043531746
I5
I-1
tp399
a((F77.137939453125
F176.67076110839844
tF77.137939453125
F181.98782348632812
F0.0022485782392323017
I5
I-1
tp400
a((F99.532821655273438
F179.15908813476562
tF77.137939453125
F57.429477691650391
F0.00024549092631787062
I5
I-1
tp401
a((F77.137939453125
F189.11236572265625
tF77.137939453125
F168.17628479003906
F0.00065172999165952206
I5
I-1
tp402
a((F87.091217041015625
F213.99557495117188
tF77.137939453125
F25.766294479370117
F0.00091728154802694917
I5
I-1
tp403
a((F99.532821655273438
F213.99557495117188
tF77.137939453125
F44.068538665771484
F0.001389994053170085
I5
I-1
tp404
a((F99.532821655273438
F221.46052551269531
tF77.137939453125
F29.268484115600586
F0.0011774211889132857
I5
I-1
tp405
a((F87.091217041015625
F228.92549133300781
tF77.137939453125
F352.70452880859375
F0.002175597008317709
I5
I-1
tp406
a((F87.091217041015625
F233.90213012695312
tF77.137939453125
F343.985595703125
F0.0025060584302991629
I5
I-1
tp407
a((F77.137939453125
F248.83206176757812
tF77.137939453125
F338.59274291992188
F0.0011674871202558279
I5
I-1
tp408
a((F89.579544067382812
F261.27365112304688
tF77.137939453125
F4.5886778831481934
F0.00060645613120868802
I5
I-1
tp409
a((F97.044502258300781
F276.20358276367188
tF77.137939453125
F359.79913330078125
F0.0022103837691247463
I5
I-1
tp410
a((F89.579544067382812
F281.18023681640625
tF77.137939453125
F353.21014404296875
F0.0003499531012494117
I5
I-1
tp411
a((F97.044502258300781
F286.1568603515625
tF77.137939453125
F356.68035888671875
F0.0016446004156023264
I5
I-1
tp412
a((F79.626258850097656
F298.59848022460938
tF77.137939453125
F21.863525390625
F0.0015070356894284487
I5
I-1
tp413
a((F89.579544067382812
F303.57510375976562
tF77.137939453125
F4.1688895225524902
F0.00051641464233398438
I5
I-1
tp414
a((F92.067863464355469
F308.5517578125
tF77.137939453125
F358.71328735351562
F0.00061406259192153811
I5
I-1
tp415
a((F79.626258850097656
F318.50503540039062
tF77.137939453125
F18.782752990722656
F0.00040306663140654564
I5
I-1
tp416
a((F92.067863464355469
F320.99334716796875
tF77.137939453125
F340.15838623046875
F0.0016051013953983784
I5
I-1
tp417
a.