(lp1
((F69
F31
tF31
F219.20709228515625
F0.00034273328492417932
I0
I-1
tp2
a((F84
F368
tF31
F66.871414184570312
F0.00035382100031711161
I0
I-1
tp3
a((F80
F34
tF31
F274.8721923828125
F0.002784323412925005
I0
I-1
tp4
a((F124
F366
tF31
F26.251533508300781
F0.00082507613115012646
I0
I-1
tp5
a((F87
F366
tF31
F57.251125335693359
F0.00099398265592753887
I0
I-1
tp6
a((F87
F48
tF31
F96.278244018554688
F0.0018511697417125106
I0
I-1
tp7
a((F89
F364
tF31
F62.58837890625
F0.00065669481409713626
I0
I-1
tp8
a((F69
F336
tF31
F85.374740600585938
F0.0026238188147544861
I0
I-1
tp9
a((F56
F52
tF31
F241.32565307617188
F0.00037874095141887665
I0
I-1
tp10
a((F83
F327
tF31
F58.214942932128906
F0.00099108926951885223
I0
I-1
tp11
a((F53
F53
tF31
F224.07049560546875
F0.00049749115714803338
I0
I-1
tp12
a((F74
F324
tF31
F231.458984375
F0.00078450515866279602
I0
I-1
tp13
a((F105
F56
tF31
F201.10910034179688
F0.0034658180084079504
I0
I-1
tp14
a((F76
F323
tF31
F246.79103088378906
F0.0011201987508684397
I0
I-1
tp15
a((F102
F59
tF31
F214.13485717773438
F0.0010963723761960864
I0
I-1
tp16
a((F125
F317
tF31
F303.8485107421875
F0.0011279575992375612
I0
I-1
tp17
a((F127
F316
tF31
F303.41372680664062
F0.0018001621356233954
I0
I-1
tp18
a((F115
F316
tF31
F300.528564453125
F0.0032913486938923597
I0
I-1
tp19
a((F99
F62
tF31
F195.32046508789062
F0.0035530559252947569
I0
I-1
tp20
a((F74
F64
tF31
F62.396682739257812
F0.0030448611360043287
I0
I-1
tp21
a((F67
F65
tF31
F46.131584167480469
F0.0017508184537291527
I0
I-1
tp22
a((F54
F66
tF31
F131.54084777832031
F0.00064962025498971343
I0
I-1
tp23
a((F110
F316
tF31
F298.55596923828125
F0.0012482182355597615
I0
I-1
tp24
a((F129
F314
tF31
F300.16915893554688
F0.00326584093272686
I0
I-1
tp25
a((F106
F314
tF31
F275.87896728515625
F0.003004895057529211
I0
I-1
tp26
a((F62
F68
tF31
F90.075798034667969
F0.00044585519935935736
I0
I-1
tp27
a((F82
F314
tF31
F273.984375
F0.0024243916850537062
I0
I-1
tp28
a((F116
F313
tF31
F319.53683471679688
F0.0018432437209412456
I0
I-1
tp29
a((F108
F74
tF31
F33.512947082519531
F0.0019777927082031965
I0
I-1
tp30
a((F43
F313
tF31
F206.98411560058594
F0.00072906888090074062
I0
I-1
tp31
a((F83
F76
tF31
F227.39305114746094
F0.0028098530601710081
I0
I-1
tp32
a((F107
F312
tF31
F318.809814453125
F0.0025024127680808306
I0
I-1
tp33
a((F81
F78
tF31
F237.20376586914062
F0.0039080400019884109
I0
I-1
tp34
a((F79
F80
tF31
F228.18568420410156
F0.0042131752707064152
I0
I-1
tp35
a((F76
F81
tF31
F214.51400756835938
F0.003492206335067749
I0
I-1
tp36
a((F102
F83
tF31
F293.07095336914062
F0.00095035671256482601
I0
I-1
tp37
a((F82
F85
tF31
F217.17153930664062
F0.00038845400558784604
I0
I-1
tp38
a((F44
F310
tF31
F218.65992736816406
F0.0022546062245965004
I0
I-1
tp39
a((F106
F309
tF31
F88.828292846679688
F0.0017031783936545253
I0
I-1
tp40
a((F46
F309
tF31
F211.99732971191406
F0.0025885053910315037
I0
I-1
tp41
a((F112
F102
tF31
F358.78482055664062
F0.00075263541657477617
I0
I-1
tp42
a((F100
F103
tF31
F224.80645751953125
F0.0027588296215981245
I0
I-1
tp43
a((F96
F104
tF31
F204.85848999023438
F0.00061598565662279725
I0
I-1
tp44
a((F98
F104
tF31
F217.58634948730469
F0.0034316980745643377
I0
I-1
tp45
a((F128
F112
tF31
F81.799140930175781
F0.00078801345080137253
I0
I-1
tp46
a((F114
F116
tF31
F73.190650939941406
F0.00040130436536855996
I0
I-1
tp47
a((F79
F119
tF31
F207.08541870117188
F0.001909579848870635
I0
I-1
tp48
a((F117
F306
tF31
F13.495803833007812
F0.0016737229889258742
I0
I-1
tp49
a((F118
F304
tF31
F16.905118942260742
F0.00067094835685566068
I0
I-1
tp50
a((F112
F119
tF31
F71.812881469726562
F0.00059658236568793654
I0
I-1
tp51
a((F77
F120
tF31
F212.73258972167969
F0.0021525605116039515
I0
I-1
tp52
a((F98
F294
tF31
F243.00454711914062
F0.0015626868698745966
I0
I-1
tp53
a((F108
F291
tF31
F265.43276977539062
F0.0023877026978880167
I0
I-1
tp54
a((F109
F121
tF31
F38.893363952636719
F0.00079196784645318985
I0
I-1
tp55
a((F76
F122
tF31
F215.81867980957031
F0.0021940995939075947
I0
I-1
tp56
a((F88
F290
tF31
F140.46453857421875
F0.00062267197063192725
I0
I-1
tp57
a((F109
F125
tF31
F343.6937255859375
F0.0011795478640124202
I0
I-1
tp58
a((F106
F126
tF31
F329.15802001953125
F0.0036521956790238619
I0
I-1
tp59
a((F78
F130
tF31
F188.30728149414062
F0.0034932440612465143
I0
I-1
tp60
a((F76
F132
tF31
F177.43238830566406
F0.0026538546662777662
I0
I-1
tp61
a((F109
F133
tF31
F300.32464599609375
F0.00067168619716539979
I0
I-1
tp62
a((F83
F135
tF31
F154.24929809570312
F0.0011845143744722009
I0
I-1
tp63
a((F109
F288
tF31
F290.49566650390625
F0.00042007173760794103
I0
I-1
tp64
a((F87
F287
tF31
F215.38760375976562
F0.0023174476809799671
I0
I-1
tp65
a((F75
F280
tF31
F194.49320983886719
F0.00059281731955707073
I0
I-1
tp66
a((F79
F276
tF31
F180.50657653808594
F0.00047629690379835665
I0
I-1
tp67
a((F101
F275
tF31
F100.12204742431641
F0.00062746240291744471
I0
I-1
tp68
a((F112
F148
tF31
F131.90518188476562
F0.00054360920330509543
I0
I-1
tp69
a((F102
F150
tF31
F228.18281555175781
F0.0032189213670790195
I0
I-1
tp70
a((F116
F150
tF31
F26.781970977783203
F0.0010340700391680002
I0
I-1
tp71
a((F113
F274
tF31
F25.358501434326172
F0.0027520435396581888
I0
I-1
tp72
a((F130
F160
tF31
F103.37833404541016
F0.0013155331835150719
I0
I-1
tp73
a((F115
F163
tF31
F83.103034973144531
F0.00040602416265755892
I0
I-1
tp74
a((F113
F166
tF31
F73.206733703613281
F0.00037862290628254414
I0
I-1
tp75
a((F88
F169
tF31
F149.0723876953125
F0.0033808243460953236
I0
I-1
tp76
a((F32
F267
tF31
F239.68902587890625
F0.0010175128700211644
I0
I-1
tp77
a((F102
F259
tF31
F247.9794921875
F0.0034174844622612
I0
I-1
tp78
a((F87
F259
tF31
F278.36712646484375
F0.00083815195830538869
I0
I-1
tp79
a((F105
F256
tF31
F234.61065673828125
F0.0014959590043872595
I0
I-1
tp80
a((F78
F174
tF31
F187.21809387207031
F0.00082099769497290254
I0
I-1
tp81
a((F78
F177
tF31
F182.46974182128906
F0.0034641125239431858
I0
I-1
tp82
a((F80
F178
tF31
F181.10592651367188
F0.0043372153304517269
I0
I-1
tp83
a((F78
F180
tF31
F177.09878540039062
F0.0036962924059480429
I0
I-1
tp84
a((F83
F180
tF31
F175.93501281738281
F0.0020665945485234261
I0
I-1
tp85
a((F113
F240
tF31
F19.035667419433594
F0.0037952803540974855
I0
I-1
tp86
a((F80
F181
tF31
F173.99092102050781
F0.003516701515763998
I0
I-1
tp87
a((F76
F182
tF31
F177.14337158203125
F0.0019120887154713273
I0
I-1
tp88
a((F98
F240
tF31
F124.52092742919922
F0.00054945866577327251
I0
I-1
tp89
a((F59
F240
tF31
F86.038520812988281
F0.0026112096384167671
I0
I-1
tp90
a((F39
F185
tF31
F239.36001586914062
F0.00069693254772573709
I0
I-1
tp91
a((F96
F239
tF31
F119.46380615234375
F0.0005039878305979073
I0
I-1
tp92
a((F44
F228
tF31
F209.47825622558594
F0.00076362903928384185
I0
I-1
tp93
a((F45
F226
tF31
F209.53211975097656
F0.0011005010455846786
I0
I-1
tp94
a((F36
F187
tF31
F219.25799560546875
F0.0014230102533474565
I0
I-1
tp95
a((F100
F224
tF31
F263.05615234375
F0.0017913742922246456
I0
I-1
tp96
a((F48
F224
tF31
F203.95993041992188
F0.00041076002526097
I0
I-1
tp97
a((F35
F189
tF31
F207.07427978515625
F0.00092627585399895906
I0
I-1
tp98
a((F104
F223
tF31
F251.53054809570312
F0.0010829303646460176
I0
I-1
tp99
a((F105
F193
tF31
F226.5369873046875
F0.0026619264390319586
I0
I-1
tp100
a((F84
F223
tF31
F285.275390625
F0.00041314167901873589
I0
I-1
tp101
a((F106
F221
tF31
F253.00990295410156
F0.00090299430303275585
I0
I-1
tp102
a((F107
F216
tF31
F193.31401062011719
F0.0031992788426578045
I0
I-1
tp103
a((F54
F202
tF31
F60.603313446044922
F0.0022108419798314571
I0
I-1
tp104
a((F111
F215
tF31
F22.837305068969727
F0.00072816183092072606
I0
I-1
tp105
a((F118
F70
tF31
F27.597707748413086
F0.00021841711713932455
I0
I-1
tp106
a((F118
F235
tF31
F15.880927085876465
F0.00032066204585134983
I0
I-1
tp107
a((F112
F211
tF31
F41.172512054443359
F0.00031993532320484519
I0
I-1
tp108
a((F81
F221
tF31
F263.945556640625
F0.0003144949150737375
I0
I-1
tp109
a((F147
F137
tF31
F63.356834411621094
F0.00032610149355605245
I0
I-1
tp110
a((F88.800003051757812
F361.20001220703125
tF37.200000762939453
F82.480072021484375
F0.00063609046628698707
I1
I-1
tp111
a((F87.600006103515625
F48
tF37.200000762939453
F127.29197692871094
F0.0016114325262606144
I1
I-1
tp112
a((F69.600006103515625
F336
tF37.200000762939453
F134.77812194824219
F0.0018861365970224142
I1
I-1
tp113
a((F85.200004577636719
F330
tF37.200000762939453
F98.643898010253906
F0.001362402574159205
I1
I-1
tp114
a((F82.800003051757812
F328.80001831054688
tF37.200000762939453
F95.627731323242188
F0.001150749041698873
I1
I-1
tp115
a((F52.800003051757812
F54.000003814697266
tF37.200000762939453
F215.81980895996094
F0.00086933543207123876
I1
I-1
tp116
a((F82.800003051757812
F326.4000244140625
tF37.200000762939453
F132.407958984375
F0.00097256741719320416
I1
I-1
tp117
a((F126.00000762939453
F315.60000610351562
tF37.200000762939453
F321.8607177734375
F0.00095116696320474148
I1
I-1
tp118
a((F129.60000610351562
F314.4000244140625
tF37.200000762939453
F319.0611572265625
F0.0030043725855648518
I1
I-1
tp119
a((F104.40000152587891
F56.400001525878906
tF37.200000762939453
F273.70599365234375
F0.0029569542966783047
I1
I-1
tp120
a((F105.60000610351562
F313.20001220703125
tF37.200000762939453
F298.48532104492188
F0.0028236769139766693
I1
I-1
tp121
a((F102.00000762939453
F58.800003051757812
tF37.200000762939453
F174.53874206542969
F0.0015611437847837806
I1
I-1
tp122
a((F81.600006103515625
F313.20001220703125
tF37.200000762939453
F263.68472290039062
F0.0018081758171319962
I1
I-1
tp123
a((F98.400001525878906
F61.200000762939453
tF37.200000762939453
F164.75532531738281
F0.0033199612516909838
I1
I-1
tp124
a((F115.20000457763672
F312
tF37.200000762939453
F322.29595947265625
F0.0015729839215055108
I1
I-1
tp125
a((F52.800003051757812
F64.800003051757812
tF37.200000762939453
F144.64002990722656
F0.00067693524761125445
I1
I-1
tp126
a((F68.400001525878906
F64.800003051757812
tF37.200000762939453
F55.719806671142578
F0.0018153665587306023
I1
I-1
tp127
a((F73.200004577636719
F64.800003051757812
tF37.200000762939453
F81.143363952636719
F0.0022277352400124073
I1
I-1
tp128
a((F44.400001525878906
F309.60000610351562
tF37.200000762939453
F191.55783081054688
F0.0023122068960219622
I1
I-1
tp129
a((F105.60000610351562
F308.4000244140625
tF37.200000762939453
F23.578493118286133
F0.0013587455032393336
I1
I-1
tp130
a((F116.40000152587891
F306
tF37.200000762939453
F356.69717407226562
F0.0011031465837731957
I1
I-1
tp131
a((F98.400001525878906
F294
tF37.200000762939453
F150.78086853027344
F0.00084718130528926849
I1
I-1
tp132
a((F108.00000762939453
F290.4000244140625
tF37.200000762939453
F313.37411499023438
F0.0014920965768396854
I1
I-1
tp133
a((F108.00000762939453
F74.400001525878906
tF37.200000762939453
F13.980627059936523
F0.001694001373834908
I1
I-1
tp134
a((F87.600006103515625
F286.80001831054688
tF37.200000762939453
F192.17953491210938
F0.0018888694467023015
I1
I-1
tp135
a((F78
F79.200004577636719
tF37.200000762939453
F219.1103515625
F0.0035377871245145798
I1
I-1
tp136
a((F75.600006103515625
F81.600006103515625
tF37.200000762939453
F209.07217407226562
F0.0027640541084110737
I1
I-1
tp137
a((F100.80000305175781
F82.800003051757812
tF37.200000762939453
F158.9317626953125
F0.00073367881122976542
I1
I-1
tp138
a((F74.400001525878906
F279.60000610351562
tF37.200000762939453
F193.73300170898438
F0.00077761325519531965
I1
I-1
tp139
a((F76.800003051757812
F277.20001220703125
tF37.200000762939453
F172.25132751464844
F0.0011519179679453373
I1
I-1
tp140
a((F79.200004577636719
F276
tF37.200000762939453
F167.64114379882812
F0.00065965956309810281
I1
I-1
tp141
a((F99.600006103515625
F102.00000762939453
tF37.200000762939453
F188.07847595214844
F0.0026870043948292732
I1
I-1
tp142
a((F112.80000305175781
F273.60000610351562
tF37.200000762939453
F20.09504508972168
F0.0022875412832945585
I1
I-1
tp143
a((F102.00000762939453
F258
tF37.200000762939453
F239.2469482421875
F0.0029645860195159912
I1
I-1
tp144
a((F104.40000152587891
F255.60000610351562
tF37.200000762939453
F270.36563110351562
F0.0019869708921760321
I1
I-1
tp145
a((F112.80000305175781
F240.00001525878906
tF37.200000762939453
F25.18165397644043
F0.0032220259308815002
I1
I-1
tp146
a((F128.40000915527344
F112.80000305175781
tF37.200000762939453
F350.72381591796875
F0.00065110845025628805
I1
I-1
tp147
a((F114.00000762939453
F115.20000457763672
tF37.200000762939453
F81.187225341796875
F0.0011739492183551192
I1
I-1
tp148
a((F79.200004577636719
F118.80000305175781
tF37.200000762939453
F194.81723022460938
F0.0022565238177776337
I1
I-1
tp149
a((F60.000003814697266
F240.00001525878906
tF37.200000762939453
F112.16138458251953
F0.002442086348310113
I1
I-1
tp150
a((F111.60000610351562
F118.80000305175781
tF37.200000762939453
F69.368927001953125
F0.00069457583595067263
I1
I-1
tp151
a((F43.200000762939453
F228.00001525878906
tF37.200000762939453
F197.17359924316406
F0.00079694786109030247
I1
I-1
tp152
a((F76.800003051757812
F120.00000762939453
tF37.200000762939453
F199.94224548339844
F0.0022743663284927607
I1
I-1
tp153
a((F45.600002288818359
F225.60000610351562
tF37.200000762939453
F193.1112060546875
F0.0013644529972225428
I1
I-1
tp154
a((F109.20000457763672
F120.00000762939453
tF37.200000762939453
F49.368896484375
F0.0011175767285749316
I1
I-1
tp155
a((F48
F224.40000915527344
tF37.200000762939453
F190.32058715820312
F0.00073487049667164683
I1
I-1
tp156
a((F138
F123.60000610351562
tF37.200000762939453
F68.91912841796875
F0.0017238946165889502
I1
I-1
tp157
a((F99.600006103515625
F223.20001220703125
tF37.200000762939453
F255.17849731445312
F0.0015299078077077866
I1
I-1
tp158
a((F105.60000610351562
F126.00000762939453
tF37.200000762939453
F336.22525024414062
F0.003289105836302042
I1
I-1
tp159
a((F78
F129.60000610351562
tF37.200000762939453
F198.03924560546875
F0.0026501747779548168
I1
I-1
tp160
a((F105.60000610351562
F220.80000305175781
tF37.200000762939453
F282.33200073242188
F0.0011475958162918687
I1
I-1
tp161
a((F75.600006103515625
F132
tF37.200000762939453
F182.93943786621094
F0.0018445287132635713
I1
I-1
tp162
a((F106.80000305175781
F216.00001525878906
tF37.200000762939453
F319.28805541992188
F0.003105096286162734
I1
I-1
tp163
a((F82.800003051757812
F134.40000915527344
tF37.200000762939453
F181.19059753417969
F0.00098113087005913258
I1
I-1
tp164
a((F111.60000610351562
F213.60000610351562
tF37.200000762939453
F17.366966247558594
F0.0019845850765705109
I1
I-1
tp165
a((F103.20000457763672
F213.60000610351562
tF37.200000762939453
F126.20379638671875
F0.0024651726707816124
I1
I-1
tp166
a((F54.000003814697266
F201.60000610351562
tF37.200000762939453
F66.631378173828125
F0.001604610588401556
I1
I-1
tp167
a((F104.40000152587891
F192
tF37.200000762939453
F269.63336181640625
F0.002942029619589448
I1
I-1
tp168
a((F38.400001525878906
F184.80000305175781
tF37.200000762939453
F234.64234924316406
F0.001299773808568716
I1
I-1
tp169
a((F112.80000305175781
F148.80000305175781
tF37.200000762939453
F343.713623046875
F0.00069993431679904461
I1
I-1
tp170
a((F100.80000305175781
F150
tF37.200000762939453
F192.44737243652344
F0.0026207850314676762
I1
I-1
tp171
a((F114.00000762939453
F151.20001220703125
tF37.200000762939453
F48.285350799560547
F0.0010951018193736672
I1
I-1
tp172
a((F85.200004577636719
F181.20001220703125
tF37.200000762939453
F186.85023498535156
F0.0021559784654527903
I1
I-1
tp173
a((F129.60000610351562
F159.60000610351562
tF37.200000762939453
F331.0867919921875
F0.0009044869220815599
I1
I-1
tp174
a((F88.800003051757812
F160.80000305175781
tF37.200000762939453
F189.40989685058594
F0.0019225073046982288
I1
I-1
tp175
a((F115.20000457763672
F162
tF37.200000762939453
F86.551200866699219
F0.00079680583439767361
I1
I-1
tp176
a((F79.200004577636719
F181.20001220703125
tF37.200000762939453
F175.69708251953125
F0.0042673223651945591
I1
I-1
tp177
a((F76.800003051757812
F181.20001220703125
tF37.200000762939453
F177.66584777832031
F0.0020685691852122545
I1
I-1
tp178
a((F79.200004577636719
F177.60000610351562
tF37.200000762939453
F184.22560119628906
F0.0039911828935146332
I1
I-1
tp179
a((F87.600006103515625
F169.20001220703125
tF37.200000762939453
F152.73171997070312
F0.0020060739479959011
I1
I-1
tp180
a((F76.800003051757812
F177.60000610351562
tF37.200000762939453
F182.03338623046875
F0.0025175332557410002
I1
I-1
tp181
a((F78
F174
tF37.200000762939453
F188.3004150390625
F0.00072081875987350941
I1
I-1
tp182
a((F139.20001220703125
F171.60000610351562
tF37.200000762939453
F50.296241760253906
F0.0018351036123931408
I1
I-1
tp183
a((F94.800003051757812
F103.20000457763672
tF37.200000762939453
F164.59309387207031
F0.00049735070206224918
I1
I-1
tp184
a((F81.600006103515625
F85.200004577636719
tF37.200000762939453
F216.0950927734375
F0.00057222117902711034
I1
I-1
tp185
a((F56.400001525878906
F67.200004577636719
tF37.200000762939453
F123.12162017822266
F0.00049910711823031306
I1
I-1
tp186
a((F74.400001525878906
F324
tF37.200000762939453
F280.41424560546875
F0.00056903308723121881
I1
I-1
tp187
a((F56.400001525878906
F51.600002288818359
tF37.200000762939453
F236.32080078125
F0.00055725075071677566
I1
I-1
tp188
a((F86.400001525878906
F258
tF37.200000762939453
F285.406982421875
F0.00061873201048001647
I1
I-1
tp189
a((F112.80000305175781
F165.60000610351562
tF37.200000762939453
F73.5955810546875
F0.00050863815704360604
I1
I-1
tp190
a((F112.80000305175781
F103.20000457763672
tF37.200000762939453
F351.69717407226562
F0.00060533650685101748
I1
I-1
tp191
a((F72
F322.80001831054688
tF37.200000762939453
F275.01434326171875
F0.00063055753707885742
I1
I-1
tp192
a((F108.00000762939453
F132
tF37.200000762939453
F314.85836791992188
F0.00053423020290210843
I1
I-1
tp193
a((F62.400001525878906
F67.200004577636719
tF37.200000762939453
F82.978553771972656
F0.00045104968012310565
I1
I-1
tp194
a((F88.800003051757812
F327.60000610351562
tF37.200000762939453
F5.1824374198913574
F0.00045444184797815979
I1
I-1
tp195
a((F51.600002288818359
F56.400001525878906
tF37.200000762939453
F199.06512451171875
F0.00048524190788157284
I1
I-1
tp196
a((F82.800003051757812
F222.00001525878906
tF37.200000762939453
F303.44601440429688
F0.00039972967351786792
I1
I-1
tp197
a((F118.80000305175781
F234.00001525878906
tF37.200000762939453
F7.681333065032959
F0.00041836552554741502
I1
I-1
tp198
a((F51.600002288818359
F62.400001525878906
tF37.200000762939453
F160.39501953125
F0.00042775459587574005
I1
I-1
tp199
a((F114.00000762939453
F112.80000305175781
tF37.200000762939453
F80.537368774414062
F0.00041775850695557892
I1
I-1
tp200
a((F113.76000213623047
F162.72000122070312
tF44.640003204345703
F86.243011474609375
F0.0011027934961020947
I2
I-1
tp201
a((F69.120002746582031
F336.96002197265625
tF44.640003204345703
F148.67239379882812
F0.0013550677103921771
I2
I-1
tp202
a((F76.319999694824219
F277.92001342773438
tF44.640003204345703
F173.36093139648438
F0.001215093769133091
I2
I-1
tp203
a((F46.080001831054688
F309.60000610351562
tF44.640003204345703
F170.86012268066406
F0.0026296954602003098
I2
I-1
tp204
a((F79.200004577636719
F276.48001098632812
tF44.640003204345703
F165.51524353027344
F0.0011338075855746865
I2
I-1
tp205
a((F113.76000213623047
F273.60000610351562
tF44.640003204345703
F5.7738399505615234
F0.0019679698161780834
I2
I-1
tp206
a((F102.24000549316406
F257.760009765625
tF44.640003204345703
F303.90444946289062
F0.002328905276954174
I2
I-1
tp207
a((F103.68000793457031
F56.160003662109375
tF44.640003204345703
F327.8748779296875
F0.0028648264706134796
I2
I-1
tp208
a((F105.12000274658203
F309.60000610351562
tF44.640003204345703
F314.36648559570312
F0.0017220319714397192
I2
I-1
tp209
a((F82.080001831054688
F312.48001098632812
tF44.640003204345703
F243.76377868652344
F0.0017273202538490295
I2
I-1
tp210
a((F97.920005798339844
F60.480003356933594
tF44.640003204345703
F151.2454833984375
F0.0027387982700020075
I2
I-1
tp211
a((F60.480003356933594
F240.48001098632812
tF44.640003204345703
F132.09613037109375
F0.0018568858504295349
I2
I-1
tp212
a((F115.20000457763672
F312.48001098632812
tF44.640003204345703
F324.7291259765625
F0.0016708431066945195
I2
I-1
tp213
a((F106.56000518798828
F313.92001342773438
tF44.640003204345703
F323.78466796875
F0.0016906003002077341
I2
I-1
tp214
a((F67.680000305175781
F64.800003051757812
tF44.640003204345703
F110.31208801269531
F0.0017138480907306075
I2
I-1
tp215
a((F72
F64.800003051757812
tF44.640003204345703
F111.81256866455078
F0.0022556178737431765
I2
I-1
tp216
a((F44.640003204345703
F226.08000183105469
tF44.640003204345703
F180.16954040527344
F0.0012460760772228241
I2
I-1
tp217
a((F116.64000701904297
F315.36001586914062
tF44.640003204345703
F328.34402465820312
F0.0023636978585273027
I2
I-1
tp218
a((F47.520000457763672
F224.6400146484375
tF44.640003204345703
F183.86070251464844
F0.0014260608004406095
I2
I-1
tp219
a((F99.360000610351562
F223.20001220703125
tF44.640003204345703
F241.23077392578125
F0.0018047223566100001
I2
I-1
tp220
a((F105.12000274658203
F220.32000732421875
tF44.640003204345703
F333.3026123046875
F0.0014385462272912264
I2
I-1
tp221
a((F112.32000732421875
F72
tF44.640003204345703
F7.0326437950134277
F0.001291505410335958
I2
I-1
tp222
a((F109.44000244140625
F74.8800048828125
tF44.640003204345703
F359.16412353515625
F0.0022834660485386848
I2
I-1
tp223
a((F83.520004272460938
F76.319999694824219
tF44.640003204345703
F188.2685546875
F0.0018719352083280683
I2
I-1
tp224
a((F108.00000762939453
F217.44000244140625
tF44.640003204345703
F350.18130493164062
F0.0024549344088882208
I2
I-1
tp225
a((F77.760002136230469
F79.200004577636719
tF44.640003204345703
F190.78302001953125
F0.0027609814424067736
I2
I-1
tp226
a((F74.8800048828125
F82.080001831054688
tF44.640003204345703
F195.69366455078125
F0.0021046320907771587
I2
I-1
tp227
a((F129.60000610351562
F315.36001586914062
tF44.640003204345703
F335.39306640625
F0.0025261386763304472
I2
I-1
tp228
a((F103.68000793457031
F214.56001281738281
tF44.640003204345703
F332.15924072265625
F0.0026138660032302141
I2
I-1
tp229
a((F112.32000732421875
F213.12001037597656
tF44.640003204345703
F7.4674100875854492
F0.0026538872625678778
I2
I-1
tp230
a((F54.720001220703125
F203.04000854492188
tF44.640003204345703
F157.23410034179688
F0.0013663448626175523
I2
I-1
tp231
a((F87.840003967285156
F48.960002899169922
tF44.640003204345703
F178.85113525390625
F0.001414431375451386
I2
I-1
tp232
a((F96.480003356933594
F102.24000549316406
tF44.640003204345703
F152.20867919921875
F0.0032063194084912539
I2
I-1
tp233
a((F99.360000610351562
F102.24000549316406
tF44.640003204345703
F143.60943603515625
F0.0021869002375751734
I2
I-1
tp234
a((F132.48001098632812
F318.24002075195312
tF44.640003204345703
F336.07720947265625
F0.0011364375241100788
I2
I-1
tp235
a((F103.68000793457031
F191.52000427246094
tF44.640003204345703
F299.7877197265625
F0.0031393615063279867
I2
I-1
tp236
a((F113.76000213623047
F115.20000457763672
tF44.640003204345703
F83.477241516113281
F0.0019677919335663319
I2
I-1
tp237
a((F84.960006713867188
F181.44000244140625
tF44.640003204345703
F181.96900939941406
F0.0016189616871997714
I2
I-1
tp238
a((F79.200004577636719
F119.52000427246094
tF44.640003204345703
F185.64149475097656
F0.002334237564355135
I2
I-1
tp239
a((F76.319999694824219
F181.44000244140625
tF44.640003204345703
F197.18339538574219
F0.0015130462124943733
I2
I-1
tp240
a((F77.760002136230469
F177.12001037597656
tF44.640003204345703
F182.85966491699219
F0.0022062992211431265
I2
I-1
tp241
a((F76.319999694824219
F120.96000671386719
tF44.640003204345703
F189.54066467285156
F0.0020915081258863211
I2
I-1
tp242
a((F79.200004577636719
F174.24000549316406
tF44.640003204345703
F179.07606506347656
F0.0014140931889414787
I2
I-1
tp243
a((F100.80000305175781
F123.84000396728516
tF44.640003204345703
F21.770742416381836
F0.0023368487600237131
I2
I-1
tp244
a((F87.840003967285156
F168.48001098632812
tF44.640003204345703
F158.09710693359375
F0.0022735088132321835
I2
I-1
tp245
a((F106.56000518798828
F126.72000122070312
tF44.640003204345703
F5.926116943359375
F0.0026215841062366962
I2
I-1
tp246
a((F100.80000305175781
F149.760009765625
tF44.640003204345703
F121.17131805419922
F0.0021620483603328466
I2
I-1
tp247
a((F76.319999694824219
F129.60000610351562
tF44.640003204345703
F195.64151000976562
F0.0019114032620564103
I2
I-1
tp248
a((F87.840003967285156
F288
tF44.640003204345703
F166.64625549316406
F0.0014706285437569022
I2
I-1
tp249
a((F74.8800048828125
F133.91999816894531
tF44.640003204345703
F184.56015014648438
F0.0011205471819266677
I2
I-1
tp250
a((F83.520004272460938
F135.36000061035156
tF44.640003204345703
F194.7005615234375
F0.00093491323059424758
I2
I-1
tp251
a((F56.160003662109375
F51.840003967285156
tF44.640003204345703
F209.11848449707031
F0.00099689245689660311
I2
I-1
tp252
a((F53.280002593994141
F53.280002593994141
tF44.640003204345703
F212.64146423339844
F0.00099884916562587023
I2
I-1
tp253
a((F74.8800048828125
F280.80001831054688
tF44.640003204345703
F194.6309814453125
F0.0010002523194998503
I2
I-1
tp254
a((F51.840003967285156
F56.160003662109375
tF44.640003204345703
F200.3638916015625
F0.00097454048227518797
I2
I-1
tp255
a((F53.280002593994141
F64.800003051757812
tF44.640003204345703
F147.26728820800781
F0.0010028325486928225
I2
I-1
tp256
a((F112.32000732421875
F210.24000549316406
tF44.640003204345703
F13.349470138549805
F0.0010240946430712938
I2
I-1
tp257
a((F108.00000762939453
F290.8800048828125
tF44.640003204345703
F346.65960693359375
F0.00099359860178083181
I2
I-1
tp258
a((F108.00000762939453
F119.52000427246094
tF44.640003204345703
F45.253948211669922
F0.001024022581987083
I2
I-1
tp259
a((F76.319999694824219
F125.28000640869141
tF44.640003204345703
F194.59986877441406
F0.00071825110353529453
I2
I-1
tp260
a((F116.64000701904297
F306.72000122070312
tF44.640003204345703
F340.49673461914062
F0.00071955309249460697
I2
I-1
tp261
a((F83.520004272460938
F326.8800048828125
tF44.640003204345703
F287.68435668945312
F0.00075717299478128552
I2
I-1
tp262
a((F83.520004272460938
F329.760009765625
tF44.640003204345703
F342.99392700195312
F0.00092598545597866178
I2
I-1
tp263
a((F96.480003356933594
F293.760009765625
tF44.640003204345703
F148.48117065429688
F0.0007740611326880753
I2
I-1
tp264
a((F112.32000732421875
F165.60000610351562
tF44.640003204345703
F72.817291259765625
F0.00075678527355194092
I2
I-1
tp265
a((F56.160003662109375
F67.680000305175781
tF44.640003204345703
F122.87088012695312
F0.00075628695776686072
I2
I-1
tp266
a((F112.32000732421875
F118.08000183105469
tF44.640003204345703
F70.378250122070312
F0.00079107022611424327
I2
I-1
tp267
a((F83.520004272460938
F89.280006408691406
tF44.640003204345703
F194.18194580078125
F0.00078763091005384922
I2
I-1
tp268
a((F82.080001831054688
F86.400001525878906
tF44.640003204345703
F199.23541259765625
F0.00061368278693407774
I2
I-1
tp269
a((F129.60000610351562
F159.84001159667969
tF44.640003204345703
F334.39663696289062
F0.00064500205917283893
I2
I-1
tp270
a((F99.360000610351562
F275.04000854492188
tF44.640003204345703
F44.886772155761719
F0.00066361075732856989
I2
I-1
tp271
a((F51.840003967285156
F61.920001983642578
tF44.640003204345703
F166.2999267578125
F0.00061945355264469981
I2
I-1
tp272
a((F113.76000213623047
F149.760009765625
tF44.640003204345703
F343.90951538085938
F0.00058820989215746522
I2
I-1
tp273
a((F87.840003967285156
F328.32000732421875
tF44.640003204345703
F260.2099609375
F0.00060480105457827449
I2
I-1
tp274
a((F99.360000610351562
F120.96000671386719
tF44.640003204345703
F353.38525390625
F0.00060176284750923514
I2
I-1
tp275
a((F89.856010437011719
F162.43202209472656
tF53.568004608154297
F167.16804504394531
F0.0019482785137370229
I3
I-1
tp276
a((F114.04801177978516
F238.46401977539062
tF53.568004608154297
F357.92453002929688
F0.0021643764339387417
I3
I-1
tp277
a((F103.68000793457031
F55.296005249023438
tF53.568004608154297
F332.71865844726562
F0.0026734250131994486
I3
I-1
tp278
a((F101.95201110839844
F255.7440185546875
tF53.568004608154297
F353.2344970703125
F0.002359356265515089
I3
I-1
tp279
a((F98.496009826660156
F60.480007171630859
tF53.568004608154297
F154.09051513671875
F0.0023003215901553631
I3
I-1
tp280
a((F101.95201110839844
F221.18402099609375
tF53.568004608154297
F32.206584930419922
F0.0028986409306526184
I3
I-1
tp281
a((F105.40801239013672
F219.45602416992188
tF53.568004608154297
F8.2272882461547852
F0.0020820372737944126
I3
I-1
tp282
a((F108.864013671875
F217.72802734375
tF53.568004608154297
F1.0025480985641479
F0.0025134850293397903
I3
I-1
tp283
a((F103.68000793457031
F216.00001525878906
tF53.568004608154297
F348.638916015625
F0.0029582197312265635
I3
I-1
tp284
a((F114.04801177978516
F212.54402160644531
tF53.568004608154297
F1.5040974617004395
F0.0026449458673596382
I3
I-1
tp285
a((F103.68000793457031
F191.80801391601562
tF53.568004608154297
F347.77301025390625
F0.0024848401080816984
I3
I-1
tp286
a((F105.40801239013672
F309.31204223632812
tF53.568004608154297
F312.59408569335938
F0.0019706594757735729
I3
I-1
tp287
a((F88.128005981445312
F167.61601257324219
tF53.568004608154297
F169.40266418457031
F0.002497922396287322
I3
I-1
tp288
a((F100.22400665283203
F148.60801696777344
tF53.568004608154297
F120.83189392089844
F0.002035659970715642
I3
I-1
tp289
a((F110.59201049804688
F74.304008483886719
tF53.568004608154297
F350.88528442382812
F0.0020590408239513636
I3
I-1
tp290
a((F117.50401306152344
F314.49603271484375
tF53.568004608154297
F0.91988217830657959
F0.002019522013142705
I3
I-1
tp291
a((F108.864013671875
F126.14401245117188
tF53.568004608154297
F52.068817138671875
F0.0025931096170097589
I3
I-1
tp292
a((F112.32000732421875
F122.68801116943359
tF53.568004608154297
F44.065177917480469
F0.0026938007213175297
I3
I-1
tp293
a((F76.032005310058594
F82.944007873535156
tF53.568004608154297
F174.32504272460938
F0.0021089802030473948
I3
I-1
tp294
a((F79.488006591796875
F119.23200988769531
tF53.568004608154297
F184.19917297363281
F0.0022281033452600241
I3
I-1
tp295
a((F117.50401306152344
F115.77600860595703
tF53.568004608154297
F37.13433837890625
F0.0023974066134542227
I3
I-1
tp296
a((F98.496009826660156
F101.95201110839844
tF53.568004608154297
F142.52865600585938
F0.001976673724129796
I3
I-1
tp297
a((F117.50401306152344
F305.85601806640625
tF53.568004608154297
F333.08248901367188
F0.00050291395746171474
I3
I-1
tp298
a((F69.120010375976562
F335.23202514648438
tF53.568004608154297
F152.49026489257812
F0.00085975241381675005
I3
I-1
tp299
a((F60.480007171630859
F240.1920166015625
tF53.568004608154297
F143.4576416015625
F0.0012710862793028355
I3
I-1
tp300
a((F117.50401306152344
F110.59201049804688
tF53.568004608154297
F11.203207015991211
F0.00064519076840952039
I3
I-1
tp301
a((F84.672004699707031
F89.856010437011719
tF53.568004608154297
F185.26628112792969
F0.00076301331864669919
I3
I-1
tp302
a((F112.32000732421875
F117.50401306152344
tF53.568004608154297
F55.512821197509766
F0.0012379151303321123
I3
I-1
tp303
a((F82.944007873535156
F86.400009155273438
tF53.568004608154297
F185.61497497558594
F0.00069842912489548326
I3
I-1
tp304
a((F119.23200988769531
F233.280029296875
tF53.568004608154297
F355.07791137695312
F0.00056718650739639997
I3
I-1
tp305
a((F100.22400665283203
F119.23200988769531
tF53.568004608154297
F151.66323852539062
F0.00063932419288903475
I3
I-1
tp306
a((F101.95201110839844
F122.68801116943359
tF53.568004608154297
F93.576896667480469
F0.001783785643056035
I3
I-1
tp307
a((F120.96001434326172
F229.82402038574219
tF53.568004608154297
F354.70278930664062
F0.00063539238180965185
I3
I-1
tp308
a((F88.128005981445312
F76.032005310058594
tF53.568004608154297
F192.30496215820312
F0.00072346016531810164
I3
I-1
tp309
a((F76.032005310058594
F127.87200927734375
tF53.568004608154297
F186.80770874023438
F0.0010342544410377741
I3
I-1
tp310
a((F70.848007202148438
F57.024005889892578
tF53.568004608154297
F142.429443359375
F0.00066915882052853703
I3
I-1
tp311
a((F76.032005310058594
F134.78401184082031
tF53.568004608154297
F188.95236206054688
F0.00085426034638658166
I3
I-1
tp312
a((F84.672004699707031
F136.51200866699219
tF53.568004608154297
F191.1319580078125
F0.00085875566583126783
I3
I-1
tp313
a((F84.672004699707031
F76.032005310058594
tF53.568004608154297
F183.07083129882812
F0.0018288574647158384
I3
I-1
tp314
a((F114.04801177978516
F70.848007202148438
tF53.568004608154297
F355.97116088867188
F0.0013462320202961564
I3
I-1
tp315
a((F114.04801177978516
F273.02401733398438
tF53.568004608154297
F357.030517578125
F0.0017598593840375543
I3
I-1
tp316
a((F105.40801239013672
F312.76803588867188
tF53.568004608154297
F81.996894836425781
F0.0017388936830684543
I3
I-1
tp317
a((F86.400009155273438
F330.04803466796875
tF53.568004608154297
F305.50137329101562
F0.00050544372061267495
I3
I-1
tp318
a((F114.04801177978516
F162.43202209472656
tF53.568004608154297
F76.267173767089844
F0.0017328892135992646
I3
I-1
tp319
a((F117.50401306152344
F69.120010375976562
tF53.568004608154297
F358.88153076171875
F0.00077952840365469456
I3
I-1
tp320
a((F82.944007873535156
F311.0400390625
tF53.568004608154297
F243.228759765625
F0.0015145114157348871
I3
I-1
tp321
a((F67.392005920410156
F63.936004638671875
tF53.568004608154297
F149.13253784179688
F0.0016830615932121873
I3
I-1
tp322
a((F108.864013671875
F167.61601257324219
tF53.568004608154297
F70.582046508789062
F0.00067594909342005849
I3
I-1
tp323
a((F79.488006591796875
F172.80001831054688
tF53.568004608154297
F173.61183166503906
F0.001255047507584095
I3
I-1
tp324
a((F77.760009765625
F176.25601196289062
tF53.568004608154297
F189.43119812011719
F0.0016279324190691113
I3
I-1
tp325
a((F76.032005310058594
F181.44001770019531
tF53.568004608154297
F223.65576171875
F0.0011013016337528825
I3
I-1
tp326
a((F86.400009155273438
F181.44001770019531
tF53.568004608154297
F187.95606994628906
F0.0013620149111375213
I3
I-1
tp327
a((F72.576004028320312
F63.936004638671875
tF53.568004608154297
F145.44796752929688
F0.0018709305441007018
I3
I-1
tp328
a((F53.568004608154297
F65.664009094238281
tF53.568004608154297
F143.72433471679688
F0.00084885983960703015
I3
I-1
tp329
a((F96.76800537109375
F292.03201293945312
tF53.568004608154297
F155.19442749023438
F0.00057973724324256182
I3
I-1
tp330
a((F57.024005889892578
F67.392005920410156
tF53.568004608154297
F137.8577880859375
F0.0010758786229416728
I3
I-1
tp331
a((F107.13600921630859
F288.57601928710938
tF53.568004608154297
F12.158601760864258
F0.00092393159866333008
I3
I-1
tp332
a((F88.128005981445312
F286.8480224609375
tF53.568004608154297
F162.705078125
F0.00099591212347149849
I3
I-1
tp333
a((F76.032005310058594
F279.93603515625
tF53.568004608154297
F201.07160949707031
F0.0014196812408044934
I3
I-1
tp334
a((F55.296005249023438
F202.176025390625
tF53.568004608154297
F239.83891296386719
F0.00099615007638931274
I3
I-1
tp335
a((F53.568004608154297
F53.568004608154297
tF53.568004608154297
F186.82594299316406
F0.0013462997740134597
I3
I-1
tp336
a((F79.488006591796875
F274.75201416015625
tF53.568004608154297
F165.84341430664062
F0.0018700447399169207
I3
I-1
tp337
a((F101.95201110839844
F276.48004150390625
tF53.568004608154297
F340.94137573242188
F0.00062684185104444623
I3
I-1
tp338
a((F109.90081787109375
F74.649612426757812
tF64.281608581542969
F348.77102661132812
F0.0021552382968366146
I4
I-1
tp339
a((F99.532814025878906
F221.87522888183594
tF64.281608581542969
F22.35264778137207
F0.0026543966960161924
I4
I-1
tp340
a((F109.90081787109375
F217.72802734375
tF64.281608581542969
F4.4337525367736816
F0.0030143293552100658
I4
I-1
tp341
a((F101.60641479492188
F190.77122497558594
tF64.281608581542969
F358.87960815429688
F0.0022651008330285549
I4
I-1
tp342
a((F87.091209411621094
F167.96162414550781
tF64.281608581542969
F174.26577758789062
F0.002743549644947052
I4
I-1
tp343
a((F89.164810180664062
F163.81442260742188
tF64.281608581542969
F159.76872253417969
F0.0025201844982802868
I4
I-1
tp344
a((F111.97441864013672
F122.34241485595703
tF64.281608581542969
F71.143867492675781
F0.0025972004514187574
I4
I-1
tp345
a((F111.97441864013672
F103.68001556396484
tF64.281608581542969
F334.1572265625
F8.0882266047410667e-05
I4
I-1
tp346
a((F111.97441864013672
F116.12161254882812
tF64.281608581542969
F349.4017333984375
F0.0016853290144354105
I4
I-1
tp347
a((F97.459213256835938
F118.19521331787109
tF64.281608581542969
F166.25665283203125
F0.00021909660426899791
I4
I-1
tp348
a((F85.017608642578125
F120.26881408691406
tF64.281608581542969
F183.359130859375
F0.00027505389880388975
I4
I-1
tp349
a((F76.723213195800781
F122.34241485595703
tF64.281608581542969
F182.56944274902344
F0.0020382632501423359
I4
I-1
tp350
a((F97.459213256835938
F101.60641479492188
tF64.281608581542969
F182.46638488769531
F0.0016976469196379185
I4
I-1
tp351
a((F99.532814025878906
F126.48961639404297
tF64.281608581542969
F205.78256225585938
F0.0009398820111528039
I4
I-1
tp352
a((F76.723213195800781
F128.56321716308594
tF64.281608581542969
F180.71163940429688
F0.00081261666491627693
I4
I-1
tp353
a((F105.75361633300781
F130.63682556152344
tF64.281608581542969
F338.31784057617188
F0.00076853076461702585
I4
I-1
tp354
a((F74.649612426757812
F134.78401184082031
tF64.281608581542969
F185.03945922851562
F0.00053304719040170312
I4
I-1
tp355
a((F85.017608642578125
F136.85762023925781
tF64.281608581542969
F184.64889526367188
F0.00078400783240795135
I4
I-1
tp356
a((F99.532814025878906
F149.29922485351562
tF64.281608581542969
F158.58279418945312
F0.0014023297699168324
I4
I-1
tp357
a((F87.091209411621094
F329.70245361328125
tF64.281608581542969
F299.48846435546875
F0.00030046745087020099
I4
I-1
tp358
a((F111.97441864013672
F161.74082946777344
tF64.281608581542969
F41.486198425292969
F0.001954373437911272
I4
I-1
tp359
a((F76.723213195800781
F325.55523681640625
tF64.281608581542969
F226.12213134765625
F0.00031038859742693603
I4
I-1
tp360
a((F70.502410888671875
F319.33444213867188
tF64.281608581542969
F200.91473388671875
F0.00035234109964221716
I4
I-1
tp361
a((F111.97441864013672
F165.88803100585938
tF64.281608581542969
F67.891616821289062
F0.0011481771944090724
I4
I-1
tp362
a((F82.944015502929688
F87.091209411621094
tF64.281608581542969
F177.28494262695312
F0.00082203262718394399
I4
I-1
tp363
a((F103.68001556396484
F167.96162414550781
tF64.281608581542969
F90.012443542480469
F0.00091157091083005071
I4
I-1
tp364
a((F107.82721710205078
F167.96162414550781
tF64.281608581542969
F74.951652526855469
F0.0016043856739997864
I4
I-1
tp365
a((F76.723213195800781
F176.25602722167969
tF64.281608581542969
F199.94171142578125
F0.0013229921460151672
I4
I-1
tp366
a((F103.68001556396484
F313.1136474609375
tF64.281608581542969
F349.03604125976562
F0.0013085990212857723
I4
I-1
tp367
a((F87.091209411621094
F182.47682189941406
tF64.281608581542969
F199.8199462890625
F0.0011517606908455491
I4
I-1
tp368
a((F76.723213195800781
F184.55043029785156
tF64.281608581542969
F216.66943359375
F0.0014479473466053605
I4
I-1
tp369
a((F80.870414733886719
F313.1136474609375
tF64.281608581542969
F224.09481811523438
F0.0012553316773846745
I4
I-1
tp370
a((F74.649612426757812
F82.944015502929688
tF64.281608581542969
F160.44734191894531
F0.0015841294080018997
I4
I-1
tp371
a((F95.385612487792969
F192.84483337402344
tF64.281608581542969
F294.579833984375
F0.00072231644298881292
I4
I-1
tp372
a((F103.68001556396484
F308.9664306640625
tF64.281608581542969
F341.33413696289062
F0.0012905679177492857
I4
I-1
tp373
a((F99.532814025878906
F209.43362426757812
tF64.281608581542969
F327.72164916992188
F0.00053404038771986961
I4
I-1
tp374
a((F95.385612487792969
F292.37765502929688
tF64.281608581542969
F220.27597045898438
F0.00050230388296768069
I4
I-1
tp375
a((F101.60641479492188
F213.58082580566406
tF64.281608581542969
F356.03335571289062
F0.0021146815270185471
I4
I-1
tp376
a((F99.532814025878906
F80.870414733886719
tF64.281608581542969
F273.32144165039062
F0.00034164966200478375
I4
I-1
tp377
a((F78.79681396484375
F219.8016357421875
tF64.281608581542969
F182.35563659667969
F0.00028722186107188463
I4
I-1
tp378
a((F82.944015502929688
F76.723213195800781
tF64.281608581542969
F172.50184631347656
F0.0015153271378949285
I4
I-1
tp379
a((F105.75361633300781
F288.23043823242188
tF64.281608581542969
F17.949390411376953
F0.00073988520307466388
I4
I-1
tp380
a((F89.164810180664062
F288.23043823242188
tF64.281608581542969
F182.732177734375
F0.00089075567666441202
I4
I-1
tp381
a((F74.649612426757812
F286.15682983398438
tF64.281608581542969
F184.58055114746094
F0.0001984820410143584
I4
I-1
tp382
a((F76.723213195800781
F277.8624267578125
tF64.281608581542969
F188.03781127929688
F0.0015116761205717921
I4
I-1
tp383
a((F93.31201171875
F238.46403503417969
tF64.281608581542969
F303.31204223632812
F0.00029371739947237074
I4
I-1
tp384
a((F97.459213256835938
F240.53762817382812
tF64.281608581542969
F323.81723022460938
F0.00043388834455981851
I4
I-1
tp385
a((F103.68001556396484
F248.83203125
tF64.281608581542969
F6.4901909828186035
F0.00024482826120220125
I4
I-1
tp386
a((F101.60641479492188
F255.05284118652344
tF64.281608581542969
F8.8877468109130859
F0.001817560289055109
I4
I-1
tp387
a((F82.944015502929688
F257.12643432617188
tF64.281608581542969
F157.43089294433594
F0.00035088980803266168
I4
I-1
tp388
a((F101.60641479492188
F275.78884887695312
tF64.281608581542969
F341.18930053710938
F0.00047334708506241441
I4
I-1
tp389
a((F99.532814025878906
F165.88803100585938
tF64.281608581542969
F125.35549163818359
F7.1443821070715785e-05
I4
I-1
tp390
a((F84.602897644042969
F77.137939453125
tF77.137939453125
F160.16909790039062
F0.0016187145374715328
I5
I-1
tp391
a((F97.044502258300781
F79.626258850097656
tF77.137939453125
F198.72956848144531
F0.00040877083665691316
I5
I-1
tp392
a((F84.602897644042969
F89.579544067382812
tF77.137939453125
F178.74127197265625
F0.00063084409339353442
I5
I-1
tp393
a((F97.044502258300781
F99.532821655273438
tF77.137939453125
F201.88908386230469
F0.0015307272551581264
I5
I-1
tp394
a((F79.626258850097656
F111.97442626953125
tF77.137939453125
F176.73603820800781
F0.0016441383631899953
I5
I-1
tp395
a((F87.091217041015625
F116.95106506347656
tF77.137939453125
F173.30975341796875
F0.00035628629848361015
I5
I-1
tp396
a((F79.626258850097656
F121.92771148681641
tF77.137939453125
F179.85401916503906
F0.0022119195200502872
I5
I-1
tp397
a((F87.091217041015625
F136.85763549804688
tF77.137939453125
F184.60142517089844
F0.00061470799846574664
I5
I-1
tp398
a((F99.532821655273438
F149.29924011230469
tF77.137939453125
F158.55265808105469
F0.0011542625725269318
I5
I-1
tp399
a((F79.626258850097656
F156.76419067382812
tF77.137939453125
F169.91275024414062
F0.0001482558436691761
I5
I-1
tp400
a((F89.579544067382812
F164.22915649414062
tF77.137939453125
F163.88633728027344
F0.0026226479094475508
I5
I-1
tp401
a((F89.579544067382812
F169.20579528808594
tF77.137939453125
F172.64483642578125
F0.0022689248435199261
I5
I-1
tp402
a((F82.114578247070312
F171.69412231445312
tF77.137939453125
F198.1707763671875
F0.0032927591819316149
I5
I-1
tp403
a((F77.137939453125
F176.67076110839844
tF77.137939453125
F209.26667785644531
F0.0011892147595062852
I5
I-1
tp404
a((F77.137939453125
F184.13572692871094
tF77.137939453125
F224.06704711914062
F0.0013960578944534063
I5
I-1
tp405
a((F89.579544067382812
F184.13572692871094
tF77.137939453125
F205.86163330078125
F0.0009190818527713418
I5
I-1
tp406
a((F99.532821655273438
F209.01893615722656
tF77.137939453125
F348.05557250976562
F0.00062789511866867542
I5
I-1
tp407
a((F77.137939453125
F218.97221374511719
tF77.137939453125
F237.76107788085938
F0.00024290003057103604
I5
I-1
tp408
a((F99.532821655273438
F221.46052551269531
tF77.137939453125
F2.0427811145782471
F0.0022039443720132113
I5
I-1
tp409
a((F79.626258850097656
F236.39045715332031
tF77.137939453125
F157.46163940429688
F-0.00014768182882107794
I5
I-1
tp410
a((F84.602897644042969
F238.8787841796875
tF77.137939453125
F144.8681640625
F5.4336805987986736e-06
I5
I-1
tp411
a((F97.044502258300781
F241.36709594726562
tF77.137939453125
F357.36831665039062
F0.00061268312856554985
I5
I-1
tp412
a((F82.114578247070312
F256.29702758789062
tF77.137939453125
F146.26957702636719
F0.00030474548111669719
I5
I-1
tp413
a((F77.137939453125
F278.69189453125
tF77.137939453125
F188.87507629394531
F0.0020538126118481159
I5
I-1
tp414
a((F89.579544067382812
F288.64520263671875
tF77.137939453125
F219.31694030761719
F0.00082768942229449749
I5
I-1
tp415
a((F82.114578247070312
F298.59848022460938
tF77.137939453125
F212.3291015625
F-2.7374675482860766e-05
I5
I-1
tp416
a((F82.114578247070312
F311.04006958007812
tF77.137939453125
F238.77163696289062
F0.0015989578096196055
I5
I-1
tp417
a((F89.579544067382812
F313.52838134765625
tF77.137939453125
F272.52713012695312
F-0.00012810208136215806
I5
I-1
tp418
a.