(lp1
((F114
F186
tF31
F119.7193603515625
F3.3314579468424199e-06
I0
I-1
tp2
a((F129
F31
tF31
F138.20899963378906
F0.0006703282124362886
I0
I-1
tp3
a((F126
F184
tF31
F104.17204284667969
F0.0036095939576625824
I0
I-1
tp4
a((F152
F179
tF31
F87.432655334472656
F0.00089902192121371627
I0
I-1
tp5
a((F150
F178
tF31
F86.572334289550781
F0.0012686098925769329
I0
I-1
tp6
a((F123
F40
tF31
F49.011707305908203
F0.004816137719899416
I0
I-1
tp7
a((F147
F176
tF31
F85.183822631835938
F0.0045455638319253922
I0
I-1
tp8
a((F179
F40
tF31
F340.04208374023438
F1.0506188118597493e-05
I0
I-1
tp9
a((F250
F169
tF31
F125.24742889404297
F6.3753259382792749e-06
I0
I-1
tp10
a((F247
F167
tF31
F46.044406890869141
F4.315285877964925e-06
I0
I-1
tp11
a((F60
F167
tF31
F249.00379943847656
F0.002197065157815814
I0
I-1
tp12
a((F250
F163
tF31
F120.30928039550781
F4.1027901716006454e-06
I0
I-1
tp13
a((F125
F43
tF31
F51.586883544921875
F0.0047056218609213829
I0
I-1
tp14
a((F123
F163
tF31
F200.39102172851562
F0.0025341745931655169
I0
I-1
tp15
a((F118
F45
tF31
F19.733547210693359
F5.871532266610302e-05
I0
I-1
tp16
a((F262
F160
tF31
F103.8011474609375
F0.0039873113855719566
I0
I-1
tp17
a((F170
F47
tF31
F320.164306640625
F0.00023261857859324664
I0
I-1
tp18
a((F99
F160
tF31
F270.81637573242188
F0.00017577435937710106
I0
I-1
tp19
a((F174
F50
tF31
F329.30429077148438
F9.6425137598998845e-05
I0
I-1
tp20
a((F122
F159
tF31
F203.49873352050781
F0.0021056609693914652
I0
I-1
tp21
a((F149
F158
tF31
F266.39651489257812
F0.0011056914227083325
I0
I-1
tp22
a((F121
F153
tF31
F184.34873962402344
F1.063215131580364e-05
I0
I-1
tp23
a((F161
F53
tF31
F176.65652465820312
F0.00022349761275108904
I0
I-1
tp24
a((F70
F153
tF31
F176.69863891601562
F1.704882197373081e-05
I0
I-1
tp25
a((F94
F149
tF31
F1.7313556671142578
F0.0018174056895077229
I0
I-1
tp26
a((F196
F144
tF31
F248.02072143554688
F0.0022008963860571384
I0
I-1
tp27
a((F235
F137
tF31
F270.66030883789062
F0.00017976481467485428
I0
I-1
tp28
a((F162
F58
tF31
F169.77764892578125
F0.00010347510396968573
I0
I-1
tp29
a((F258
F136
tF31
F204.15826416015625
F0.0022758387494832277
I0
I-1
tp30
a((F255
F134
tF31
F209.37396240234375
F0.00030374049674719572
I0
I-1
tp31
a((F257
F130
tF31
F184.98091125488281
F1.9346629414940253e-05
I0
I-1
tp32
a((F164
F62
tF31
F163.77349853515625
F7.3112256359308958e-05
I0
I-1
tp33
a((F31
F127
tF31
F235.60980224609375
F0.00027902575675398111
I0
I-1
tp34
a((F164
F65
tF31
F156.49952697753906
F3.0177858207025565e-05
I0
I-1
tp35
a((F230
F126
tF31
F0.23509861528873444
F0.0018458801787346601
I0
I-1
tp36
a((F57
F125
tF31
F332.61209106445312
F0.00014355528401210904
I0
I-1
tp37
a((F50
F123
tF31
F298.57455444335938
F0.00047838062164373696
I0
I-1
tp38
a((F107
F122
tF31
F96.133438110351562
F0.0058694267645478249
I0
I-1
tp39
a((F54
F121
tF31
F309.07980346679688
F0.0010534258326515555
I0
I-1
tp40
a((F161
F73
tF31
F153.94442749023438
F2.2505444576381706e-05
I0
I-1
tp41
a((F111
F117
tF31
F245.33181762695312
F3.9900820411276072e-05
I0
I-1
tp42
a((F128
F75
tF31
F294.4737548828125
F0.0026067809667438269
I0
I-1
tp43
a((F157
F75
tF31
F184.95660400390625
F0.00077372393570840359
I0
I-1
tp44
a((F163
F75
tF31
F120.87808227539062
F0.00016367570788133889
I0
I-1
tp45
a((F108
F115
tF31
F259.15335083007812
F3.5530531022232026e-05
I0
I-1
tp46
a((F125
F113
tF31
F299.20297241210938
F5.9120855439687148e-05
I0
I-1
tp47
a((F123
F112
tF31
F292.43603515625
F0.0001077269553206861
I0
I-1
tp48
a((F167
F104
tF31
F235.51104736328125
F0.00021427715546451509
I0
I-1
tp49
a((F151
F77
tF31
F238.251220703125
F0.0050244629383087158
I0
I-1
tp50
a((F188
F103
tF31
F318.37051391601562
F5.3091382142156363e-05
I0
I-1
tp51
a((F193
F102
tF31
F333.17056274414062
F7.6083786552771926e-05
I0
I-1
tp52
a((F164
F102
tF31
F230.13212585449219
F0.0012118729064241052
I0
I-1
tp53
a((F125
F79
tF31
F284.51504516601562
F0.00047566817374899983
I0
I-1
tp54
a((F129
F79
tF31
F293.77142333984375
F3.6905305023537949e-05
I0
I-1
tp55
a((F187
F101
tF31
F306.593994140625
F0.00030316831544041634
I0
I-1
tp56
a((F161
F99
tF31
F228.869384765625
F0.0034650715533643961
I0
I-1
tp57
a((F88
F99
tF31
F235.644287109375
F6.156210474728141e-06
I0
I-1
tp58
a((F186
F81
tF31
F302.68423461914062
F3.126018782495521e-05
I0
I-1
tp59
a((F203
F98
tF31
F261.18524169921875
F2.1014931917306967e-05
I0
I-1
tp60
a((F116
F83
tF31
F160.094970703125
F0.0032303149346262217
I0
I-1
tp61
a((F132
F83
tF31
F293.21240234375
F0.00029245219775475562
I0
I-1
tp62
a((F190
F98
tF31
F309.65145874023438
F0.0011376726906746626
I0
I-1
tp63
a((F136
F86
tF31
F305.5618896484375
F0.00014607876073569059
I0
I-1
tp64
a((F93
F97
tF31
F260.2694091796875
F2.1494752218131907e-05
I0
I-1
tp65
a((F91
F96
tF31
F249.41065979003906
F2.3817145120119676e-05
I0
I-1
tp66
a((F247
F94
tF31
F243.23092651367188
F3.8385474908864126e-05
I0
I-1
tp67
a((F244
F92
tF31
F258.55984497070312
F4.3057618313468993e-05
I0
I-1
tp68
a((F240
F92
tF31
F261.57012939453125
F1.0298020242771599e-05
I0
I-1
tp69
a((F261
F90
tF31
F293.65408325195312
F4.8549336497671902e-05
I0
I-1
tp70
a((F259
F89
tF31
F292.58807373046875
F9.8684344266075641e-05
I0
I-1
tp71
a((F114
F121
tF31
F162.39494323730469
F-2.3390819478663616e-05
I0
I-1
tp72
a((F258
F177
tF31
F122.61845397949219
F3.2866607853065943e-06
I0
I-1
tp73
a((F77
F52
tF31
F196.6942138671875
F-7.269223374350986e-07
I0
I-1
tp74
a((F189
F52
tF31
F340.96188354492188
F-7.9815225717538851e-07
I0
I-1
tp75
a((F206
F129
tF31
F177.57777404785156
F2.6055909074784722e-06
I0
I-1
tp76
a((F242
F92
tF31
F260.29962158203125
F6.5415105154897901e-07
I0
I-1
tp77
a((F199
F90
tF31
F314.18875122070312
F8.1831410625454737e-07
I0
I-1
tp78
a((F51
F119
tF31
F293.14202880859375
F-1.5436717148986645e-05
I0
I-1
tp79
a((F106
F115
tF31
F260.76980590820312
F2.6392046947876224e-07
I0
I-1
tp80
a((F55
F108
tF31
F290.60870361328125
F-5.4258475756796543e-07
I0
I-1
tp81
a((F79
F80
tF31
F161.51446533203125
F4.9541785074325162e-07
I0
I-1
tp82
a((F187
F96
tF31
F294.56906127929688
F-6.8384492806217168e-06
I0
I-1
tp83
a((F250
F97
tF31
F175.24534606933594
F-9.9582730399561115e-06
I0
I-1
tp84
a((F104
F97
tF31
F274.20303344726562
F1.0140295216842787e-06
I0
I-1
tp85
a((F106
F97
tF31
F266.94107055664062
F1.1896016758328187e-06
I0
I-1
tp86
a((F139
F86
tF31
F311.14321899414062
F-0.00014311449194792658
I0
I-1
tp87
a((F156
F33
tF31
F126.56752014160156
F-8.9436951384413987e-05
I0
I-1
tp88
a((F131
F34
tF31
F97.471832275390625
F-0.00010453334834892303
I0
I-1
tp89
a((F114
F42
tF31
F320.36141967773438
F-7.0467489422298968e-05
I0
I-1
tp90
a((F160
F42
tF31
F172.432373046875
F-7.8521254181396216e-05
I0
I-1
tp91
a((F118
F89
tF31
F138.86148071289062
F-4.032276410725899e-05
I0
I-1
tp92
a((F163
F54
tF31
F181.22731018066406
F-3.3544954931130633e-05
I0
I-1
tp93
a((F93
F63
tF31
F180.04948425292969
F-4.5953336666570976e-05
I0
I-1
tp94
a((F94
F67
tF31
F161.25267028808594
F-2.941400816780515e-05
I0
I-1
tp95
a((F104
F79
tF31
F91.218589782714844
F-0.00010692579962778836
I0
I-1
tp96
a((F164
F68
tF31
F149.00743103027344
F-4.9662299716146663e-05
I0
I-1
tp97
a((F102
F78
tF31
F99.072586059570312
F-7.4819938163273036e-05
I0
I-1
tp98
a((F100
F77
tF31
F110.39042663574219
F-8.66253103595227e-05
I0
I-1
tp99
a((F114
F76
tF31
F295.8092041015625
F-4.7541328967781737e-05
I0
I-1
tp100
a((F178
F56
tF31
F341.561767578125
F-0.00020445323025342077
I0
I-1
tp101
a((F128
F98
tF31
F106.96735382080078
F-0.00017410796135663986
I0
I-1
tp102
a((F159
F38
tF31
F139.84170532226562
F-0.00014836863556411117
I0
I-1
tp103
a((F256
F87
tF31
F283.12869262695312
F-0.00018433642981108278
I0
I-1
tp104
a((F143
F86
tF31
F317.49246215820312
F-0.00015734641056042165
I0
I-1
tp105
a((F159
F79
tF31
F109.16770935058594
F-0.00019527402764651924
I0
I-1
tp106
a((F124
F75
tF31
F287.7916259765625
F-0.00019901705672964454
I0
I-1
tp107
a((F159
F46
tF31
F178.87564086914062
F-0.00021105995983816683
I0
I-1
tp108
a((F105
F57
tF31
F10.255233764648438
F-0.00020962029520887882
I0
I-1
tp109
a((F121
F179
tF31
F113.72882080078125
F-0.00021382668637670577
I0
I-1
tp110
a((F246.00001525878906
F93.600006103515625
tF37.200000762939453
F248.27549743652344
F0.00016639237583149225
I1
I-1
tp111
a((F126.00000762939453
F38.400001525878906
tF37.200000762939453
F71.044158935546875
F0.0019866919610649347
I1
I-1
tp112
a((F152.40000915527344
F178.80000305175781
tF37.200000762939453
F84.424736022949219
F0.0010224827565252781
I1
I-1
tp113
a((F150
F177.60000610351562
tF37.200000762939453
F83.701553344726562
F0.0012008666526526213
I1
I-1
tp114
a((F122.40000152587891
F39.600002288818359
tF37.200000762939453
F45.251911163330078
F0.0045310445129871368
I1
I-1
tp115
a((F50.400001525878906
F177.60000610351562
tF37.200000762939453
F355.5963134765625
F0.0034247648436576128
I1
I-1
tp116
a((F146.40000915527344
F176.40000915527344
tF37.200000762939453
F82.567703247070312
F0.0035598373506218195
I1
I-1
tp117
a((F60.000003814697266
F166.80000305175781
tF37.200000762939453
F268.20867919921875
F0.0016100994544103742
I1
I-1
tp118
a((F120.00000762939453
F42
tF37.200000762939453
F24.206222534179688
F0.0028860589955002069
I1
I-1
tp119
a((F122.40000152587891
F162
tF37.200000762939453
F177.94009399414062
F0.0020863823592662811
I1
I-1
tp120
a((F261.60000610351562
F159.60000610351562
tF37.200000762939453
F102.98445129394531
F0.0029860383365303278
I1
I-1
tp121
a((F148.80000305175781
F157.20001220703125
tF37.200000762939453
F266.12997436523438
F0.0010764715261757374
I1
I-1
tp122
a((F124.80000305175781
F43.200000762939453
tF37.200000762939453
F49.028846740722656
F0.0027951484080404043
I1
I-1
tp123
a((F118.80000305175781
F157.20001220703125
tF37.200000762939453
F212.84623718261719
F0.00075253128306940198
I1
I-1
tp124
a((F186
F153.60000610351562
tF37.200000762939453
F348.02658081054688
F0.0040303710848093033
I1
I-1
tp125
a((F114.00000762939453
F150
tF37.200000762939453
F204.43333435058594
F0.0037203463725745678
I1
I-1
tp126
a((F93.600006103515625
F148.80000305175781
tF37.200000762939453
F352.50482177734375
F0.0014039075467735529
I1
I-1
tp127
a((F196.80000305175781
F142.80000305175781
tF37.200000762939453
F258.907958984375
F0.0020333661232143641
I1
I-1
tp128
a((F166.80000305175781
F45.600002288818359
tF37.200000762939453
F294.73565673828125
F0.0026244362816214561
I1
I-1
tp129
a((F258
F138
tF37.200000762939453
F186.0318603515625
F0.0027598829474300146
I1
I-1
tp130
a((F258
F135.60000610351562
tF37.200000762939453
F202.7744140625
F0.0021528019569814205
I1
I-1
tp131
a((F254.40000915527344
F134.40000915527344
tF37.200000762939453
F212.17054748535156
F0.00027854921063408256
I1
I-1
tp132
a((F174
F50.400001525878906
tF37.200000762939453
F333.32760620117188
F0.00030281467479653656
I1
I-1
tp133
a((F249.60000610351562
F127.20000457763672
tF37.200000762939453
F206.72970581054688
F0.0037032978143543005
I1
I-1
tp134
a((F156
F52.800003051757812
tF37.200000762939453
F172.64385986328125
F0.002974978880956769
I1
I-1
tp135
a((F160.80000305175781
F52.800003051757812
tF37.200000762939453
F181.81379699707031
F0.00098086742218583822
I1
I-1
tp136
a((F229.20001220703125
F126.00000762939453
tF37.200000762939453
F352.13540649414062
F0.0013175897765904665
I1
I-1
tp137
a((F56.400001525878906
F124.80000305175781
tF37.200000762939453
F328.85903930664062
F0.00033129198709502816
I1
I-1
tp138
a((F106.80000305175781
F122.40000152587891
tF37.200000762939453
F135.20774841308594
F0.0047023594379425049
I1
I-1
tp139
a((F49.200000762939453
F122.40000152587891
tF37.200000762939453
F297.720947265625
F0.0006435216055251658
I1
I-1
tp140
a((F54.000003814697266
F121.20000457763672
tF37.200000762939453
F311.54180908203125
F0.0014708234230056405
I1
I-1
tp141
a((F50.400001525878906
F118.80000305175781
tF37.200000762939453
F294.05615234375
F0.00030684738885611296
I1
I-1
tp142
a((F164.40000915527344
F62.400001525878906
tF37.200000762939453
F153.34663391113281
F0.00018971881945617497
I1
I-1
tp143
a((F164.40000915527344
F102.00000762939453
tF37.200000762939453
F230.88705444335938
F0.001474753487855196
I1
I-1
tp144
a((F192
F100.80000305175781
tF37.200000762939453
F325.28781127929688
F0.0007541936356574297
I1
I-1
tp145
a((F242.40000915527344
F99.600006103515625
tF37.200000762939453
F119.36885070800781
F0.0058400281704962254
I1
I-1
tp146
a((F186
F99.600006103515625
tF37.200000762939453
F302.1051025390625
F0.00052842579316347837
I1
I-1
tp147
a((F190.80000305175781
F98.400001525878906
tF37.200000762939453
F315.288818359375
F0.0011792737059295177
I1
I-1
tp148
a((F186
F96
tF37.200000762939453
F294.49002075195312
F0.00035347827360965312
I1
I-1
tp149
a((F160.80000305175781
F72
tF37.200000762939453
F140.95858764648438
F0.00040074827848002315
I1
I-1
tp150
a((F123.60000610351562
F37.200000762939453
tF37.200000762939453
F76.055732727050781
F0.001823095022700727
I1
I-1
tp151
a((F135.60000610351562
F85.200004577636719
tF37.200000762939453
F317.36041259765625
F0.00032298336736857891
I1
I-1
tp152
a((F157.20001220703125
F74.400001525878906
tF37.200000762939453
F167.68914794921875
F0.0007725881296209991
I1
I-1
tp153
a((F147.60000610351562
F82.800003051757812
tF37.200000762939453
F312.76995849609375
F0.00092474691336974502
I1
I-1
tp154
a((F132
F82.800003051757812
tF37.200000762939453
F280.82012939453125
F0.00041539027006365359
I1
I-1
tp155
a((F115.20000457763672
F82.800003051757812
tF37.200000762939453
F156.79702758789062
F0.0027931546792387962
I1
I-1
tp156
a((F127.20000457763672
F75.600006103515625
tF37.200000762939453
F288.97042846679688
F0.0023307688534259796
I1
I-1
tp157
a((F153.60000610351562
F80.400001525878906
tF37.200000762939453
F281.85760498046875
F0.0035811439156532288
I1
I-1
tp158
a((F151.20001220703125
F76.800003051757812
tF37.200000762939453
F240.02554321289062
F0.0037202362436801195
I1
I-1
tp159
a((F129.60000610351562
F79.200004577636719
tF37.200000762939453
F283.33721923828125
F0.00026787290698848665
I1
I-1
tp160
a((F199.20001220703125
F90
tF37.200000762939453
F316.40664672851562
F3.8818843250965074e-08
I1
I-1
tp161
a((F104.40000152587891
F115.20000457763672
tF37.200000762939453
F259.80462646484375
F8.5164274423732422e-06
I1
I-1
tp162
a((F123.60000610351562
F80.400001525878906
tF37.200000762939453
F272.75576782226562
F8.0110105045605451e-05
I1
I-1
tp163
a((F258
F176.40000915527344
tF37.200000762939453
F110.71186828613281
F2.8107313028158387e-06
I1
I-1
tp164
a((F186
F80.400001525878906
tF37.200000762939453
F341.00045776367188
F1.8457762053003535e-05
I1
I-1
tp165
a((F178.80000305175781
F39.600002288818359
tF37.200000762939453
F341.16064453125
F5.0902863222290762e-06
I1
I-1
tp166
a((F254.40000915527344
F174
tF37.200000762939453
F115.4302978515625
F5.9835538195329718e-06
I1
I-1
tp167
a((F258
F170.40000915527344
tF37.200000762939453
F110.12966156005859
F1.9052816924158833e-06
I1
I-1
tp168
a((F114.00000762939453
F75.600006103515625
tF37.200000762939453
F305.34033203125
F6.5357184212189168e-05
I1
I-1
tp169
a((F247.20001220703125
F166.80000305175781
tF37.200000762939453
F118.53952026367188
F1.0342580026190262e-05
I1
I-1
tp170
a((F249.60000610351562
F163.20001220703125
tF37.200000762939453
F114.53187561035156
F8.8094066086341627e-06
I1
I-1
tp171
a((F176.40000915527344
F84
tF37.200000762939453
F8.4101390838623047
F4.5074707486492116e-06
I1
I-1
tp172
a((F99.600006103515625
F159.60000610351562
tF37.200000762939453
F283.74322509765625
F0.00016047435929067433
I1
I-1
tp173
a((F108.00000762939453
F115.20000457763672
tF37.200000762939453
F256.23629760742188
F8.2493301306385547e-05
I1
I-1
tp174
a((F164.40000915527344
F64.800003051757812
tF37.200000762939453
F132.72450256347656
F0.00011103069118689746
I1
I-1
tp175
a((F122.40000152587891
F111.60000610351562
tF37.200000762939453
F293.20663452148438
F9.4000279204919934e-05
I1
I-1
tp176
a((F152.40000915527344
F85.200004577636719
tF37.200000762939453
F350.06036376953125
F1.6073840015451424e-05
I1
I-1
tp177
a((F70.800003051757812
F152.40000915527344
tF37.200000762939453
F186.40995788574219
F4.7586031541868579e-06
I1
I-1
tp178
a((F110.40000152587891
F116.40000152587891
tF37.200000762939453
F249.40237426757812
F0.00013438021414913237
I1
I-1
tp179
a((F118.80000305175781
F88.800003051757812
tF37.200000762939453
F143.75552368164062
F0.00011471733887447044
I1
I-1
tp180
a((F259.20001220703125
F88.800003051757812
tF37.200000762939453
F288.679931640625
F0.00010373034456279129
I1
I-1
tp181
a((F67.200004577636719
F120.00000762939453
tF37.200000762939453
F261.35723876953125
F1.3159610716684256e-05
I1
I-1
tp182
a((F124.80000305175781
F112.80000305175781
tF37.200000762939453
F302.92025756835938
F4.849565084441565e-05
I1
I-1
tp183
a((F120.00000762939453
F151.20001220703125
tF37.200000762939453
F193.24166870117188
F1.4162744264467619e-05
I1
I-1
tp184
a((F240.00001525878906
F92.400001525878906
tF37.200000762939453
F260.2098388671875
F2.0603984012268484e-05
I1
I-1
tp185
a((F164.40000915527344
F67.200004577636719
tF37.200000762939453
F124.03956604003906
F9.1638088633771986e-05
I1
I-1
tp186
a((F116.40000152587891
F45.600002288818359
tF37.200000762939453
F11.895265579223633
F0.00010838780872290954
I1
I-1
tp187
a((F91.200004577636719
F96
tF37.200000762939453
F250.37211608886719
F1.617046473256778e-05
I1
I-1
tp188
a((F104.40000152587891
F96
tF37.200000762939453
F206.42985534667969
F1.6232955886152922e-06
I1
I-1
tp189
a((F108.00000762939453
F70.800003051757812
tF37.200000762939453
F354.6182861328125
F3.3916880056494847e-05
I1
I-1
tp190
a((F235.20001220703125
F136.80000305175781
tF37.200000762939453
F284.58480834960938
F0.00016415462596341968
I1
I-1
tp191
a((F202.80000305175781
F97.200004577636719
tF37.200000762939453
F266.55242919921875
F1.1932376764889341e-05
I1
I-1
tp192
a((F87.600006103515625
F98.400001525878906
tF37.200000762939453
F241.971923828125
F9.9839144240831956e-06
I1
I-1
tp193
a((F256.80001831054688
F128.40000915527344
tF37.200000762939453
F191.86128234863281
F9.3692788141197525e-06
I1
I-1
tp194
a((F78
F50.400001525878906
tF37.200000762939453
F201.83444213867188
F-9.1259141754562734e-07
I1
I-1
tp195
a((F81.600006103515625
F44.400001525878906
tF37.200000762939453
F214.34747314453125
F-4.8836648147698725e-07
I1
I-1
tp196
a((F72
F112.80000305175781
tF37.200000762939453
F215.95932006835938
F-8.1111437566505629e-07
I1
I-1
tp197
a((F76.800003051757812
F52.800003051757812
tF37.200000762939453
F197.31436157226562
F-1.2068225032635382e-06
I1
I-1
tp198
a((F76.800003051757812
F73.200004577636719
tF37.200000762939453
F164.06253051757812
F-1.0640636673997506e-06
I1
I-1
tp199
a((F109.20000457763672
F73.200004577636719
tF37.200000762939453
F353.67132568359375
F-1.1545688494152273e-06
I1
I-1
tp200
a((F253.44000244140625
F174.24000549316406
tF44.640003204345703
F111.80898284912109
F4.6025093070056755e-06
I2
I-1
tp201
a((F116.64000701904297
F46.080001831054688
tF44.640003204345703
F8.1339540481567383
F0.0003507989167701453
I2
I-1
tp202
a((F158.40000915527344
F46.080001831054688
tF44.640003204345703
F163.3887939453125
F1.9014780264114961e-05
I2
I-1
tp203
a((F167.04000854492188
F44.640003204345703
tF44.640003204345703
F317.37435913085938
F0.0023744138889014721
I2
I-1
tp204
a((F246.24000549316406
F167.04000854492188
tF44.640003204345703
F109.83474731445312
F1.0166631909669377e-05
I2
I-1
tp205
a((F120.96000671386719
F161.27999877929688
tF44.640003204345703
F173.67189025878906
F0.0022745018359273672
I2
I-1
tp206
a((F174.24000549316406
F50.400001525878906
tF44.640003204345703
F338.16107177734375
F0.00029401975916698575
I2
I-1
tp207
a((F99.360000610351562
F159.84001159667969
tF44.640003204345703
F311.39825439453125
F7.4840507295448333e-05
I2
I-1
tp208
a((F155.52000427246094
F53.280002593994141
tF44.640003204345703
F178.14295959472656
F0.0021238985937088728
I2
I-1
tp209
a((F148.32000732421875
F156.96000671386719
tF44.640003204345703
F265.00643920898438
F0.0010552519233897328
I2
I-1
tp210
a((F105.12000274658203
F56.160003662109375
tF44.640003204345703
F327.68255615234375
F5.15004649059847e-05
I2
I-1
tp211
a((F118.08000183105469
F156.96000671386719
tF44.640003204345703
F200.77235412597656
F0.001585433492437005
I2
I-1
tp212
a((F161.27999877929688
F57.600002288818359
tF44.640003204345703
F189.56178283691406
F0.0003374209045432508
I2
I-1
tp213
a((F185.760009765625
F154.08000183105469
tF44.640003204345703
F14.490324974060059
F0.0034465114586055279
I2
I-1
tp214
a((F70.560005187988281
F152.63999938964844
tF44.640003204345703
F196.44883728027344
F7.6990554589428939e-06
I2
I-1
tp215
a((F113.76000213623047
F149.760009765625
tF44.640003204345703
F208.43916320800781
F0.0035122460685670376
I2
I-1
tp216
a((F162.72000122070312
F61.920001983642578
tF44.640003204345703
F156.1024169921875
F0.00044995688949711621
I2
I-1
tp217
a((F164.16000366210938
F64.800003051757812
tF44.640003204345703
F122.93162536621094
F0.00032550218747928739
I2
I-1
tp218
a((F93.600006103515625
F148.32000732421875
tF44.640003204345703
F341.75198364257812
F0.0012657877523452044
I2
I-1
tp219
a((F105.12000274658203
F66.240005493164062
tF44.640003204345703
F13.916028022766113
F1.5038243873277679e-05
I2
I-1
tp220
a((F162.72000122070312
F67.680000305175781
tF44.640003204345703
F124.08770751953125
F0.00026779493782669306
I2
I-1
tp221
a((F195.84001159667969
F142.56001281738281
tF44.640003204345703
F287.75314331054688
F0.001536732423119247
I2
I-1
tp222
a((F159.84001159667969
F72
tF44.640003204345703
F131.337646484375
F0.0005764523521065712
I2
I-1
tp223
a((F234.72001647949219
F136.80000305175781
tF44.640003204345703
F315.0264892578125
F6.8094450398348272e-05
I2
I-1
tp224
a((F109.44000244140625
F73.44000244140625
tF44.640003204345703
F6.438499927520752
F0.0001446444948669523
I2
I-1
tp225
a((F156.96000671386719
F73.44000244140625
tF44.640003204345703
F146.39456176757812
F0.00076038582483306527
I2
I-1
tp226
a((F113.76000213623047
F74.8800048828125
tF44.640003204345703
F323.25942993164062
F0.00018334551714360714
I2
I-1
tp227
a((F126.72000122070312
F74.8800048828125
tF44.640003204345703
F284.98190307617188
F0.0016286273021250963
I2
I-1
tp228
a((F253.44000244140625
F133.91999816894531
tF44.640003204345703
F200.50593566894531
F0.0010843483032658696
I2
I-1
tp229
a((F249.12001037597656
F126.72000122070312
tF44.640003204345703
F210.29177856445312
F0.003413364989683032
I2
I-1
tp230
a((F151.20001220703125
F76.319999694824219
tF44.640003204345703
F229.74955749511719
F0.002115556737408042
I2
I-1
tp231
a((F158.40000915527344
F76.319999694824219
tF44.640003204345703
F130.70982360839844
F0.0011752463178709149
I2
I-1
tp232
a((F164.16000366210938
F77.760002136230469
tF44.640003204345703
F100.75203704833984
F5.799296559416689e-06
I2
I-1
tp233
a((F119.52000427246094
F79.200004577636719
tF44.640003204345703
F280.0484619140625
F0.00096336315618827939
I2
I-1
tp234
a((F129.60000610351562
F79.200004577636719
tF44.640003204345703
F271.84176635742188
F0.00093458883929997683
I2
I-1
tp235
a((F154.08000183105469
F80.639999389648438
tF44.640003204345703
F262.61187744140625
F0.0033985432237386703
I2
I-1
tp236
a((F187.20001220703125
F80.639999389648438
tF44.640003204345703
F339.12579345703125
F1.0222956916550174e-05
I2
I-1
tp237
a((F228.96000671386719
F125.28000640869141
tF44.640003204345703
F342.0123291015625
F0.0013380571035668254
I2
I-1
tp238
a((F146.8800048828125
F82.080001831054688
tF44.640003204345703
F322.58297729492188
F0.0013528325362131
I2
I-1
tp239
a((F56.160003662109375
F125.28000640869141
tF44.640003204345703
F317.68975830078125
F0.00070783426053822041
I2
I-1
tp240
a((F115.20000457763672
F83.520004272460938
tF44.640003204345703
F152.15373229980469
F0.0019613718613982201
I2
I-1
tp241
a((F177.12001037597656
F83.520004272460938
tF44.640003204345703
F351.80926513671875
F5.5962273108889349e-06
I2
I-1
tp242
a((F106.56000518798828
F123.84000396728516
tF44.640003204345703
F196.53170776367188
F0.004154848400503397
I2
I-1
tp243
a((F135.36000061035156
F84.960006713867188
tF44.640003204345703
F323.238525390625
F0.00051710504340007901
I2
I-1
tp244
a((F142.56001281738281
F84.960006713867188
tF44.640003204345703
F339.68789672851562
F0.00017877528443932533
I2
I-1
tp245
a((F138.24000549316406
F86.400001525878906
tF44.640003204345703
F347.63369750976562
F0.00014609571371693164
I2
I-1
tp246
a((F151.20001220703125
F86.400001525878906
tF44.640003204345703
F331.162109375
F0.00026648910716176033
I2
I-1
tp247
a((F47.520000457763672
F122.40000152587891
tF44.640003204345703
F295.75479125976562
F0.00062685500597581267
I2
I-1
tp248
a((F54.720001220703125
F120.96000671386719
tF44.640003204345703
F312.61074829101562
F0.00094484537839889526
I2
I-1
tp249
a((F118.08000183105469
F89.280006408691406
tF44.640003204345703
F158.52287292480469
F0.00023460939701180905
I2
I-1
tp250
a((F67.680000305175781
F119.52000427246094
tF44.640003204345703
F252.00592041015625
F7.5139587352168746e-06
I2
I-1
tp251
a((F50.400001525878906
F119.52000427246094
tF44.640003204345703
F298.22552490234375
F0.00090406765230000019
I2
I-1
tp252
a((F241.92001342773438
F92.160003662109375
tF44.640003204345703
F256.82281494140625
F6.4083316829055548e-05
I2
I-1
tp253
a((F120.96000671386719
F93.600006103515625
tF44.640003204345703
F151.15998840332031
F0.00017341577040497214
I2
I-1
tp254
a((F246.24000549316406
F93.600006103515625
tF44.640003204345703
F256.73489379882812
F0.00026735462597571313
I2
I-1
tp255
a((F109.44000244140625
F116.64000701904297
tF44.640003204345703
F255.57890319824219
F0.00034058839082717896
I2
I-1
tp256
a((F106.56000518798828
F115.20000457763672
tF44.640003204345703
F257.30712890625
F9.2060639872215688e-05
I2
I-1
tp257
a((F103.68000793457031
F115.20000457763672
tF44.640003204345703
F257.6334228515625
F1.8318321963306516e-05
I2
I-1
tp258
a((F185.760009765625
F96.480003356933594
tF44.640003204345703
F298.10726928710938
F0.00072103331331163645
I2
I-1
tp259
a((F203.04000854492188
F96.480003356933594
tF44.640003204345703
F254.98699951171875
F5.7379434110771399e-06
I2
I-1
tp260
a((F126.72000122070312
F97.920005798339844
tF44.640003204345703
F99.375320434570312
F5.231640170677565e-05
I2
I-1
tp261
a((F122.40000152587891
F112.32000732421875
tF44.640003204345703
F295.16329956054688
F0.00011288211680948734
I2
I-1
tp262
a((F190.08000183105469
F97.920005798339844
tF44.640003204345703
F314.07904052734375
F0.0011763215297833085
I2
I-1
tp263
a((F161.27999877929688
F99.360000610351562
tF44.640003204345703
F233.28944396972656
F0.0025263642892241478
I2
I-1
tp264
a((F182.8800048828125
F99.360000610351562
tF44.640003204345703
F295.0252685546875
F0.00051816896302625537
I2
I-1
tp265
a((F128.16000366210938
F110.8800048828125
tF44.640003204345703
F326.33975219726562
F9.4037779490463436e-05
I2
I-1
tp266
a((F119.52000427246094
F110.8800048828125
tF44.640003204345703
F280.4007568359375
F1.9308958144392818e-05
I2
I-1
tp267
a((F241.92001342773438
F100.80000305175781
tF44.640003204345703
F196.96144104003906
F0.0045733964070677757
I2
I-1
tp268
a((F164.16000366210938
F102.24000549316406
tF44.640003204345703
F231.57241821289062
F0.0021958206780254841
I2
I-1
tp269
a((F191.52000427246094
F102.24000549316406
tF44.640003204345703
F318.8553466796875
F0.00076206837547942996
I2
I-1
tp270
a((F181.44000244140625
F95.040000915527344
tF44.640003204345703
F282.68948364257812
F-5.8273126342101023e-06
I2
I-1
tp271
a((F77.760002136230469
F50.400001525878906
tF44.640003204345703
F201.78179931640625
F-5.666507263413223e-07
I2
I-1
tp272
a((F103.68000793457031
F96.480003356933594
tF44.640003204345703
F190.07098388671875
F2.1356340766942594e-06
I2
I-1
tp273
a((F46.080001831054688
F118.08000183105469
tF44.640003204345703
F284.114013671875
F-4.3485079004312865e-06
I2
I-1
tp274
a((F56.160003662109375
F109.44000244140625
tF44.640003204345703
F294.07672119140625
F-1.351352665324157e-07
I2
I-1
tp275
a((F119.23200988769531
F110.59201049804688
tF53.568004608154297
F276.47964477539062
F0.00010293072409695014
I3
I-1
tp276
a((F60.480007171630859
F164.16001892089844
tF53.568004608154297
F328.18832397460938
F0.0015412773936986923
I3
I-1
tp277
a((F177.98402404785156
F55.296005249023438
tF53.568004608154297
F354.7669677734375
F0.00013559660874307156
I3
I-1
tp278
a((F105.40801239013672
F57.024005889892578
tF53.568004608154297
F304.42037963867188
F0.00017318548634648323
I3
I-1
tp279
a((F160.70401000976562
F57.024005889892578
tF53.568004608154297
F171.9566650390625
F0.00080832029925659299
I3
I-1
tp280
a((F127.87200927734375
F110.59201049804688
tF53.568004608154297
F325.93765258789062
F0.00036512489896267653
I3
I-1
tp281
a((F122.68801116943359
F107.13600921630859
tF53.568004608154297
F287.5576171875
F0.00027784475241787732
I3
I-1
tp282
a((F120.96001434326172
F160.70401000976562
tF53.568004608154297
F157.35137939453125
F0.0017925375141203403
I3
I-1
tp283
a((F164.16001892089844
F63.936004638671875
tF53.568004608154297
F130.14349365234375
F0.0004425271472427994
I3
I-1
tp284
a((F177.98402404785156
F63.936004638671875
tF53.568004608154297
F19.466342926025391
F0.00010814482084242627
I3
I-1
tp285
a((F105.40801239013672
F65.664009094238281
tF53.568004608154297
F45.097831726074219
F0.00013594752817880362
I3
I-1
tp286
a((F164.16001892089844
F105.40801239013672
tF53.568004608154297
F224.65640258789062
F0.00030923224403522909
I3
I-1
tp287
a((F164.16001892089844
F67.392005920410156
tF53.568004608154297
F115.79328918457031
F0.0004328920622356236
I3
I-1
tp288
a((F84.672004699707031
F114.04801177978516
tF53.568004608154297
F232.0205078125
F0.00023791825515218079
I3
I-1
tp289
a((F108.864013671875
F72.576004028320312
tF53.568004608154297
F38.918373107910156
F0.00021011577337048948
I3
I-1
tp290
a((F157.24801635742188
F72.576004028320312
tF53.568004608154297
F142.30393981933594
F0.0008611888624727726
I3
I-1
tp291
a((F160.70401000976562
F72.576004028320312
tF53.568004608154297
F125.44209289550781
F0.0013765646144747734
I3
I-1
tp292
a((F148.60801696777344
F155.52001953125
tF53.568004608154297
F260.5087890625
F0.0010455892188474536
I3
I-1
tp293
a((F114.04801177978516
F74.304008483886719
tF53.568004608154297
F347.01071166992188
F0.00036238034954294562
I3
I-1
tp294
a((F126.14401245117188
F76.032005310058594
tF53.568004608154297
F278.05075073242188
F0.0020021363161504269
I3
I-1
tp295
a((F152.06401062011719
F76.032005310058594
tF53.568004608154297
F222.25199890136719
F0.0017092649359256029
I3
I-1
tp296
a((F155.52001953125
F76.032005310058594
tF53.568004608154297
F157.14192199707031
F0.0021305093541741371
I3
I-1
tp297
a((F158.97601318359375
F77.760009765625
tF53.568004608154297
F139.95538330078125
F0.0010575300548225641
I3
I-1
tp298
a((F164.16001892089844
F77.760009765625
tF53.568004608154297
F107.93001556396484
F0.00013526839029509574
I3
I-1
tp299
a((F186.6240234375
F152.06401062011719
tF53.568004608154297
F25.326992034912109
F0.0034050592221319675
I3
I-1
tp300
a((F146.88002014160156
F81.216011047363281
tF53.568004608154297
F318.70108032226562
F0.0014379145577549934
I3
I-1
tp301
a((F155.52001953125
F81.216011047363281
tF53.568004608154297
F253.02783203125
F0.0023456036578863859
I3
I-1
tp302
a((F112.32000732421875
F148.60801696777344
tF53.568004608154297
F207.52157592773438
F0.0043662730604410172
I3
I-1
tp303
a((F114.04801177978516
F82.944007873535156
tF53.568004608154297
F175.42979431152344
F0.0018638818291947246
I3
I-1
tp304
a((F103.68000793457031
F115.77600860595703
tF53.568004608154297
F254.17301940917969
F0.00043713831109926105
I3
I-1
tp305
a((F136.51200866699219
F84.672004699707031
tF53.568004608154297
F335.56985473632812
F0.00069826224353164434
I3
I-1
tp306
a((F143.42401123046875
F84.672004699707031
tF53.568004608154297
F339.87063598632812
F0.00072924623964354396
I3
I-1
tp307
a((F152.06401062011719
F84.672004699707031
tF53.568004608154297
F315.63839721679688
F0.0010399320162832737
I3
I-1
tp308
a((F93.31201171875
F148.60801696777344
tF53.568004608154297
F319.81814575195312
F0.0017053014598786831
I3
I-1
tp309
a((F196.99201965332031
F141.69601440429688
tF53.568004608154297
F332.77398681640625
F0.0016549716237932444
I3
I-1
tp310
a((F191.80801391601562
F101.95201110839844
tF53.568004608154297
F303.30694580078125
F0.0011421578237786889
I3
I-1
tp311
a((F119.23200988769531
F88.128005981445312
tF53.568004608154297
F210.00379943847656
F0.00055339792743325233
I3
I-1
tp312
a((F221.18402099609375
F91.584007263183594
tF53.568004608154297
F234.9520263671875
F0.00014911459584254771
I3
I-1
tp313
a((F122.68801116943359
F93.31201171875
tF53.568004608154297
F230.62637329101562
F0.00047440678463317454
I3
I-1
tp314
a((F240.1920166015625
F93.31201171875
tF53.568004608154297
F252.92344665527344
F0.00073272775625810027
I3
I-1
tp315
a((F243.64802551269531
F93.31201171875
tF53.568004608154297
F257.62921142578125
F0.00081942928954958916
I3
I-1
tp316
a((F243.64802551269531
F100.22400665283203
tF53.568004608154297
F234.40736389160156
F0.0034640573430806398
I3
I-1
tp317
a((F183.16801452636719
F95.040008544921875
tF53.568004608154297
F294.56405639648438
F0.00017793884035199881
I3
I-1
tp318
a((F186.6240234375
F95.040008544921875
tF53.568004608154297
F300.76895141601562
F0.00088393245823681355
I3
I-1
tp319
a((F229.82402038574219
F124.416015625
tF53.568004608154297
F318.59774780273438
F0.0016234167851507664
I3
I-1
tp320
a((F53.568004608154297
F120.96001434326172
tF53.568004608154297
F301.384521484375
F0.0015968285733833909
I3
I-1
tp321
a((F160.70401000976562
F98.496009826660156
tF53.568004608154297
F227.35227966308594
F0.0012983571505174041
I3
I-1
tp322
a((F55.296005249023438
F124.416015625
tF53.568004608154297
F301.51235961914062
F0.0014088641619309783
I3
I-1
tp323
a((F107.13600921630859
F122.68801116943359
tF53.568004608154297
F238.53628540039062
F0.0029675799887627363
I3
I-1
tp324
a((F203.90402221679688
F96.76800537109375
tF53.568004608154297
F252.05831909179688
F2.2967808490648167e-06
I3
I-1
tp325
a((F114.04801177978516
F120.96001434326172
tF53.568004608154297
F267.54977416992188
F8.665543282404542e-05
I3
I-1
tp326
a((F127.87200927734375
F96.76800537109375
tF53.568004608154297
F349.9996337890625
F8.7658547272440046e-05
I3
I-1
tp327
a((F181.44001770019531
F98.496009826660156
tF53.568004608154297
F290.29367065429688
F7.9311139415949583e-05
I3
I-1
tp328
a((F222.91201782226562
F95.040008544921875
tF53.568004608154297
F236.02226257324219
F6.036681224941276e-05
I3
I-1
tp329
a((F86.400009155273438
F119.23200988769531
tF53.568004608154297
F234.017822265625
F9.557646990288049e-06
I3
I-1
tp330
a((F100.22400665283203
F95.040008544921875
tF53.568004608154297
F189.36953735351562
F3.3719213661242975e-06
I3
I-1
tp331
a((F57.024005889892578
F127.87200927734375
tF53.568004608154297
F300.15963745117188
F8.5490901255980134e-05
I3
I-1
tp332
a((F67.392005920410156
F119.23200988769531
tF53.568004608154297
F253.54122924804688
F3.181760803272482e-06
I3
I-1
tp333
a((F177.98402404785156
F82.944007873535156
tF53.568004608154297
F327.27578735351562
F5.2287973630882334e-06
I3
I-1
tp334
a((F103.68000793457031
F60.480007171630859
tF53.568004608154297
F301.45355224609375
F9.6290881629101932e-05
I3
I-1
tp335
a((F177.98402404785156
F60.480007171630859
tF53.568004608154297
F7.909916877746582
F8.2612954429350793e-05
I3
I-1
tp336
a((F193.5360107421875
F105.40801239013672
tF53.568004608154297
F300.166015625
F5.9731552028097212e-05
I3
I-1
tp337
a((F93.31201171875
F69.120010375976562
tF53.568004608154297
F148.95635986328125
F9.0346162551213638e-07
I3
I-1
tp338
a((F163.81442260742188
F64.281608581542969
tF64.281608581542969
F115.02724456787109
F0.00068852672120556235
I4
I-1
tp339
a((F149.29922485351562
F153.44642639160156
tF64.281608581542969
F237.83152770996094
F0.0010088932467624545
I4
I-1
tp340
a((F186.6240234375
F151.37281799316406
tF64.281608581542969
F33.117885589599609
F0.0031616364140063524
I4
I-1
tp341
a((F111.97441864013672
F147.22561645507812
tF64.281608581542969
F180.23275756835938
F0.0031970622949302197
I4
I-1
tp342
a((F93.31201171875
F147.22561645507812
tF64.281608581542969
F226.74954223632812
F0.001880121068097651
I4
I-1
tp343
a((F159.66722106933594
F70.502410888671875
tF64.281608581542969
F156.7318115234375
F0.0010745038744062185
I4
I-1
tp344
a((F196.99203491210938
F141.00482177734375
tF64.281608581542969
F12.120453834533691
F0.0016632647020742297
I4
I-1
tp345
a((F228.09603881835938
F124.416015625
tF64.281608581542969
F231.05964660644531
F0.0019154760520905256
I4
I-1
tp346
a((F105.75361633300781
F124.416015625
tF64.281608581542969
F249.79318237304688
F0.0026999118272215128
I4
I-1
tp347
a((F114.04801940917969
F74.649612426757812
tF64.281608581542969
F15.473616600036621
F0.00089437235146760941
I4
I-1
tp348
a((F107.82721710205078
F116.12161254882812
tF64.281608581542969
F256.83905029296875
F0.00073349475860595703
I4
I-1
tp349
a((F126.48961639404297
F76.723213195800781
tF64.281608581542969
F306.36822509765625
F0.0015201832866296172
I4
I-1
tp350
a((F151.37281799316406
F76.723213195800781
tF64.281608581542969
F234.73829650878906
F0.0010773747926577926
I4
I-1
tp351
a((F159.66722106933594
F76.723213195800781
tF64.281608581542969
F159.92138671875
F0.0010959194041788578
I4
I-1
tp352
a((F190.77122497558594
F101.60641479492188
tF64.281608581542969
F286.83819580078125
F0.0016289331251755357
I4
I-1
tp353
a((F116.12161254882812
F78.79681396484375
tF64.281608581542969
F325.07568359375
F0.0016188324661925435
I4
I-1
tp354
a((F161.74082946777344
F99.532814025878906
tF64.281608581542969
F228.19570922851562
F0.00098995212465524673
I4
I-1
tp355
a((F114.04801940917969
F82.944015502929688
tF64.281608581542969
F259.52337646484375
F0.0019145607948303223
I4
I-1
tp356
a((F149.29922485351562
F82.944015502929688
tF64.281608581542969
F297.66415405273438
F0.001049854326993227
I4
I-1
tp357
a((F155.52001953125
F82.944015502929688
tF64.281608581542969
F250.49301147460938
F0.001463328255340457
I4
I-1
tp358
a((F190.77122497558594
F97.459213256835938
tF64.281608581542969
F287.02127075195312
F0.0010497807525098324
I4
I-1
tp359
a((F138.93121337890625
F85.017608642578125
tF64.281608581542969
F312.26763916015625
F0.00085414689965546131
I4
I-1
tp360
a((F143.07841491699219
F85.017608642578125
tF64.281608581542969
F305.26406860351562
F0.0011338932672515512
I4
I-1
tp361
a((F147.22561645507812
F87.091209411621094
tF64.281608581542969
F297.811279296875
F0.0013318858109414577
I4
I-1
tp362
a((F186.6240234375
F95.385612487792969
tF64.281608581542969
F297.971435546875
F0.0010481426725164056
I4
I-1
tp363
a((F118.19521331787109
F89.164810180664062
tF64.281608581542969
F267.66458129882812
F0.00088166294153779745
I4
I-1
tp364
a((F147.22561645507812
F91.238410949707031
tF64.281608581542969
F296.74490356445312
F0.00069900951348245144
I4
I-1
tp365
a((F178.32962036132812
F64.281608581542969
tF64.281608581542969
F20.508556365966797
F0.00027527654310688376
I4
I-1
tp366
a((F122.34241485595703
F93.31201171875
tF64.281608581542969
F290.326171875
F0.00060377956833690405
I4
I-1
tp367
a((F105.75361633300781
F66.355209350585938
tF64.281608581542969
F302.429443359375
F0.00031666288850829005
I4
I-1
tp368
a((F109.90081787109375
F72.576011657714844
tF64.281608581542969
F55.224449157714844
F0.0005809987778775394
I4
I-1
tp369
a((F126.48961639404297
F97.459213256835938
tF64.281608581542969
F312.73654174804688
F0.00033075601095333695
I4
I-1
tp370
a((F128.56321716308594
F109.90081787109375
tF64.281608581542969
F313.26492309570312
F0.00031425186898559332
I4
I-1
tp371
a((F163.81442260742188
F76.723213195800781
tF64.281608581542969
F150.53334045410156
F0.00051396212074905634
I4
I-1
tp372
a((F178.32962036132812
F82.944015502929688
tF64.281608581542969
F318.98712158203125
F5.1988640734634828e-06
I4
I-1
tp373
a((F219.8016357421875
F91.238410949707031
tF64.281608581542969
F238.31100463867188
F0.00011950123735005036
I4
I-1
tp374
a((F87.091209411621094
F68.428810119628906
tF64.281608581542969
F163.43798828125
F7.0314184995368123e-05
I4
I-1
tp375
a((F93.31201171875
F68.428810119628906
tF64.281608581542969
F156.72026062011719
F5.4761443607276306e-05
I4
I-1
tp376
a((F180.40322875976562
F99.532814025878906
tF64.281608581542969
F292.78564453125
F7.2302056651096791e-05
I4
I-1
tp377
a((F138.93121337890625
F97.459213256835938
tF64.281608581542969
F318.31887817382812
F9.781528206076473e-05
I4
I-1
tp378
a((F228.09603881835938
F87.091209411621094
tF64.281608581542969
F245.05252075195312
F1.2890668585896492e-05
I4
I-1
tp379
a((F172.10882568359375
F72.576011657714844
tF64.281608581542969
F12.704867362976074
F0.00016998517094179988
I4
I-1
tp380
a((F209.43362426757812
F124.416015625
tF64.281608581542969
F243.88795471191406
F3.6220633774064481e-05
I4
I-1
tp381
a((F122.34241485595703
F105.75361633300781
tF64.281608581542969
F298.14434814453125
F0.00026352165150456131
I4
I-1
tp382
a((F192.84483337402344
F105.75361633300781
tF64.281608581542969
F282.64865112304688
F0.00019260501721873879
I4
I-1
tp383
a((F93.31201171875
F74.649612426757812
tF64.281608581542969
F140.81558227539062
F0.00018800819816533476
I4
I-1
tp384
a((F124.416015625
F118.19521331787109
tF64.281608581542969
F307.17990112304688
F5.7202607422368601e-05
I4
I-1
tp385
a((F87.091209411621094
F118.19521331787109
tF64.281608581542969
F235.77285766601562
F4.9610629503149539e-05
I4
I-1
tp386
a((F118.19521331787109
F74.649612426757812
tF64.281608581542969
F345.78536987304688
F0.0002583162859082222
I4
I-1
tp387
a((F132.71041870117188
F97.459213256835938
tF64.281608581542969
F320.90618896484375
F2.3440677978214808e-05
I4
I-1
tp388
a((F85.017608642578125
F114.04801940917969
tF64.281608581542969
F236.60076904296875
F0.00022582568635698408
I4
I-1
tp389
a((F163.81442260742188
F107.82721710205078
tF64.281608581542969
F226.16397094726562
F3.6299852581578307e-06
I4
I-1
tp390
a((F109.48610687255859
F77.137939453125
tF77.137939453125
F203.23112487792969
F0.0013630802277475595
I5
I-1
tp391
a((F102.02114105224609
F79.626258850097656
tF77.137939453125
F187.69415283203125
F0.0001978157670237124
I5
I-1
tp392
a((F131.88099670410156
F82.114578247070312
tF77.137939453125
F305.41317749023438
F0.00095999630866572261
I5
I-1
tp393
a((F149.29924011230469
F82.114578247070312
tF77.137939453125
F217.15171813964844
F0.001017733127810061
I5
I-1
tp394
a((F156.76419067382812
F82.114578247070312
tF77.137939453125
F238.05941772460938
F0.0011573474621400237
I5
I-1
tp395
a((F179.15908813476562
F82.114578247070312
tF77.137939453125
F316.52288818359375
F8.0040026659844443e-06
I5
I-1
tp396
a((F114.46274566650391
F84.602897644042969
tF77.137939453125
F277.790283203125
F0.0015197505708783865
I5
I-1
tp397
a((F126.90435028076172
F84.602897644042969
tF77.137939453125
F311.11480712890625
F0.00044069410068914294
I5
I-1
tp398
a((F139.345947265625
F84.602897644042969
tF77.137939453125
F274.60723876953125
F0.0019937711767852306
I5
I-1
tp399
a((F146.8109130859375
F87.091217041015625
tF77.137939453125
F244.70761108398438
F0.0013171540340408683
I5
I-1
tp400
a((F221.46052551269531
F89.579544067382812
tF77.137939453125
F245.10931396484375
F0.00019050510309170932
I5
I-1
tp401
a((F121.92771148681641
F92.067863464355469
tF77.137939453125
F299.4747314453125
F0.00066519813844934106
I5
I-1
tp402
a((F146.8109130859375
F92.067863464355469
tF77.137939453125
F256.32809448242188
F0.00077803933527320623
I5
I-1
tp403
a((F204.04228210449219
F94.556182861328125
tF77.137939453125
F256.56942749023438
F5.5711948334646877e-06
I5
I-1
tp404
a((F126.90435028076172
F97.044502258300781
tF77.137939453125
F296.51547241210938
F0.00060266582295298576
I5
I-1
tp405
a((F131.88099670410156
F97.044502258300781
tF77.137939453125
F293.2005615234375
F0.00027648583636619151
I5
I-1
tp406
a((F189.11236572265625
F97.044502258300781
tF77.137939453125
F279.6710205078125
F0.0012107022339478135
I5
I-1
tp407
a((F161.7408447265625
F99.532821655273438
tF77.137939453125
F248.43836975097656
F0.00081558298552408814
I5
I-1
tp408
a((F216.48388671875
F99.532821655273438
tF77.137939453125
F250.09947204589844
F-0.00010336064588045701
I5
I-1
tp409
a((F191.60069274902344
F102.02114105224609
tF77.137939453125
F270.50125122070312
F0.0013622988481074572
I5
I-1
tp410
a((F114.46274566650391
F104.50946807861328
tF77.137939453125
F266.0111083984375
F1.0158080840483308e-05
I5
I-1
tp411
a((F213.99557495117188
F104.50946807861328
tF77.137939453125
F255.77769470214844
F-0.00015694362809881568
I5
I-1
tp412
a((F121.92771148681641
F106.99778747558594
tF77.137939453125
F291.47906494140625
F0.00039455448859371245
I5
I-1
tp413
a((F92.067863464355469
F109.48610687255859
tF77.137939453125
F227.80181884765625
F-1.6922947907005437e-05
I5
I-1
tp414
a((F114.46274566650391
F109.48610687255859
tF77.137939453125
F266.9150390625
F1.9118699128739536e-05
I5
I-1
tp415
a((F126.90435028076172
F109.48610687255859
tF77.137939453125
F288.8502197265625
F0.00057180877774953842
I5
I-1
tp416
a((F211.50724792480469
F109.48610687255859
tF77.137939453125
F263.50491333007812
F-0.00019481967319734395
I5
I-1
tp417
a((F84.602897644042969
F114.46274566650391
tF77.137939453125
F243.44342041015625
F0.00021588496747426689
I5
I-1
tp418
a((F106.99778747558594
F116.95106506347656
tF77.137939453125
F251.13119506835938
F0.0010154602350667119
I5
I-1
tp419
a((F121.92771148681641
F116.95106506347656
tF77.137939453125
F287.13397216796875
F7.0638139732182026e-05
I5
I-1
tp420
a((F129.39266967773438
F116.95106506347656
tF77.137939453125
F275.85250854492188
F-2.0891729946015403e-05
I5
I-1
tp421
a((F82.114578247070312
F119.43939208984375
tF77.137939453125
F245.2177734375
F4.8419346967421006e-06
I5
I-1
tp422
a((F209.01893615722656
F124.41603088378906
tF77.137939453125
F293.03106689453125
F0.00040932823321782053
I5
I-1
tp423
a((F106.99778747558594
F126.90435028076172
tF77.137939453125
F260.40643310546875
F0.0025566250551491976
I5
I-1
tp424
a((F216.48388671875
F134.36930847167969
tF77.137939453125
F67.556427001953125
F-0.0010757694253697991
I5
I-1
tp425
a((F199.06564331054688
F136.85763549804688
tF77.137939453125
F18.437595367431641
F0.0018160190666094422
I5
I-1
tp426
a((F211.50724792480469
F136.85763549804688
tF77.137939453125
F48.415519714355469
F-0.0010167331201955676
I5
I-1
tp427
a((F122.42537689208984
F92.565528869628906
tF92.565528869628906
F289.6356201171875
F0.0010236345697194338
I6
I-1
tp428
a((F95.551513671875
F95.551513671875
tF92.565528869628906
F215.47599792480469
F1.584656274644658e-05
I6
I-1
tp429
a((F137.35530090332031
F95.551513671875
tF92.565528869628906
F267.44140625
F0.00091145077021792531
I6
I-1
tp430
a((F131.38333129882812
F98.537498474121094
tF92.565528869628906
F273.41232299804688
F0.00082700926577672362
I6
I-1
tp431
a((F161.24317932128906
F98.537498474121094
tF92.565528869628906
F279.8150634765625
F0.00052229198627173901
I6
I-1
tp432
a((F188.11703491210938
F98.537498474121094
tF92.565528869628906
F267.923095703125
F0.0010441874619573355
I6
I-1
tp433
a((F113.46742248535156
F104.50946807861328
tF92.565528869628906
F269.51971435546875
F0.00023509842867497355
I6
I-1
tp434
a((F119.43939208984375
F107.49545288085938
tF92.565528869628906
F271.94732666015625
F0.00048285673256032169
I6
I-1
tp435
a((F92.565528869628906
F110.48143768310547
tF92.565528869628906
F220.18466186523438
F-2.2415824787458405e-05
I6
I-1
tp436
a((F98.537498474121094
F110.48143768310547
tF92.565528869628906
F223.87701416015625
F-3.3621770853642374e-05
I6
I-1
tp437
a((F113.46742248535156
F110.48143768310547
tF92.565528869628906
F265.86639404296875
F7.267550245160237e-05
I6
I-1
tp438
a((F125.41136169433594
F110.48143768310547
tF92.565528869628906
F266.62222290039062
F0.0007643294520676136
I6
I-1
tp439
a((F101.52348327636719
F119.43939208984375
tF92.565528869628906
F237.06976318359375
F0.00096783688059076667
I6
I-1
tp440
a((F128.3973388671875
F119.43939208984375
tF92.565528869628906
F256.48959350585938
F2.6318704840377904e-05
I6
I-1
tp441
a.