(lp1
((F878.141845703125
F285.10830688476562
tF66
F113.19979858398438
F73162.7109375
I2
I1
tp2
a((F998.545654296875
F104.95256805419922
tF66
F293.60662841796875
F71544.71875
I2
I1
tp3
a((F954.52203369140625
F245.29876708984375
tF120
F108.10968017578125
F58122.5078125
I3
I-1
tp4
a((F940.5460205078125
F141.64717102050781
tF119
F285.99520874023438
F55952.375
I3
I-1
tp5
a((F532.43072509765625
F189.57926940917969
tF93
F347.80859375
F53256.375
I2
I1
tp6
a((F1011.7720947265625
F100.27164459228516
tF22
F24.586191177368164
F44888.87109375
I0
I1
tp7
a((F341.0419921875
F222.21762084960938
tF22
F339.14959716796875
F44335.69140625
I0
I-1
tp8
a((F864.85479736328125
F290.3900146484375
tF22
F201.37205505371094
F44224.6796875
I0
I1
tp9
a((F1000.6934204101562
F118.72565460205078
tF22
F111.29547119140625
F43607.21484375
I0
I1
tp10
a((F1008.5678100585938
F101.078369140625
tF32
F298.64453125
F43505.1875
I1
I1
tp11
a((F875.127685546875
F271.42572021484375
tF22
F289.9267578125
F42918.50390625
I0
I1
tp12
a((F379.43487548828125
F236.80616760253906
tF123
F88.222122192382812
F42646.60546875
I3
I-1
tp13
a((F1000.0834350585938
F115.75083923339844
tF32
F105.79225158691406
F41611.4140625
I1
I1
tp14
a((F876.08294677734375
F274.26242065429688
tF32
F287.4171142578125
F41381.7421875
I1
I1
tp15
a((F363.62484741210938
F233.10476684570312
tF89
F320.0057373046875
F41380.7265625
I2
I-1
tp16
a((F344.2244873046875
F223.52412414550781
tF32
F338.01864624023438
F40947.17578125
I1
I-1
tp17
a((F868.00921630859375
F289.43338012695312
tF32
F119.10468292236328
F40943.0625
I1
I1
tp18
a((F349.22247314453125
F225.74253845214844
tF46
F66.965629577636719
F40890.12109375
I1
I-1
tp19
a((F355.37619018554688
F228.29521179199219
tF66
F69.681900024414062
F40126.10546875
I2
I-1
tp20
a((F605.9586181640625
F262.66354370117188
tF134
F177.90249633789062
F39729.32421875
I3
I1
tp21
a((F509.78323364257812
F177.08004760742188
tF22
F256.12994384765625
F37389.3515625
I0
I-1
tp22
a((F497.50192260742188
F171.66775512695312
tF60
F264.79342651367188
F36977.828125
I2
I-1
tp23
a((F882.83319091796875
F141.68199157714844
tF92
F180.86936950683594
F35403.578125
I2
I1
tp24
a((F324.40997314453125
F200.30961608886719
tF126
F172.18074035644531
F34645.11328125
I3
I1
tp25
a((F410.48931884765625
F239.06185913085938
tF166
F87.583251953125
F33842.66015625
I3
I-1
tp26
a((F1071.1346435546875
F300.88531494140625
tF19
F100.33608245849609
F33804.02734375
I0
I1
tp27
a((F1073.7265625
F94.243194580078125
tF33
F258.77627563476562
F33692.74609375
I1
I1
tp28
a((F16.085851669311523
F375.27059936523438
tF23
F97.461601257324219
F33681.86328125
I0
I1
tp29
a((F585.83819580078125
F374.77316284179688
tF24
F172.5487060546875
F33656.76953125
I0
I1
tp30
a((F511.44705200195312
F178.43927001953125
tF17
F174.3231201171875
F33644.8046875
I0
I-1
tp31
a((F610.40155029296875
F375.1973876953125
tF24
F81.885482788085938
F33638.3046875
I0
I1
tp32
a((F1074.3934326171875
F297.29373168945312
tF35
F169.9110107421875
F33495.96875
I1
I1
tp33
a((F14.428349494934082
F376.58651733398438
tF16
F169.97053527832031
F33263.33203125
I0
I1
tp34
a((F1070.3863525390625
F301.60775756835938
tF15
F100.77825927734375
F33147.4609375
I0
I1
tp35
a((F584.43548583984375
F376.53787231445312
tF16
F99.689239501953125
F33139.83203125
I0
I1
tp36
a((F1070.1246337890625
F90.452445983886719
tF15
F262.61813354492188
F33137.65625
I0
I1
tp37
a((F879.33056640625
F225.20822143554688
tF171
F114.90721130371094
F32978.90625
I3
I-1
tp38
a((F1010.4286499023438
F246.19404602050781
tF90
F359.13787841796875
F31083.708984375
I2
I1
tp39
a((F882.54949951171875
F143.74259948730469
tF93
F189.00875854492188
F30825.30859375
I3
I1
tp40
a((F476.7811279296875
F153.69583129882812
tF122
F103.68318176269531
F28907.1875
I3
I-1
tp41
a((F516.8475341796875
F251.02998352050781
tF60
F249.79441833496094
F28265.39453125
I2
I1
tp42
a((F1011.0575561523438
F245.93324279785156
tF102
F0.877341628074646
F26078.232421875
I3
I1
tp43
a((F335.81192016601562
F181.17919921875
tF15
F3.8718011379241943
F25489.623046875
I0
I-1
tp44
a((F448.9862060546875
F244.84426879882812
tF128
F88.532806396484375
F25398.53125
I3
I-1
tp45
a((F537.26031494140625
F243.79731750488281
tF15
F276.04669189453125
F24602.7578125
I0
I1
tp46
a((F439.98233032226562
F148.35641479492188
tF161
F272.99981689453125
F24236.95703125
I3
I-1
tp47
a((F551.5914306640625
F228.76693725585938
tF110
F180.07766723632812
F24194.720703125
I3
I-1
tp48
a((F281.99981689453125
F260.45407104492188
tF126
F154.51898193359375
F24064.443359375
I3
I-1
tp49
a((F507.12860107421875
F244.6522216796875
tF22
F248.08692932128906
F23305.310546875
I0
I1
tp50
a((F281.33099365234375
F128.58503723144531
tF126
F206.83941650390625
F22936.1328125
I3
I-1
tp51
a((F508.32269287109375
F246.61944580078125
tF32
F248.64093017578125
F22004.525390625
I1
I1
tp52
a((F344.56683349609375
F172.71624755859375
tF44
F21.79743766784668
F21271.42578125
I1
I-1
tp53
a((F340.3836669921875
F176.48532104492188
tF31
F260.13729858398438
F21066.4296875
I1
I-1
tp54
a((F566.8775634765625
F134.48524475097656
tF124
F337.8909912109375
F20139.583984375
I3
I-1
tp55
a((F513.6925048828125
F274.103271484375
tF116
F65.349411010742188
F20113.8125
I3
I1
tp56
a((F532.01959228515625
F246.80509948730469
tF30
F278.8798828125
F19383.947265625
I1
I1
tp57
a((F372.0277099609375
F148.79116821289062
tF117
F265.05908203125
F19180.841796875
I3
I-1
tp58
a((F281.7835693359375
F243.60246276855469
tF92
F159.50570678710938
F18940.201171875
I2
I-1
tp59
a((F775.88275146484375
F196.36769104003906
tF125
F179.54843139648438
F18490.615234375
I3
I-1
tp60
a((F626.301513671875
F302.20468139648438
tF59
F4.4363007545471191
F18256.97265625
I2
I-1
tp61
a((F57.727855682373047
F302.68212890625
tF59
F5.5078639984130859
F17725.51171875
I2
I-1
tp62
a((F630.386474609375
F310.57421875
tF79
F5.3761029243469238
F17588.2421875
I2
I-1
tp63
a((F49.166599273681641
F279.96603393554688
tF14
F3.8565940856933594
F17016.4921875
I0
I-1
tp64
a((F54.526863098144531
F294.8936767578125
tF42
F4.3127379417419434
F16582.953125
I1
I-1
tp65
a((F349.83059692382812
F168.53457641601562
tF59
F29.381189346313477
F16556.76171875
I2
I-1
tp66
a((F623.180908203125
F294.1513671875
tF42
F5.0371789932250977
F16497.220703125
I1
I-1
tp67
a((F618.3306884765625
F279.9267578125
tF14
F4.7558712959289551
F16321.29296875
I0
I-1
tp68
a((F843.87799072265625
F111.52783203125
tF126
F325.9522705078125
F15375.541015625
I3
I-1
tp69
a((F826.255615234375
F196.14996337890625
tF82
F0.19860872626304626
F15126.837890625
I2
I1
tp70
a((F1008.1798706054688
F217.92649841308594
tF117
F335.84735107421875
F13879.0234375
I3
I1
tp71
a((F1006.3880615234375
F278.10806274414062
tF115
F27.1856689453125
F13447.4189453125
I3
I1
tp72
a((F309.21798706054688
F180.92778015136719
tF84
F187.15682983398438
F12437.341796875
I2
I1
tp73
a((F255.93447875976562
F196.30291748046875
tF78
F0.53462898731231689
F11256.69140625
I2
I1
tp74
a((F281.64743041992188
F225.4674072265625
tF59
F13.728830337524414
F9980.974609375
I2
I-1
tp75
a((F281.36248779296875
F164.10931396484375
tF58
F193.45494079589844
F9608.96484375
I2
I-1
tp76
a((F829.991943359375
F227.72398376464844
tF123
F14.974300384521484
F9129.43359375
I3
I1
tp77
a((F889.0863037109375
F175.61351013183594
tF113
F119.89083099365234
F9077.111328125
I3
I1
tp78
a((F950.87847900390625
F91.987068176269531
tF59
F268.43212890625
F7852.52880859375
I2
I1
tp79
a((F52.342521667480469
F289.50057983398438
tF31
F3.7914199829101562
F7795.16796875
I1
I-1
tp80
a((F829.001708984375
F173.75732421875
tF132
F350.72378540039062
F7550.03857421875
I3
I1
tp81
a((F498.53713989257812
F203.2584228515625
tF58
F89.241462707519531
F7457.21875
I2
I1
tp82
a((F707.59967041015625
F298.98922729492188
tF60
F90.96051025390625
F7408.48876953125
I2
I1
tp83
a((F138.92465209960938
F298.9859619140625
tF60
F90.849205017089844
F7400.064453125
I2
I1
tp84
a((F707.83001708984375
F92.09210205078125
tF60
F269.7884521484375
F7305.11376953125
I2
I1
tp85
a((F138.02201843261719
F92.107070922851562
tF60
F269.9208984375
F7245.728515625
I2
I1
tp86
a((F424.13613891601562
F298.905029296875
tF59
F90.318305969238281
F6822.32568359375
I2
I1
tp87
a((F390.0322265625
F186.8822021484375
tF58
F269.05642700195312
F6714.84912109375
I2
I1
tp88
a((F496.60287475585938
F179.62144470214844
tF24
F268.56927490234375
F6704.40478515625
I0
I-1
tp89
a((F423.45751953125
F92.016517639160156
tF58
F269.88818359375
F6552.53955078125
I2
I1
tp90
a((F951.30706787109375
F87.330314636230469
tF78
F268.5869140625
F6501.16796875
I2
I1
tp91
a((F912.9505615234375
F87.583915710449219
tF124
F252.20988464355469
F6411.5380859375
I3
I1
tp92
a((F707.82989501953125
F302.58120727539062
tF75
F90.876106262207031
F6314.08544921875
I2
I1
tp93
a((F138.26036071777344
F302.71502685546875
tF75
F90.746757507324219
F6285.978515625
I2
I1
tp94
a((F321.71243286132812
F123.56986236572266
tF121
F215.63700866699219
F5963.4306640625
I3
I1
tp95
a((F485.39019775390625
F232.43827819824219
tF57
F92.694168090820312
F5918.23828125
I2
I-1
tp96
a((F934.31048583984375
F305.7125244140625
tF80
F89.189682006835938
F5798.96533203125
I2
I1
tp97
a((F331.61080932617188
F277.138427734375
tF122
F124.27005004882812
F5786.99169921875
I3
I1
tp98
a((F589.88751220703125
F198.74836730957031
tF76
F184.89277648925781
F5442.77294921875
I2
I1
tp99
a((F424.62774658203125
F301.819580078125
tF71
F89.822700500488281
F5326.4638671875
I2
I1
tp100
a((F423.409912109375
F86.862693786621094
tF77
F269.54617309570312
F5293.998046875
I2
I1
tp101
a((F600.2921142578125
F136.93643188476562
tF100
F210.5631103515625
F5235.318359375
I3
I1
tp102
a((F247.65689086914062
F135.04057312011719
tF99
F328.71310424804688
F5207.6875
I3
I1
tp103
a((F595.6810302734375
F197.47288513183594
tF56
F185.81523132324219
F5196.2265625
I2
I1
tp104
a((F507.48776245117188
F105.37052154541016
tF131
F297.26260375976562
F5145.302734375
I3
I1
tp105
a((F524.17510986328125
F121.78300476074219
tF125
F320.56536865234375
F5012.9228515625
I3
I1
tp106
a.