(lp1
((F105.89168548583984
F878.141845703125
tF66
F203.19979858398438
F73162.7109375
I2
I1
tp2
a((F286.04742431640625
F998.545654296875
tF66
F23.606651306152344
F71544.71875
I2
I1
tp3
a((F145.70123291015625
F954.52203369140625
tF120
F198.10968017578125
F58122.5078125
I3
I-1
tp4
a((F249.35282897949219
F940.5460205078125
tF119
F15.995216369628906
F55952.375
I3
I-1
tp5
a((F201.42073059082031
F532.43072509765625
tF93
F77.80859375
F53256.375
I2
I1
tp6
a((F290.72836303710938
F1011.7720947265625
tF22
F114.58618927001953
F44888.87109375
I0
I1
tp7
a((F168.78237915039062
F341.0419921875
tF22
F69.149612426757812
F44335.69140625
I0
I-1
tp8
a((F100.6099853515625
F864.85479736328125
tF22
F291.37203979492188
F44224.6796875
I0
I1
tp9
a((F272.27435302734375
F1000.6934204101562
tF22
F201.29547119140625
F43607.21484375
I0
I1
tp10
a((F289.921630859375
F1008.5678100585938
tF32
F28.64453125
F43505.1875
I1
I1
tp11
a((F119.57427215576172
F875.127685546875
tF22
F19.926748275756836
F42918.50390625
I0
I1
tp12
a((F154.19383239746094
F379.43487548828125
tF123
F178.22212219238281
F42646.60546875
I3
I-1
tp13
a((F275.2491455078125
F1000.0834350585938
tF32
F195.79225158691406
F41611.4140625
I1
I1
tp14
a((F116.73757934570312
F876.08294677734375
tF32
F17.4171142578125
F41381.7421875
I1
I1
tp15
a((F157.89523315429688
F363.62484741210938
tF89
F50.005752563476562
F41380.7265625
I2
I-1
tp16
a((F167.47587585449219
F344.2244873046875
tF32
F68.018646240234375
F40947.17578125
I1
I-1
tp17
a((F101.56662750244141
F868.00921630859375
tF32
F209.10469055175781
F40943.0625
I1
I1
tp18
a((F165.25746154785156
F349.22247314453125
tF46
F156.96563720703125
F40890.12109375
I1
I-1
tp19
a((F162.70478820800781
F355.37619018554688
tF66
F159.68190002441406
F40126.10546875
I2
I-1
tp20
a((F128.33645629882812
F605.9586181640625
tF134
F267.90249633789062
F39729.32421875
I3
I1
tp21
a((F213.91995239257812
F509.78323364257812
tF22
F346.12994384765625
F37389.3515625
I0
I-1
tp22
a((F219.33224487304688
F497.50192260742188
tF60
F354.79342651367188
F36977.828125
I2
I-1
tp23
a((F249.31800842285156
F882.83319091796875
tF92
F270.86935424804688
F35403.578125
I2
I1
tp24
a((F190.69038391113281
F324.40997314453125
tF126
F262.18072509765625
F34645.11328125
I3
I1
tp25
a((F151.93814086914062
F410.48931884765625
tF166
F177.583251953125
F33842.66015625
I3
I-1
tp26
a((F90.11468505859375
F1071.1346435546875
tF19
F190.33607482910156
F33804.02734375
I0
I1
tp27
a((F296.75680541992188
F1073.7265625
tF33
F348.77627563476562
F33692.74609375
I1
I1
tp28
a((F15.729394912719727
F16.085851669311523
tF23
F187.46159362792969
F33681.86328125
I0
I1
tp29
a((F16.226827621459961
F585.83819580078125
tF24
F262.5487060546875
F33656.76953125
I0
I1
tp30
a((F212.56072998046875
F511.44705200195312
tF17
F264.3231201171875
F33644.8046875
I0
I-1
tp31
a((F15.802621841430664
F610.40155029296875
tF24
F171.88548278808594
F33638.3046875
I0
I1
tp32
a((F93.706260681152344
F1074.3934326171875
tF35
F259.9110107421875
F33495.96875
I1
I1
tp33
a((F14.413487434387207
F14.428349494934082
tF16
F259.97055053710938
F33263.33203125
I0
I1
tp34
a((F89.392250061035156
F1070.3863525390625
tF15
F190.77825927734375
F33147.4609375
I0
I1
tp35
a((F14.462133407592773
F584.43548583984375
tF16
F189.68923950195312
F33139.83203125
I0
I1
tp36
a((F300.54754638671875
F1070.1246337890625
tF15
F352.61813354492188
F33137.65625
I0
I1
tp37
a((F165.79177856445312
F879.33056640625
tF171
F204.90721130371094
F32978.90625
I3
I-1
tp38
a((F144.80595397949219
F1010.4286499023438
tF90
F89.13787841796875
F31083.708984375
I2
I1
tp39
a((F247.25740051269531
F882.54949951171875
tF93
F279.00875854492188
F30825.30859375
I3
I1
tp40
a((F237.30416870117188
F476.7811279296875
tF122
F193.68318176269531
F28907.1875
I3
I-1
tp41
a((F139.97001647949219
F516.8475341796875
tF60
F339.79443359375
F28265.39453125
I2
I1
tp42
a((F145.06675720214844
F1011.0575561523438
tF102
F90.877342224121094
F26078.232421875
I3
I1
tp43
a((F209.82080078125
F335.81192016601562
tF15
F93.871803283691406
F25489.623046875
I0
I-1
tp44
a((F146.15573120117188
F448.9862060546875
tF128
F178.53280639648438
F25398.53125
I3
I-1
tp45
a((F147.20268249511719
F537.26031494140625
tF15
F6.0466957092285156
F24602.7578125
I0
I1
tp46
a((F242.64358520507812
F439.98233032226562
tF161
F2.9998102188110352
F24236.95703125
I3
I-1
tp47
a((F162.23306274414062
F551.59136962890625
tF110
F270.07766723632812
F24194.720703125
I3
I-1
tp48
a((F130.54591369628906
F281.99981689453125
tF126
F244.51898193359375
F24064.443359375
I3
I-1
tp49
a((F146.3477783203125
F507.12860107421875
tF22
F338.08694458007812
F23305.310546875
I0
I1
tp50
a((F262.41497802734375
F281.33099365234375
tF126
F296.83941650390625
F22936.1328125
I3
I-1
tp51
a((F144.38055419921875
F508.32269287109375
tF32
F338.64093017578125
F22004.525390625
I1
I1
tp52
a((F218.28375244140625
F344.56683349609375
tF44
F111.79743957519531
F21271.42578125
I1
I-1
tp53
a((F214.51467895507812
F340.3836669921875
tF31
F350.13729858398438
F21066.4296875
I1
I-1
tp54
a((F256.51473999023438
F566.8775634765625
tF124
F67.891006469726562
F20139.583984375
I3
I-1
tp55
a((F116.896728515625
F513.6925048828125
tF116
F155.34941101074219
F20113.8125
I3
I1
tp56
a((F144.19490051269531
F532.01959228515625
tF30
F8.8798675537109375
F19383.947265625
I1
I1
tp57
a((F242.20883178710938
F372.0277099609375
tF117
F355.05908203125
F19180.841796875
I3
I-1
tp58
a((F147.39753723144531
F281.7835693359375
tF92
F249.50570678710938
F18940.201171875
I2
I-1
tp59
a((F194.63230895996094
F775.88275146484375
tF125
F269.54843139648438
F18490.615234375
I3
I-1
tp60
a((F88.795310974121094
F626.301513671875
tF59
F94.436302185058594
F18256.97265625
I2
I-1
tp61
a((F88.31787109375
F57.727855682373047
tF59
F95.507865905761719
F17725.51171875
I2
I-1
tp62
a((F80.42578125
F630.386474609375
tF79
F95.3760986328125
F17588.2421875
I2
I-1
tp63
a((F111.03395843505859
F49.166599273681641
tF14
F93.856590270996094
F17016.4921875
I0
I-1
tp64
a((F96.106307983398438
F54.526863098144531
tF42
F94.312736511230469
F16582.953125
I1
I-1
tp65
a((F222.46542358398438
F349.83059692382812
tF59
F119.38119506835938
F16556.76171875
I2
I-1
tp66
a((F96.848625183105469
F623.180908203125
tF42
F95.037178039550781
F16497.220703125
I1
I-1
tp67
a((F111.0732421875
F618.3306884765625
tF14
F94.755867004394531
F16321.29296875
I0
I-1
tp68
a((F279.47216796875
F843.87799072265625
tF126
F55.9522705078125
F15375.541015625
I3
I-1
tp69
a((F194.85003662109375
F826.255615234375
tF82
F90.1986083984375
F15126.837890625
I2
I1
tp70
a((F173.07350158691406
F1008.1798706054688
tF117
F65.847335815429688
F13879.0234375
I3
I1
tp71
a((F112.89194488525391
F1006.3880615234375
tF115
F117.1856689453125
F13447.4189453125
I3
I1
tp72
a((F210.07221984863281
F309.21798706054688
tF84
F277.15682983398438
F12437.341796875
I2
I1
tp73
a((F194.69708251953125
F255.93447875976562
tF78
F90.534629821777344
F11256.69140625
I2
I1
tp74
a((F165.5325927734375
F281.64743041992188
tF59
F103.72882843017578
F9980.974609375
I2
I-1
tp75
a((F226.89068603515625
F281.36248779296875
tF58
F283.4549560546875
F9608.96484375
I2
I-1
tp76
a((F163.27601623535156
F829.991943359375
tF123
F104.97430419921875
F9129.43359375
I3
I1
tp77
a((F215.38648986816406
F889.0863037109375
tF113
F209.89082336425781
F9077.111328125
I3
I1
tp78
a((F299.012939453125
F950.87847900390625
tF59
F358.43212890625
F7852.52880859375
I2
I1
tp79
a((F101.49943542480469
F52.342521667480469
tF31
F93.791419982910156
F7795.16796875
I1
I-1
tp80
a((F217.24267578125
F829.001708984375
tF132
F80.723777770996094
F7550.03857421875
I3
I1
tp81
a((F187.7415771484375
F498.53713989257812
tF58
F179.24147033691406
F7457.21875
I2
I1
tp82
a((F92.010780334472656
F707.59967041015625
tF60
F180.96051025390625
F7408.48876953125
I2
I1
tp83
a((F92.014030456542969
F138.92465209960938
tF60
F180.84919738769531
F7400.064453125
I2
I1
tp84
a((F298.90789794921875
F707.83001708984375
tF60
F359.7884521484375
F7305.11376953125
I2
I1
tp85
a((F298.8929443359375
F138.02201843261719
tF60
F359.92086791992188
F7245.728515625
I2
I1
tp86
a((F92.094978332519531
F424.13613891601562
tF59
F180.31831359863281
F6822.32568359375
I2
I1
tp87
a((F204.1177978515625
F390.0322265625
tF58
F359.05642700195312
F6714.84912109375
I2
I1
tp88
a((F211.37855529785156
F496.60287475585938
tF24
F358.56927490234375
F6704.40478515625
I0
I-1
tp89
a((F298.98348999023438
F423.45751953125
tF58
F359.88818359375
F6552.53955078125
I2
I1
tp90
a((F303.669677734375
F951.30706787109375
tF78
F358.5869140625
F6501.16796875
I2
I1
tp91
a((F303.41607666015625
F912.9505615234375
tF124
F342.20989990234375
F6411.5380859375
I3
I1
tp92
a((F88.418792724609375
F707.82989501953125
tF75
F180.8760986328125
F6314.08544921875
I2
I1
tp93
a((F88.284980773925781
F138.26036071777344
tF75
F180.74674987792969
F6285.978515625
I2
I1
tp94
a((F267.43014526367188
F321.71243286132812
tF121
F305.63702392578125
F5963.4306640625
I3
I1
tp95
a((F158.56172180175781
F485.39019775390625
tF57
F182.69416809082031
F5918.23828125
I2
I-1
tp96
a((F85.287467956542969
F934.31048583984375
tF80
F179.18968200683594
F5798.96533203125
I2
I1
tp97
a((F113.861572265625
F331.61080932617188
tF122
F214.27005004882812
F5786.99169921875
I3
I1
tp98
a((F192.25163269042969
F589.88751220703125
tF76
F274.89276123046875
F5442.77294921875
I2
I1
tp99
a((F89.180419921875
F424.62774658203125
tF71
F179.82270812988281
F5326.4638671875
I2
I1
tp100
a((F304.13729858398438
F423.409912109375
tF77
F359.54617309570312
F5293.998046875
I2
I1
tp101
a((F254.06356811523438
F600.2921142578125
tF100
F300.5631103515625
F5235.318359375
I3
I1
tp102
a((F255.95942687988281
F247.65689086914062
tF99
F58.713096618652344
F5207.6875
I3
I1
tp103
a((F193.52711486816406
F595.6810302734375
tF56
F275.81521606445312
F5196.2265625
I2
I1
tp104
a((F285.62948608398438
F507.48776245117188
tF131
F27.262590408325195
F5145.302734375
I3
I1
tp105
a((F269.21701049804688
F524.17510986328125
tF125
F50.565364837646484
F5012.9228515625
I3
I1
tp106
a.