(lp1
((F118.49886322021484
F285.9932861328125
tF66
F113.60665130615234
F72688.703125
I2
I1
tp2
a((F238.93045043945312
F105.91477203369141
tF66
F293.19979858398438
F71029.4609375
I2
I1
tp3
a((F162.69688415527344
F145.53572082519531
tF120
F288.10968017578125
F57998.2109375
I3
I-1
tp4
a((F176.46914672851562
F249.38467407226562
tF119
F106.32883453369141
F54165.81640625
I3
I-1
tp5
a((F583.7486572265625
F201.90966796875
tF91
F170.15101623535156
F53553.83984375
I2
I1
tp6
a((F105.22791290283203
F290.72836303710938
tF22
F204.58619689941406
F44888.87109375
I0
I1
tp7
a((F775.9580078125
F168.78237915039062
tF22
F159.14961242675781
F44335.69140625
I0
I-1
tp8
a((F252.14520263671875
F100.6099853515625
tF22
F21.372049331665039
F44224.6796875
I0
I1
tp9
a((F116.30660247802734
F272.27435302734375
tF22
F291.29547119140625
F43607.21484375
I0
I1
tp10
a((F108.43218994140625
F289.921630859375
tF32
F118.64454650878906
F43505.1875
I1
I1
tp11
a((F241.872314453125
F119.57427215576172
tF22
F109.92674255371094
F42918.50390625
I0
I1
tp12
a((F737.7769775390625
F154.25767517089844
tF123
F267.90118408203125
F42851.21875
I3
I-1
tp13
a((F116.91656494140625
F275.2491455078125
tF32
F285.792236328125
F41611.4140625
I1
I1
tp14
a((F240.91703796386719
F116.73757934570312
tF32
F107.4171142578125
F41381.7421875
I1
I1
tp15
a((F753.3897705078125
F158.01356506347656
tF89
F257.49993896484375
F41167.09765625
I2
I-1
tp16
a((F772.7755126953125
F167.47587585449219
tF32
F158.01864624023438
F40947.17578125
I1
I-1
tp17
a((F248.99078369140625
F101.56662750244141
tF32
F299.10467529296875
F40943.0625
I1
I1
tp18
a((F767.77752685546875
F165.25746154785156
tF46
F246.96563720703125
F40890.12109375
I1
I-1
tp19
a((F761.72930908203125
F162.60820007324219
tF66
F249.68190002441406
F40252.06640625
I2
I-1
tp20
a((F508.29437255859375
F124.71503448486328
tF145
F357.6793212890625
F39699.8671875
I3
I1
tp21
a((F233.88619995117188
F249.36357116699219
tF90
F0.99848383665084839
F37611.8125
I2
I1
tp22
a((F607.21673583984375
F213.91995239257812
tF22
F76.129959106445312
F37389.3515625
I0
I-1
tp23
a((F619.223876953125
F219.10549926757812
tF60
F84.793426513671875
F35272.23046875
I2
I-1
tp24
a((F706.54583740234375
F151.97584533691406
tF166
F267.62869262695312
F33911.46484375
I3
I-1
tp25
a((F45.865306854248047
F90.11468505859375
tF19
F280.33609008789062
F33804.02734375
I0
I1
tp26
a((F237.98216247558594
F165.76011657714844
tF170
F295.44757080078125
F33771.92578125
I3
I-1
tp27
a((F791.95343017578125
F190.83808898925781
tF127
F351.98858642578125
F33697.140625
I3
I1
tp28
a((F43.273399353027344
F296.75680541992188
tF33
F78.776268005371094
F33692.74609375
I1
I1
tp29
a((F1100.9141845703125
F15.729394912719727
tF23
F277.46160888671875
F33681.86328125
I0
I1
tp30
a((F531.16180419921875
F16.226827621459961
tF24
F352.5487060546875
F33656.76953125
I0
I1
tp31
a((F605.55291748046875
F212.56072998046875
tF17
F354.3231201171875
F33644.8046875
I0
I-1
tp32
a((F506.59848022460938
F15.802621841430664
tF24
F261.885498046875
F33638.3046875
I0
I1
tp33
a((F42.606552124023438
F93.706260681152344
tF35
F349.9110107421875
F33495.96875
I1
I1
tp34
a((F1102.5716552734375
F14.413487434387207
tF16
F349.97055053710938
F33263.33203125
I0
I1
tp35
a((F46.613594055175781
F89.392250061035156
tF15
F280.77825927734375
F33147.4609375
I0
I1
tp36
a((F532.56451416015625
F14.462133407592773
tF16
F279.68923950195312
F33139.83203125
I0
I1
tp37
a((F46.875419616699219
F300.54754638671875
tF15
F82.618133544921875
F33137.65625
I0
I1
tp38
a((F105.97087097167969
F144.752197265625
tF92
F179.89968872070312
F30207.931640625
I2
I1
tp39
a((F233.42123413085938
F247.27706909179688
tF99
F9.7327423095703125
F29609.5234375
I3
I1
tp40
a((F639.856201171875
F236.92080688476562
tF122
F283.89459228515625
F28274.90625
I3
I-1
tp41
a((F600.014892578125
F139.70899963378906
tF60
F69.794418334960938
F27930.533203125
I2
I1
tp42
a((F105.02349090576172
F143.81655883789062
tF92
F180.82685852050781
F26379.740234375
I3
I1
tp43
a((F781.1881103515625
F209.82080078125
tF15
F183.87179565429688
F25489.623046875
I0
I-1
tp44
a((F668.37713623046875
F146.10205078125
tF129
F268.45449829101562
F25377.609375
I3
I-1
tp45
a((F835.288330078125
F130.58212280273438
tF126
F334.21905517578125
F24753.48828125
I3
I-1
tp46
a((F579.73968505859375
F147.20268249511719
tF15
F96.04669189453125
F24602.7578125
I0
I1
tp47
a((F676.47259521484375
F242.49623107910156
tF160
F93.380401611328125
F24228.47265625
I3
I-1
tp48
a((F835.84259033203125
F262.13565063476562
tF126
F27.141027450561523
F24205.79296875
I3
I-1
tp49
a((F564.827392578125
F162.29962158203125
tF110
F358.76171875
F24163.3203125
I3
I-1
tp50
a((F609.87139892578125
F146.3477783203125
tF22
F68.086921691894531
F23305.310546875
I0
I1
tp51
a((F453.3641357421875
F187.92347717285156
tF189
F161.89047241210938
F22664.32421875
I3
I-1
tp52
a((F608.67730712890625
F144.38055419921875
tF32
F68.640922546386719
F22004.525390625
I1
I1
tp53
a((F549.60076904296875
F256.3695068359375
tF124
F158.05038452148438
F21489.66796875
I3
I-1
tp54
a((F772.43316650390625
F218.28375244140625
tF44
F201.79743957519531
F21271.42578125
I1
I-1
tp55
a((F776.6163330078125
F214.51467895507812
tF31
F80.137306213378906
F21066.4296875
I1
I-1
tp56
a((F705.36175537109375
F251.73104858398438
tF132
F90.551902770996094
F20939.486328125
I3
I-1
tp57
a((F603.32269287109375
F116.59279632568359
tF117
F245.41403198242188
F20745.728515625
I3
I1
tp58
a((F584.98040771484375
F144.19490051269531
tF30
F98.879867553710938
F19383.947265625
I1
I1
tp59
a((F342.08746337890625
F194.7322998046875
tF128
F359.60787963867188
F19258.04296875
I3
I-1
tp60
a((F744.93133544921875
F242.44100952148438
tF118
F84.957565307617188
F18527.162109375
I3
I-1
tp61
a((F910.96417236328125
F195.29339599609375
tF126
F359.52560424804688
F18130.2421875
I3
I-1
tp62
a((F835.83612060546875
F245.28028869628906
tF92
F19.424339294433594
F17363.951171875
I2
I-1
tp63
a((F1067.8333740234375
F111.03395843505859
tF14
F183.85659790039062
F17016.4921875
I0
I-1
tp64
a((F489.73809814453125
F88.050804138183594
tF60
F185.17646789550781
F16907.2421875
I2
I-1
tp65
a((F766.64056396484375
F222.80755615234375
tF59
F86.628150939941406
F16823.0546875
I2
I-1
tp66
a((F1062.47314453125
F96.106307983398438
tF42
F184.312744140625
F16582.953125
I1
I-1
tp67
a((F493.819091796875
F96.848625183105469
tF42
F185.03718566894531
F16497.220703125
I1
I-1
tp68
a((F498.6693115234375
F111.0732421875
tF14
F184.75587463378906
F16321.29296875
I0
I-1
tp69
a((F1058.1534423828125
F86.518844604492188
tF63
F184.53359985351562
F15252.0546875
I2
I-1
tp70
a((F761.75152587890625
F233.49365234375
tF94
F238.902099609375
F14384.171875
I2
I-1
tp71
a((F860.96209716796875
F194.86524963378906
tF81
F180.49180603027344
F14130.8115234375
I2
I1
tp72
a((F290.7926025390625
F194.82635498046875
tF80
F180.07417297363281
F12883.2880859375
I2
I1
tp73
a((F112.69486999511719
F181.50967407226562
tF111
F122.79570007324219
F12384.48828125
I3
I1
tp74
a((F807.10211181640625
F212.09140014648438
tF85
F7.2519583702087402
F10918.71875
I2
I1
tp75
a((F290.87802124023438
F156.37277221679688
tF145
F198.92814636230469
F9211.01953125
I3
I1
tp76
a((F549.57244873046875
F217.552001953125
tF55
F12.199856758117676
F8459.5869140625
I2
I-1
tp77
a((F165.9962158203125
F298.94036865234375
tF59
F88.431709289550781
F7914.759765625
I2
I1
tp78
a((F1064.657470703125
F101.49943542480469
tF31
F183.79141235351562
F7795.16796875
I1
I-1
tp79
a((F408.6976318359375
F92.016952514648438
tF60
F270.669189453125
F7443.69091796875
I2
I1
tp80
a((F978.76666259765625
F92.021957397460938
tF60
F270.84921264648438
F7400.73681640625
I2
I1
tp81
a((F408.98855590820312
F298.88803100585938
tF60
F90.137458801269531
F7343.3525390625
I2
I1
tp82
a((F618.4415283203125
F187.70118713378906
tF58
F269.26669311523438
F7270.14453125
I2
I1
tp83
a((F979.03045654296875
F298.90585327148438
tF60
F89.339653015136719
F7204.5087890625
I2
I1
tp84
a((F290.42657470703125
F222.36140441894531
tF167
F356.90975952148438
F6966.4697265625
I3
I1
tp85
a((F692.3375244140625
F92.110214233398438
tF59
F270.16717529296875
F6805.806640625
I2
I1
tp86
a((F526.462890625
F192.94778442382812
tF77
F5.1864805221557617
F6766.826171875
I2
I1
tp87
a((F835.18865966796875
F164.18081665039062
tF60
F194.39178466796875
F6727.8798828125
I2
I-1
tp88
a((F620.39715576171875
F211.37855529785156
tF24
F88.569259643554688
F6704.40478515625
I0
I-1
tp89
a((F727.1884765625
F204.33058166503906
tF59
F88.786270141601562
F6699.27490234375
I2
I1
tp90
a((F693.9039306640625
F298.95574951171875
tF58
F89.805870056152344
F6650.412109375
I2
I1
tp91
a((F165.46730041503906
F303.620361328125
tF78
F88.698631286621094
F6523.92919921875
I2
I1
tp92
a((F409.64410400390625
F88.385169982910156
tF75
F270.8760986328125
F6333.943359375
I2
I1
tp93
a((F978.45330810546875
F88.314704895019531
tF75
F270.74676513671875
F6299.18359375
I2
I1
tp94
a((F796.743896484375
F265.9837646484375
tF124
F35.33984375
F6157.32470703125
I3
I1
tp95
a((F871.98345947265625
F259.78768920898438
tF105
F145.12347412109375
F5883.3603515625
I3
I1
tp96
a((F786.68328857421875
F114.55140686035156
tF127
F319.49130249023438
F5881.177734375
I3
I1
tp97
a((F183.00810241699219
F85.278007507324219
tF80
F269.30535888671875
F5785.95263671875
I2
I1
tp98
a((F305.93115234375
F265.25689697265625
tF114
F144.7779541015625
F5715.7294921875
I3
I1
tp99
a((F508.6651611328125
F267.60763549804688
tF124
F34.181015014648438
F5528.5771484375
I3
I1
tp100
a((F692.2796630859375
F88.967056274414062
tF72
F269.95535278320312
F5341.23291015625
I2
I1
tp101
a((F693.735107421875
F304.06997680664062
tF77
F89.493461608886719
F5321.8798828125
I2
I1
tp102
a.