(lp1
((F105.00670623779297
F118.49886322021484
tF66
F203.60665893554688
F72688.703125
I2
I1
tp2
a((F285.08523559570312
F238.93045043945312
tF66
F23.199794769287109
F71029.4609375
I2
I1
tp3
a((F245.46427917480469
F162.69688415527344
tF120
F18.109676361083984
F57998.2109375
I3
I-1
tp4
a((F141.61532592773438
F176.46914672851562
tF119
F196.32882690429688
F54165.81640625
I3
I-1
tp5
a((F189.09033203125
F583.7486572265625
tF91
F260.15103149414062
F53553.83984375
I2
I1
tp6
a((F100.27164459228516
F105.22791290283203
tF22
F294.586181640625
F44888.87109375
I0
I1
tp7
a((F222.21762084960938
F775.9580078125
tF22
F249.14961242675781
F44335.69140625
I0
I-1
tp8
a((F290.3900146484375
F252.14520263671875
tF22
F111.37204742431641
F44224.6796875
I0
I1
tp9
a((F118.72565460205078
F116.30660247802734
tF22
F21.295467376708984
F43607.21484375
I0
I1
tp10
a((F101.078369140625
F108.43218994140625
tF32
F208.64454650878906
F43505.1875
I1
I1
tp11
a((F271.42572021484375
F241.872314453125
tF22
F199.9267578125
F42918.50390625
I0
I1
tp12
a((F236.74232482910156
F737.7769775390625
tF123
F357.90118408203125
F42851.21875
I3
I-1
tp13
a((F115.75083923339844
F116.91656494140625
tF32
F15.792248725891113
F41611.4140625
I1
I1
tp14
a((F274.26242065429688
F240.91703796386719
tF32
F197.4171142578125
F41381.7421875
I1
I1
tp15
a((F232.98643493652344
F753.3897705078125
tF89
F347.49993896484375
F41167.09765625
I2
I-1
tp16
a((F223.52412414550781
F772.7755126953125
tF32
F248.01864624023438
F40947.17578125
I1
I-1
tp17
a((F289.43338012695312
F248.99078369140625
tF32
F29.104692459106445
F40943.0625
I1
I1
tp18
a((F225.74253845214844
F767.77752685546875
tF46
F336.96563720703125
F40890.12109375
I1
I-1
tp19
a((F228.39179992675781
F761.72930908203125
tF66
F339.68191528320312
F40252.06640625
I2
I-1
tp20
a((F266.28497314453125
F508.29437255859375
tF145
F87.679328918457031
F39699.8671875
I3
I1
tp21
a((F141.63642883300781
F233.88619995117188
tF90
F90.998481750488281
F37611.8125
I2
I1
tp22
a((F177.08004760742188
F607.21673583984375
tF22
F166.12995910644531
F37389.3515625
I0
I-1
tp23
a((F171.89450073242188
F619.223876953125
tF60
F174.79342651367188
F35272.23046875
I2
I-1
tp24
a((F239.02415466308594
F706.54583740234375
tF166
F357.62869262695312
F33911.46484375
I3
I-1
tp25
a((F300.88531494140625
F45.865306854248047
tF19
F10.336077690124512
F33804.02734375
I0
I1
tp26
a((F225.23988342285156
F237.98216247558594
tF170
F25.447580337524414
F33771.92578125
I3
I-1
tp27
a((F200.16191101074219
F791.95343017578125
tF127
F81.988578796386719
F33697.140625
I3
I1
tp28
a((F94.243194580078125
F43.273399353027344
tF33
F168.77627563476562
F33692.74609375
I1
I1
tp29
a((F375.27059936523438
F1100.9141845703125
tF23
F7.4615974426269531
F33681.86328125
I0
I1
tp30
a((F374.77316284179688
F531.16180419921875
tF24
F82.5487060546875
F33656.76953125
I0
I1
tp31
a((F178.43927001953125
F605.55291748046875
tF17
F84.323127746582031
F33644.8046875
I0
I-1
tp32
a((F375.1973876953125
F506.59848022460938
tF24
F351.885498046875
F33638.3046875
I0
I1
tp33
a((F297.29373168945312
F42.606552124023438
tF35
F79.9110107421875
F33495.96875
I1
I1
tp34
a((F376.58651733398438
F1102.5716552734375
tF16
F79.970542907714844
F33263.33203125
I0
I1
tp35
a((F301.60775756835938
F46.613594055175781
tF15
F10.778258323669434
F33147.4609375
I0
I1
tp36
a((F376.53787231445312
F532.56451416015625
tF16
F9.6892404556274414
F33139.83203125
I0
I1
tp37
a((F90.452445983886719
F46.875419616699219
tF15
F172.61813354492188
F33137.65625
I0
I1
tp38
a((F246.247802734375
F105.97087097167969
tF92
F269.89968872070312
F30207.931640625
I2
I1
tp39
a((F143.72293090820312
F233.42123413085938
tF99
F99.732742309570312
F29609.5234375
I3
I1
tp40
a((F154.07919311523438
F639.856201171875
tF122
F13.894579887390137
F28274.90625
I3
I-1
tp41
a((F251.29100036621094
F600.014892578125
tF60
F159.79441833496094
F27930.533203125
I2
I1
tp42
a((F247.18344116210938
F105.02349090576172
tF92
F270.82687377929688
F26379.740234375
I3
I1
tp43
a((F181.17919921875
F781.1881103515625
tF15
F273.87179565429688
F25489.623046875
I0
I-1
tp44
a((F244.89794921875
F668.37713623046875
tF129
F358.45449829101562
F25377.609375
I3
I-1
tp45
a((F260.41787719726562
F835.288330078125
tF126
F64.219047546386719
F24753.48828125
I3
I-1
tp46
a((F243.79731750488281
F579.73968505859375
tF15
F186.04669189453125
F24602.7578125
I0
I1
tp47
a((F148.50376892089844
F676.47259521484375
tF160
F183.38040161132812
F24228.47265625
I3
I-1
tp48
a((F128.86434936523438
F835.84259033203125
tF126
F117.14102935791016
F24205.79296875
I3
I-1
tp49
a((F228.70037841796875
F564.827392578125
tF110
F88.761734008789062
F24163.3203125
I3
I-1
tp50
a((F244.6522216796875
F609.87139892578125
tF22
F158.0869140625
F23305.310546875
I0
I1
tp51
a((F203.07652282714844
F453.3641357421875
tF189
F251.89047241210938
F22664.32421875
I3
I-1
tp52
a((F246.61944580078125
F608.67730712890625
tF32
F158.64093017578125
F22004.525390625
I1
I1
tp53
a((F134.63047790527344
F549.60076904296875
tF124
F248.05038452148438
F21489.66796875
I3
I-1
tp54
a((F172.71624755859375
F772.43316650390625
tF44
F291.79742431640625
F21271.42578125
I1
I-1
tp55
a((F176.48532104492188
F776.6163330078125
tF31
F170.13729858398438
F21066.4296875
I1
I-1
tp56
a((F139.26895141601562
F705.36175537109375
tF132
F180.55189514160156
F20939.486328125
I3
I-1
tp57
a((F274.40719604492188
F603.32269287109375
tF117
F335.41403198242188
F20745.728515625
I3
I1
tp58
a((F246.80509948730469
F584.98040771484375
tF30
F188.87986755371094
F19383.947265625
I1
I1
tp59
a((F196.2677001953125
F342.08746337890625
tF128
F89.607894897460938
F19258.04296875
I3
I-1
tp60
a((F148.55899047851562
F744.93133544921875
tF118
F174.95756530761719
F18527.162109375
I3
I-1
tp61
a((F195.70660400390625
F910.96417236328125
tF126
F89.525596618652344
F18130.2421875
I3
I-1
tp62
a((F145.71971130371094
F835.83612060546875
tF92
F109.42433166503906
F17363.951171875
I2
I-1
tp63
a((F279.96603393554688
F1067.8333740234375
tF14
F273.85659790039062
F17016.4921875
I0
I-1
tp64
a((F302.94918823242188
F489.73809814453125
tF60
F275.17645263671875
F16907.2421875
I2
I-1
tp65
a((F168.19244384765625
F766.64056396484375
tF59
F176.62814331054688
F16823.0546875
I2
I-1
tp66
a((F294.8936767578125
F1062.47314453125
tF42
F274.312744140625
F16582.953125
I1
I-1
tp67
a((F294.1513671875
F493.819091796875
tF42
F275.03717041015625
F16497.220703125
I1
I-1
tp68
a((F279.9267578125
F498.6693115234375
tF14
F274.755859375
F16321.29296875
I0
I-1
tp69
a((F304.48114013671875
F1058.1534423828125
tF63
F274.53359985351562
F15252.0546875
I2
I-1
tp70
a((F157.50634765625
F761.75152587890625
tF94
F328.902099609375
F14384.171875
I2
I-1
tp71
a((F196.13475036621094
F860.96209716796875
tF81
F270.4918212890625
F14130.8115234375
I2
I1
tp72
a((F196.17364501953125
F290.7926025390625
tF80
F270.07415771484375
F12883.2880859375
I2
I1
tp73
a((F209.49032592773438
F112.69486999511719
tF111
F212.79570007324219
F12384.48828125
I3
I1
tp74
a((F178.90859985351562
F807.10211181640625
tF85
F97.251960754394531
F10918.71875
I2
I1
tp75
a((F234.62722778320312
F290.87802124023438
tF145
F288.92816162109375
F9211.01953125
I3
I1
tp76
a((F173.447998046875
F549.57244873046875
tF55
F102.19985961914062
F8459.5869140625
I2
I-1
tp77
a((F92.059638977050781
F165.9962158203125
tF59
F178.43171691894531
F7914.759765625
I2
I1
tp78
a((F289.50057983398438
F1064.657470703125
tF31
F273.79141235351562
F7795.16796875
I1
I-1
tp79
a((F298.98306274414062
F408.6976318359375
tF60
F0.66919147968292236
F7443.69091796875
I2
I1
tp80
a((F298.97802734375
F978.76666259765625
tF60
F0.84920352697372437
F7400.73681640625
I2
I1
tp81
a((F92.111976623535156
F408.98855590820312
tF60
F180.137451171875
F7343.3525390625
I2
I1
tp82
a((F203.29881286621094
F618.4415283203125
tF58
F359.26669311523438
F7270.14453125
I2
I1
tp83
a((F92.094139099121094
F979.03045654296875
tF60
F179.33966064453125
F7204.5087890625
I2
I1
tp84
a((F168.63859558105469
F290.42657470703125
tF167
F86.909759521484375
F6966.4697265625
I3
I1
tp85
a((F298.8897705078125
F692.3375244140625
tF59
F0.16719293594360352
F6805.806640625
I2
I1
tp86
a((F198.05221557617188
F526.462890625
tF77
F95.186477661132812
F6766.826171875
I2
I1
tp87
a((F226.81918334960938
F835.18865966796875
tF60
F284.39178466796875
F6727.8798828125
I2
I-1
tp88
a((F179.62144470214844
F620.39715576171875
tF24
F178.56925964355469
F6704.40478515625
I0
I-1
tp89
a((F186.66941833496094
F727.1884765625
tF59
F178.78627014160156
F6699.27490234375
I2
I1
tp90
a((F92.044258117675781
F693.9039306640625
tF58
F179.80587768554688
F6650.412109375
I2
I1
tp91
a((F87.379631042480469
F165.46730041503906
tF78
F178.69863891601562
F6523.92919921875
I2
I1
tp92
a((F302.61483764648438
F409.64410400390625
tF75
F0.87610548734664917
F6333.943359375
I2
I1
tp93
a((F302.685302734375
F978.45330810546875
tF75
F0.74675565958023071
F6299.18359375
I2
I1
tp94
a((F125.01622772216797
F796.743896484375
tF124
F125.33984375
F6157.32470703125
I3
I1
tp95
a((F131.21231079101562
F871.98345947265625
tF105
F235.12347412109375
F5883.3603515625
I3
I1
tp96
a((F276.4486083984375
F786.68328857421875
tF127
F49.491302490234375
F5881.177734375
I3
I1
tp97
a((F305.72198486328125
F183.00810241699219
tF80
F359.30535888671875
F5785.95263671875
I2
I1
tp98
a((F125.74309539794922
F305.93115234375
tF114
F234.7779541015625
F5715.7294921875
I3
I1
tp99
a((F123.39235687255859
F508.6651611328125
tF124
F124.18101501464844
F5528.5771484375
I3
I1
tp100
a((F302.03292846679688
F692.2796630859375
tF72
F359.95535278320312
F5341.23291015625
I2
I1
tp101
a((F86.930007934570312
F693.735107421875
tF77
F179.49345397949219
F5321.8798828125
I2
I1
tp102
a.