(lp1
((F250.1102294921875
F148.405029296875
tF123
F249.45802307128906
F71664.71875
I3
I-1
tp2
a((F604.1141357421875
F223.46345520019531
tF92
F180.482666015625
F70638.265625
I2
I-1
tp3
a((F889.28564453125
F281.48135375976562
tF115
F91.698928833007812
F66063.171875
I3
I-1
tp4
a((F578.6632080078125
F103.77922058105469
tF83
F278.70501708984375
F66042.9296875
I2
I1
tp5
a((F335.8118896484375
F281.453369140625
tF115
F91.738075256347656
F65310.02734375
I3
I-1
tp6
a((F750.8677978515625
F109.07172393798828
tF121
F352.26251220703125
F64632.328125
I3
I1
tp7
a((F818.1568603515625
F107.66732025146484
tF67
F252.58653259277344
F63420.1640625
I2
I1
tp8
a((F428.877685546875
F154.60882568359375
tF133
F286.04336547851562
F62703.75390625
I3
I-1
tp9
a((F753.92138671875
F322.83230590820312
tF93
F17.841442108154297
F58720.890625
I2
I1
tp10
a((F699.4468994140625
F244.09297180175781
tF163
F182.44969177246094
F58259.25390625
I3
I-1
tp11
a((F593.53753662109375
F143.48516845703125
tF111
F287.557373046875
F56372.98828125
I3
I-1
tp12
a((F503.73345947265625
F201.49732971191406
tF47
F290.95086669921875
F56366.0859375
I1
I-1
tp13
a((F889.861572265625
F205.93766784667969
tF107
F276.33697509765625
F56345.8359375
I3
I-1
tp14
a((F336.41021728515625
F205.93544006347656
tF107
F276.387451171875
F55716.046875
I3
I-1
tp15
a((F648.58319091796875
F108.35575866699219
tF114
F338.209228515625
F55360.08203125
I3
I1
tp16
a((F519.53106689453125
F202.67572021484375
tF90
F280.71661376953125
F54821.8125
I2
I-1
tp17
a((F697.93121337890625
F220.30171203613281
tF126
F177.90007019042969
F54458.16015625
I3
I-1
tp18
a((F804.9326171875
F148.1890869140625
tF128
F356.88735961914062
F53977.21875
I3
I-1
tp19
a((F198.28521728515625
F115.39046478271484
tF149
F201.70980834960938
F53925.94140625
I3
I1
tp20
a((F510.80258178710938
F200.7584228515625
tF70
F287.14324951171875
F53655.125
I2
I-1
tp21
a((F540.734619140625
F285.74639892578125
tF69
F108.59234619140625
F52840.27734375
I2
I-1
tp22
a((F752.6925048828125
F315.75201416015625
tF118
F22.604164123535156
F51309.9375
I3
I1
tp23
a((F604.0966796875
F222.02999877929688
tF91
F176.24099731445312
F50700.1640625
I3
I-1
tp24
a((F446.84698486328125
F259.32888793945312
tF88
F115.01430511474609
F49834.40625
I2
I-1
tp25
a((F697.56573486328125
F130.27455139160156
tF110
F339.85107421875
F48673.26171875
I3
I-1
tp26
a((F698.13885498046875
F269.07101440429688
tF123
F180.22175598144531
F48591.10546875
I3
I-1
tp27
a((F191.23472595214844
F319.49020385742188
tF130
F139.24217224121094
F47600.7109375
I3
I1
tp28
a((F525.47674560546875
F282.57296752929688
tF111
F99.037040710449219
F45008.73828125
I3
I-1
tp29
a((F461.27279663085938
F295.62863159179688
tF83
F125.42465209960938
F43978.6484375
I2
I1
tp30
a((F687.14886474609375
F322.30047607421875
tF88
F96.025970458984375
F43251.140625
I2
I1
tp31
a((F188.80461120605469
F298.06781005859375
tF186
F137.48504638671875
F42327.5546875
I3
I1
tp32
a((F580.62237548828125
F192.24822998046875
tF81
F294.01809692382812
F41340.34375
I2
I1
tp33
a((F414.38339233398438
F287.82711791992188
tF44
F21.025602340698242
F40849.921875
I1
I1
tp34
a((F455.09524536132812
F290.89447021484375
tF64
F286.947998046875
F40807.03125
I2
I1
tp35
a((F967.101806640625
F288.09078979492188
tF47
F21.999040603637695
F40775.84765625
I1
I1
tp36
a((F418.31219482421875
F285.52011108398438
tF32
F13.538198471069336
F39830.7109375
I1
I1
tp37
a((F971.8822021484375
F285.5457763671875
tF33
F13.757274627685547
F39750.9609375
I1
I1
tp38
a((F448.287353515625
F288.98593139648438
tF47
F251.51597595214844
F37284.078125
I1
I1
tp39
a((F649.889404296875
F169.194091796875
tF169
F201.97442626953125
F36798.375
I3
I1
tp40
a((F407.68179321289062
F290.82562255859375
tF61
F29.968297958374023
F35672.35546875
I2
I1
tp41
a((F927.80169677734375
F219.58929443359375
tF15
F262.50064086914062
F35234.984375
I0
I-1
tp42
a((F234.10140991210938
F130.68600463867188
tF35
F77.862518310546875
F34976.8125
I1
I-1
tp43
a((F298.13226318359375
F219.64393615722656
tF15
F276.8370361328125
F34825.87109375
I0
I-1
tp44
a((F861.1697998046875
F271.10049438476562
tF46
F83.472389221191406
F34821.671875
I1
I-1
tp45
a((F307.908203125
F271.36190795898438
tF47
F81.615394592285156
F34376.67578125
I1
I-1
tp46
a((F852.4014892578125
F265.4132080078125
tF17
F80.086799621582031
F34342.83984375
I0
I-1
tp47
a((F300.64474487304688
F266.81463623046875
tF24
F80.404037475585938
F34201.09375
I0
I-1
tp48
a((F856.71307373046875
F268.82296752929688
tF33
F80.955841064453125
F34200.109375
I1
I-1
tp49
a((F303.08731079101562
F268.7969970703125
tF33
F79.99737548828125
F34194.234375
I1
I-1
tp50
a((F374.26522827148438
F219.60182189941406
tF15
F261.12506103515625
F34146.11328125
I0
I-1
tp51
a((F851.4813232421875
F219.67083740234375
tF15
F277.86541748046875
F33579.50390625
I0
I-1
tp52
a((F424.39242553710938
F253.60491943359375
tF35
F17.285758972167969
F33417.1875
I1
I1
tp53
a((F679.7239990234375
F200.04037475585938
tF33
F78.917343139648438
F33142.65625
I1
I-1
tp54
a((F679.6900634765625
F146.44001770019531
tF34
F349.50576782226562
F33115.11328125
I1
I-1
tp55
a((F708.55303955078125
F186.36599731445312
tF32
F77.657630920410156
F33002.63671875
I1
I1
tp56
a((F616.94189453125
F197.20091247558594
tF22
F164.99188232421875
F32978.92578125
I0
I-1
tp57
a((F419.2786865234375
F245.63813781738281
tF63
F7.4787120819091797
F32760.177734375
I2
I1
tp58
a((F676.18780517578125
F196.46136474609375
tF16
F83.083625793457031
F32581.255859375
I0
I-1
tp59
a((F925.926025390625
F218.16482543945312
tF22
F262.9688720703125
F32501.2578125
I0
I-1
tp60
a((F709.2666015625
F160.60028076171875
tF32
F283.39669799804688
F31983.05859375
I1
I1
tp61
a((F918.04742431640625
F213.88632202148438
tF45
F262.8255615234375
F31630.40234375
I1
I-1
tp62
a((F616.79388427734375
F148.51948547363281
tF21
F200.31610107421875
F31606.98046875
I0
I-1
tp63
a((F709.98748779296875
F188.39210510253906
tF23
F77.304893493652344
F31248.3203125
I0
I1
tp64
a((F364.507568359375
F213.96261596679688
tF45
F263.2249755859375
F31098.91015625
I1
I-1
tp65
a((F299.71356201171875
F218.54788208007812
tF21
F278.42425537109375
F30754.861328125
I0
I-1
tp66
a((F922.96673583984375
F215.76930236816406
tF32
F261.7982177734375
F30535.126953125
I1
I-1
tp67
a((F369.40521240234375
F215.92472839355469
tF32
F261.71392822265625
F30326.328125
I1
I-1
tp68
a((F704.78704833984375
F184.43203735351562
tF42
F80.285438537597656
F29798.763671875
I1
I1
tp69
a((F700.04766845703125
F173.60105895996094
tF63
F73.512931823730469
F29783.75
I2
I1
tp70
a((F705.07171630859375
F162.64126586914062
tF43
F280.76239013671875
F28788.080078125
I1
I1
tp71
a((F302.96688842773438
F216.23664855957031
tF31
F277.46408081054688
F28521.779296875
I1
I-1
tp72
a((F428.84561157226562
F325.03964233398438
tF86
F47.687496185302734
F28368.927734375
I2
I-1
tp73
a((F856.558349609375
F216.15640258789062
tF31
F276.75631713867188
F28361.439453125
I1
I-1
tp74
a((F667.2579345703125
F324.25369262695312
tF120
F96.946136474609375
F27669.228515625
I3
I1
tp75
a((F704.3638916015625
F312.00198364257812
tF46
F296.85400390625
F27577.49609375
I1
I1
tp76
a((F733.49951171875
F332.130126953125
tF34
F163.69387817382812
F27439.7421875
I1
I1
tp77
a((F308.32171630859375
F214.40481567382812
tF45
F278.78143310546875
F27388.083984375
I1
I-1
tp78
a((F428.00262451171875
F339.62591552734375
tF123
F69.306533813476562
F27097.177734375
I3
I-1
tp79
a((F861.9912109375
F214.39239501953125
tF45
F279.42425537109375
F27023.630859375
I1
I-1
tp80
a((F614.653564453125
F328.59548950195312
tF93
F60.737564086914062
F26874.3203125
I2
I-1
tp81
a((F400.49325561523438
F224.34687805175781
tF133
F104.02206420898438
F26378.4609375
I3
I1
tp82
a((F429.42782592773438
F315.70693969726562
tF63
F34.434135437011719
F25647.6484375
I2
I-1
tp83
a((F468.80776977539062
F208.46171569824219
tF125
F99.988090515136719
F25481.8203125
I3
I1
tp84
a((F470.01461791992188
F312.09036254882812
tF127
F106.85532379150391
F25213.078125
I3
I1
tp85
a((F615.53887939453125
F146.9420166015625
tF30
F199.52937316894531
F24801.357421875
I1
I-1
tp86
a((F614.6473388671875
F339.54248046875
tF129
F74.509880065917969
F24564.501953125
I3
I-1
tp87
a((F428.09524536132812
F273.49124145507812
tF55
F26.779129028320312
F21860.47265625
I2
I-1
tp88
a((F621.77392578125
F173.1151123046875
tF60
F197.80943298339844
F20485.33984375
I2
I1
tp89
a((F892.318603515625
F333.42892456054688
tF118
F90.235664367675781
F18797.005859375
I3
I1
tp90
a((F338.90731811523438
F333.44931030273438
tF118
F87.638069152832031
F18708.3046875
I3
I1
tp91
a((F718.69720458984375
F346.49124145507812
tF66
F75.25128173828125
F18654.98828125
I2
I-1
tp92
a((F582.817626953125
F280.20111083984375
tF125
F73.25640869140625
F18506.734375
I3
I1
tp93
a((F829.6815185546875
F242.76139831542969
tF141
F188.27479553222656
F18349.056640625
I3
I1
tp94
a((F615.9649658203125
F172.33160400390625
tF45
F202.94729614257812
F17425.6484375
I1
I1
tp95
a((F744.9915771484375
F165.74821472167969
tF172
F352.37332153320312
F17415.642578125
I3
I1
tp96
a((F612.76470947265625
F162.96368408203125
tF33
F206.68708801269531
F16999.974609375
I1
I1
tp97
a((F277.50064086914062
F248.22334289550781
tF166
F24.088178634643555
F16825.26953125
I3
I1
tp98
a((F613.46380615234375
F186.36866760253906
tF22
F141.64779663085938
F16516.29296875
I0
I1
tp99
a((F384.69940185546875
F282.69070434570312
tF42
F244.41903686523438
F15611.046875
I1
I1
tp100
a((F938.27777099609375
F282.70867919921875
tF42
F240.65499877929688
F15507.1171875
I1
I1
tp101
a((F889.96893310546875
F163.67138671875
tF87
F271.09152221679688
F15286.474609375
I2
I1
tp102
a((F336.12643432617188
F163.70236206054688
tF87
F270.54299926757812
F15242.5029296875
I2
I1
tp103
a((F630.627685546875
F173.63246154785156
tF87
F189.82664489746094
F14606.4267578125
I2
I1
tp104
a((F460.63916015625
F182.2044677734375
tF89
F213.7020263671875
F14138.017578125
I2
I1
tp105
a((F609.94708251953125
F74.924674987792969
tF88
F284.76824951171875
F13941.3330078125
I2
I-1
tp106
a((F521.864501953125
F161.09744262695312
tF84
F271.32781982421875
F12529.0322265625
I2
I1
tp107
a((F430.50698852539062
F298.10894775390625
tF27
F167.59579467773438
F12110.2958984375
I1
I-1
tp108
a((F793.8040771484375
F78.899772644042969
tF90
F253.23646545410156
F12031.8388671875
I2
I-1
tp109
a((F389.0926513671875
F321.19668579101562
tF125
F68.824714660644531
F11978.689453125
I3
I1
tp110
a((F612.7581787109375
F159.62654113769531
tF24
F211.33486938476562
F11664.10546875
I0
I1
tp111
a((F69.965118408203125
F194.55235290527344
tF14
F3.3148527145385742
F11644.689453125
I0
I-1
tp112
a((F167.32882690429688
F229.54232788085938
tF15
F182.37896728515625
F10684.3828125
I0
I-1
tp113
a((F167.83445739746094
F230.63484191894531
tF14
F183.62921142578125
F10567.2177734375
I0
I-1
tp114
a((F717.66510009765625
F291.38040161132812
tF43
F180.9671630859375
F10538.830078125
I1
I-1
tp115
a((F932.19598388671875
F281.22567749023438
tF24
F231.73284912109375
F10475.2578125
I0
I1
tp116
a((F614.33544921875
F298.39141845703125
tF28
F13.435708045959473
F9421.2685546875
I1
I-1
tp117
a((F573.94482421875
F324.30780029296875
tF117
F70.609573364257812
F8967.0224609375
I3
I1
tp118
a((F74.56103515625
F217.16346740722656
tF42
F2.626054048538208
F8784.0361328125
I1
I-1
tp119
a((F162.80894470214844
F206.85858154296875
tF42
F182.99470520019531
F8643.8720703125
I1
I-1
tp120
a((F588.909912109375
F310.25900268554688
tF84
F50.345447540283203
F8571.3857421875
I2
I1
tp121
a((F642.58868408203125
F311.38796997070312
tF87
F136.13140869140625
F8533.453125
I2
I1
tp122
a((F523.828125
F335.77374267578125
tF120
F90.581039428710938
F8394.0166015625
I3
I1
tp123
a((F77.280113220214844
F231.62611389160156
tF57
F2.380138635635376
F8387.130859375
I2
I-1
tp124
a((F918.7664794921875
F271.17648315429688
tF44
F91.081993103027344
F7360.0654296875
I1
I-1
tp125
a((F137.53604125976562
F118.1376953125
tF132
F325.05563354492188
F6862.0419921875
I3
I-1
tp126
a((F161.07514953613281
F193.85249328613281
tF57
F182.25888061523438
F6786.9833984375
I2
I-1
tp127
a((F288.7220458984375
F326.72427368164062
tF115
F112.63275146484375
F6400.505859375
I3
I1
tp128
a((F841.13433837890625
F325.74252319335938
tF115
F118.41645812988281
F6341.7724609375
I3
I1
tp129
a((F589.6341552734375
F248.57768249511719
tF67
F314.7615966796875
F5805.052734375
I2
I1
tp130
a((F81.520393371582031
F250.43229675292969
tF79
F2.7213859558105469
F5732.6533203125
I2
I-1
tp131
a((F919.59765625
F290.22369384765625
tF24
F229.518310546875
F5371.7431640625
I0
I-1
tp132
a((F600.94091796875
F173.59013366699219
tF13
F324.62631225585938
F5236.9189453125
I0
I-1
tp133
a((F608.28106689453125
F193.28260803222656
tF13
F358.28811645507812
F5090.66796875
I0
I-1
tp134
a.