(lp1
((F294
F33
tF31
F236.77163696289062
F0.001708384370431304
I0
I-1
tp2
a((F88
F135
tF31
F42.004459381103516
F0.0042009404860436916
I0
I-1
tp3
a((F291
F134
tF31
F102.07522583007812
F0.0065298443660140038
I0
I-1
tp4
a((F283
F134
tF31
F75.921195983886719
F0.0029772676061838865
I0
I-1
tp5
a((F236
F34
tF31
F299.30075073242188
F0.0068881167098879814
I0
I-1
tp6
a((F252
F34
tF31
F241.36404418945312
F0.0030401595868170261
I0
I-1
tp7
a((F265
F34
tF31
F305.45172119140625
F0.0021607000380754471
I0
I-1
tp8
a((F310
F133
tF31
F35.396354675292969
F0.0089074885472655296
I0
I-1
tp9
a((F250
F35
tF31
F240.77354431152344
F0.0061852051876485348
I0
I-1
tp10
a((F291
F35
tF31
F221.08406066894531
F0.0061330487951636314
I0
I-1
tp11
a((F309
F35
tF31
F312.13131713867188
F0.0088568059727549553
I0
I-1
tp12
a((F70
F36
tF31
F225.66290283203125
F0.0049437591806054115
I0
I-1
tp13
a((F238
F36
tF31
F301.89230346679688
F0.0090735889971256256
I0
I-1
tp14
a((F249
F37
tF31
F237.34347534179688
F0.007711498998105526
I0
I-1
tp15
a((F268
F37
tF31
F324.03424072265625
F0.0082785235717892647
I0
I-1
tp16
a((F290
F37
tF31
F212.24026489257812
F0.0056384350173175335
I0
I-1
tp17
a((F310
F37
tF31
F316.29364013671875
F0.0083645889535546303
I0
I-1
tp18
a((F239
F38
tF31
F306.06304931640625
F0.0025711986236274242
I0
I-1
tp19
a((F323
F38
tF31
F225.34814453125
F0.0085168210789561272
I0
I-1
tp20
a((F69
F39
tF31
F214.0670166015625
F0.0033956705592572689
I0
I-1
tp21
a((F322
F40
tF31
F216.16607666015625
F0.0091954395174980164
I0
I-1
tp22
a((F285
F124
tF31
F250.92974853515625
F0.0035801264457404613
I0
I-1
tp23
a((F368
F116
tF31
F230.25802612304688
F0.0019393204711377621
I0
I-1
tp24
a((F239
F45
tF31
F62.499366760253906
F0.0017748901154845953
I0
I-1
tp25
a((F323
F48
tF31
F125.5338134765625
F0.010052009485661983
I0
I-1
tp26
a((F236
F49
tF31
F69.029159545898438
F0.0068773552775382996
I0
I-1
tp27
a((F92
F50
tF31
F47.373245239257812
F0.012277364730834961
I0
I-1
tp28
a((F91
F52
tF31
F38.506786346435547
F0.013446293771266937
I0
I-1
tp29
a((F272
F116
tF31
F318.03369140625
F0.0021670993883162737
I0
I-1
tp30
a((F223
F116
tF31
F193.58927917480469
F0.0097875874489545822
I0
I-1
tp31
a((F223
F114
tF31
F180.89718627929688
F0.0072237011045217514
I0
I-1
tp32
a((F175
F114
tF31
F250.92588806152344
F0.010202902369201183
I0
I-1
tp33
a((F169
F113
tF31
F346.47042846679688
F0.012696417048573494
I0
I-1
tp34
a((F247
F60
tF31
F201.48788452148438
F0.0086998483166098595
I0
I-1
tp35
a((F270
F60
tF31
F315.35818481445312
F0.014685965143144131
I0
I-1
tp36
a((F192
F112
tF31
F304.57565307617188
F0.0027903516311198473
I0
I-1
tp37
a((F176
F112
tF31
F263.89901733398438
F0.0088680312037467957
I0
I-1
tp38
a((F284
F62
tF31
F246.60491943359375
F0.012387112714350224
I0
I-1
tp39
a((F244
F63
tF31
F218.4913330078125
F0.0037489770911633968
I0
I-1
tp40
a((F243
F65
tF31
F227.9786376953125
F0.0030007020104676485
I0
I-1
tp41
a((F150
F112
tF31
F204.36927795410156
F0.0025259163230657578
I0
I-1
tp42
a((F190
F111
tF31
F292.31390380859375
F0.003766150213778019
I0
I-1
tp43
a((F242
F69
tF31
F240.33172607421875
F0.0020989133045077324
I0
I-1
tp44
a((F178
F111
tF31
F255.46444702148438
F0.0059667211025953293
I0
I-1
tp45
a((F286
F74
tF31
F124.37563323974609
F0.0088109690696001053
I0
I-1
tp46
a((F340
F106
tF31
F28.373508453369141
F0.01948246918618679
I0
I-1
tp47
a((F119
F106
tF31
F29.401121139526367
F0.019333349540829659
I0
I-1
tp48
a((F170
F104
tF31
F15.28431510925293
F0.012364826165139675
I0
I-1
tp49
a((F172
F101
tF31
F40.291091918945312
F0.0076611898839473724
I0
I-1
tp50
a((F67
F95
tF31
F255.42684936523438
F0.0046933661215007305
I0
I-1
tp51
a((F119
F88
tF31
F331.99920654296875
F0.014575615525245667
I0
I-1
tp52
a((F340
F87
tF31
F338.59149169921875
F0.018367139622569084
I0
I-1
tp53
a((F245
F76
tF31
F140.951171875
F0.0096097569912672043
I0
I-1
tp54
a((F285
F76
tF31
F118.6583251953125
F0.0092119667679071426
I0
I-1
tp55
a((F198
F84
tF31
F336.6820068359375
F0.0052890060469508171
I0
I-1
tp56
a((F237
F83
tF31
F72.719337463378906
F0.0038065523840487003
I0
I-1
tp57
a((F198
F77
tF31
F24.220705032348633
F0.0071723214350640774
I0
I-1
tp58
a((F226
F83
tF31
F112.17848205566406
F0.0027242319192737341
I0
I-1
tp59
a((F241
F78
tF31
F102.24848175048828
F0.0045409221202135086
I0
I-1
tp60
a((F248
F78
tF31
F144.9642333984375
F0.010902212001383305
I0
I-1
tp61
a((F270
F78
tF31
F45.774734497070312
F0.012704349122941494
I0
I-1
tp62
a((F197
F79
tF31
F10.023399353027344
F0.010877581313252449
I0
I-1
tp63
a((F239
F82
tF31
F90.454231262207031
F0.008410927839577198
I0
I-1
tp64
a((F240
F80
tF31
F97.041435241699219
F0.0083834538236260414
I0
I-1
tp65
a((F224
F82
tF31
F126.58273315429688
F0.0033188257366418839
I0
I-1
tp66
a((F197
F82
tF31
F350.23406982421875
F0.008815474808216095
I0
I-1
tp67
a((F343
F81
tF31
F16.251276016235352
F-0.0012562456540763378
I0
I-1
tp68
a((F84
F138
tF31
F62.970779418945312
F-0.00055226834956556559
I0
I-1
tp69
a((F147
F81
tF31
F163.8564453125
F-0.0004148881125729531
I0
I-1
tp70
a((F70
F137
tF31
F115.52783966064453
F-0.00072169187478721142
I0
I-1
tp71
a((F221
F78
tF31
F122.62255859375
F0.00016575843619648367
I0
I-1
tp72
a((F306
F136
tF31
F57.965415954589844
F-0.00028740509878844023
I0
I-1
tp73
a((F295
F136
tF31
F105.31678771972656
F-0.00079260062193498015
I0
I-1
tp74
a((F279
F136
tF31
F73.90704345703125
F-0.00080111314309760928
I0
I-1
tp75
a((F306
F33
tF31
F301.076416015625
F-0.00049002922605723143
I0
I-1
tp76
a((F73
F35
tF31
F237.26081848144531
F0.00045196019345894456
I0
I-1
tp77
a((F90
F132
tF31
F28.027608871459961
F0.0012631368590518832
I0
I-1
tp78
a((F201
F85
tF31
F325.4169921875
F0.00020679437147919089
I0
I-1
tp79
a((F216
F76
tF31
F114.60676574707031
F-0.0010758837452158332
I0
I-1
tp80
a((F285
F131
tF31
F80.526504516601562
F0.00079089700011536479
I0
I-1
tp81
a((F240
F41
tF31
F322.9317626953125
F-0.00092840602155774832
I0
I-1
tp82
a((F281
F120
tF31
F282.42193603515625
F0.00060600944561883807
I0
I-1
tp83
a((F364
F119
tF31
F246.39199829101562
F-0.001034021726809442
I0
I-1
tp84
a((F219
F119
tF31
F219.71676635742188
F-0.00053130078595131636
I0
I-1
tp85
a((F275
F118
tF31
F311.32034301757812
F0.00025467088562436402
I0
I-1
tp86
a((F169
F117
tF31
F5.7797641754150391
F-0.00090583262499421835
I0
I-1
tp87
a((F201
F75
tF31
F44.088275909423828
F-0.00031170930014923215
I0
I-1
tp88
a((F321
F43
tF31
F178.8701171875
F-0.00088567897910252213
I0
I-1
tp89
a((F195
F116
tF31
F303.04122924804688
F4.2402280087117106e-06
I0
I-1
tp90
a((F147
F116
tF31
F230.04960632324219
F0.00097920454572886229
I0
I-1
tp91
a((F118
F109
tF31
F10.772158622741699
F-0.00084833829896524549
I0
I-1
tp92
a((F219
F109
tF31
F144.2940673828125
F7.5432035373523831e-05
I0
I-1
tp93
a((F344
F115
tF31
F331.62884521484375
F-0.00066128891194239259
I0
I-1
tp94
a((F153
F110
tF31
F189.14463806152344
F0.0014367590192705393
I0
I-1
tp95
a((F122
F115
tF31
F332.4071044921875
F-0.00097113382071256638
I0
I-1
tp96
a((F243
F72
tF31
F203.18638610839844
F-1.5351888578152284e-06
I0
I-1
tp97
a((F269
F112
tF31
F333.87344360351562
F0.0012209289707243443
I0
I-1
tp98
a((F77
F34
tF31
F252.01620483398438
F-0.0014499950921162963
I0
I-1
tp99
a((F142
F119
tF31
F247.69859313964844
F-0.0013887520181015134
I0
I-1
tp100
a((F129
F76
tF31
F69.4759521484375
F-0.0013502780348062515
I0
I-1
tp101
a((F232
F84
tF31
F44.413497924804688
F-0.0013070226414129138
I0
I-1
tp102
a((F249
F120
tF31
F123.02035522460938
F-0.0013400332536548376
I0
I-1
tp103
a((F258
F33
tF31
F267.36505126953125
F-0.0013940355274826288
I0
I-1
tp104
a((F351
F76
tF31
F71.588203430175781
F-0.0012808641185984015
I0
I-1
tp105
a((F286
F127
tF31
F117.0914306640625
F-0.0012968361843377352
I0
I-1
tp106
a((F177
F90
tF31
F108.44677734375
F-0.0014271686086431146
I0
I-1
tp107
a((F122
F80
tF31
F23.678695678710938
F-0.0013519887579604983
I0
I-1
tp108
a((F356
F120
tF31
F271.6636962890625
F-0.0014089930336922407
I0
I-1
tp109
a((F340
F109
tF31
F11.576278686523438
F-0.0013080138014629483
I0
I-1
tp110
a((F267.60000610351562
F37.200000762939453
tF37.200000762939453
F322.3026123046875
F0.0086568975821137428
I1
I-1
tp111
a((F175.20001220703125
F114.00000762939453
tF37.200000762939453
F270.2115478515625
F0.010025537572801113
I1
I-1
tp112
a((F168
F114.00000762939453
tF37.200000762939453
F4.8725342750549316
F0.012490158900618553
I1
I-1
tp113
a((F309.60000610351562
F37.200000762939453
tF37.200000762939453
F307.33990478515625
F0.0090843206271529198
I1
I-1
tp114
a((F222.00001525878906
F115.20000457763672
tF37.200000762939453
F187.98526000976562
F0.011261628940701485
I1
I-1
tp115
a((F222.00001525878906
F112.80000305175781
tF37.200000762939453
F174.62692260742188
F0.011044550687074661
I1
I-1
tp116
a((F322.80001831054688
F38.400001525878906
tF37.200000762939453
F237.17286682128906
F0.010220149531960487
I1
I-1
tp117
a((F339.60000610351562
F106.80000305175781
tF37.200000762939453
F21.140220642089844
F0.016360267996788025
I1
I-1
tp118
a((F321.60000610351562
F40.800003051757812
tF37.200000762939453
F240.95962524414062
F0.0095313042402267456
I1
I-1
tp119
a((F118.80000305175781
F106.80000305175781
tF37.200000762939453
F21.747127532958984
F0.016073139384388924
I1
I-1
tp120
a((F170.40000915527344
F103.20000457763672
tF37.200000762939453
F27.193759918212891
F0.010596278123557568
I1
I-1
tp121
a((F235.20001220703125
F48
tF37.200000762939453
F68.420608520507812
F0.0090355044230818748
I1
I-1
tp122
a((F324
F48
tF37.200000762939453
F113.47998809814453
F0.012584849260747433
I1
I-1
tp123
a((F91.200004577636719
F50.400001525878906
tF37.200000762939453
F38.100864410400391
F0.0098413070663809776
I1
I-1
tp124
a((F171.60000610351562
F100.80000305175781
tF37.200000762939453
F43.320766448974609
F0.0094969375059008598
I1
I-1
tp125
a((F148.80000305175781
F87.600006103515625
tF37.200000762939453
F196.36019897460938
F0.014142868109047413
I1
I-1
tp126
a((F118.80000305175781
F87.600006103515625
tF37.200000762939453
F341.06765747070312
F0.014031823724508286
I1
I-1
tp127
a((F339.60000610351562
F86.400001525878906
tF37.200000762939453
F343.66766357421875
F0.017040889710187912
I1
I-1
tp128
a((F240.00001525878906
F79.200004577636719
tF37.200000762939453
F115.50736999511719
F0.010796789079904556
I1
I-1
tp129
a((F270
F60.000003814697266
tF37.200000762939453
F319.90545654296875
F0.013383680023252964
I1
I-1
tp130
a((F196.80000305175781
F79.200004577636719
tF37.200000762939453
F7.9431438446044922
F0.012811308726668358
I1
I-1
tp131
a((F284.4000244140625
F62.400001525878906
tF37.200000762939453
F231.97113037109375
F0.010963235981762409
I1
I-1
tp132
a((F270
F78
tF37.200000762939453
F39.470939636230469
F0.013517129234969616
I1
I-1
tp133
a((F243.60000610351562
F78
tF37.200000762939453
F137.61210632324219
F0.018812855705618858
I1
I-1
tp134
a((F284.4000244140625
F75.600006103515625
tF37.200000762939453
F128.41923522949219
F0.011864898726344109
I1
I-1
tp135
a((F242.40000915527344
F75.600006103515625
tF37.200000762939453
F144.50706481933594
F0.011469314806163311
I1
I-1
tp136
a((F285.60000610351562
F73.200004577636719
tF37.200000762939453
F144.30258178710938
F0.013549881987273693
I1
I-1
tp137
a((F238.80000305175781
F69.600006103515625
tF37.200000762939453
F261.07098388671875
F0.0088630346581339836
I1
I-1
tp138
a((F242.40000915527344
F68.400001525878906
tF37.200000762939453
F227.12236022949219
F0.0025829363148659468
I1
I-1
tp139
a((F240.00001525878906
F72
tF37.200000762939453
F218.83700561523438
F0.0033347168937325478
I1
I-1
tp140
a((F283.20001220703125
F133.20001220703125
tF37.200000762939453
F84.097816467285156
F0.0040361061692237854
I1
I-1
tp141
a((F244.80000305175781
F74.400001525878906
tF37.200000762939453
F166.54975891113281
F0.008448820561170578
I1
I-1
tp142
a((F290.4000244140625
F37.200000762939453
tF37.200000762939453
F216.23904418945312
F0.006840419489890337
I1
I-1
tp143
a((F68.400001525878906
F38.400001525878906
tF37.200000762939453
F216.05691528320312
F0.0057589802891016006
I1
I-1
tp144
a((F200.40000915527344
F75.600006103515625
tF37.200000762939453
F28.055368423461914
F0.0033138170838356018
I1
I-1
tp145
a((F268.80001831054688
F112.80000305175781
tF37.200000762939453
F330.71401977539062
F0.0027746986597776413
I1
I-1
tp146
a((F238.80000305175781
F38.400001525878906
tF37.200000762939453
F286.11764526367188
F0.004331501666456461
I1
I-1
tp147
a((F242.40000915527344
F66
tF37.200000762939453
F230.13279724121094
F0.0036812520120292902
I1
I-1
tp148
a((F271.20001220703125
F115.20000457763672
tF37.200000762939453
F323.21249389648438
F0.0047616665251553059
I1
I-1
tp149
a((F88.800003051757812
F133.20001220703125
tF37.200000762939453
F37.653957366943359
F0.0051585515029728413
I1
I-1
tp150
a((F309.60000610351562
F132
tF37.200000762939453
F38.052845001220703
F0.0076658898033201694
I1
I-1
tp151
a((F290.4000244140625
F132
tF37.200000762939453
F102.19677734375
F0.0068355901166796684
I1
I-1
tp152
a((F220.80000305175781
F110.40000152587891
tF37.200000762939453
F160.86309814453125
F0.0071569043211638927
I1
I-1
tp153
a((F291.60000610351562
F134.40000915527344
tF37.200000762939453
F98.451370239257812
F0.0071889827959239483
I1
I-1
tp154
a((F247.20001220703125
F78
tF37.200000762939453
F150.99383544921875
F0.007995101623237133
I1
I-1
tp155
a((F243.60000610351562
F63.600002288818359
tF37.200000762939453
F219.66055297851562
F0.0036605009809136391
I1
I-1
tp156
a((F87.600006103515625
F135.60000610351562
tF37.200000762939453
F45.208614349365234
F0.003930940292775631
I1
I-1
tp157
a((F189.60000610351562
F110.40000152587891
tF37.200000762939453
F259.14361572265625
F0.0033329071011394262
I1
I-1
tp158
a((F165.60000610351562
F110.40000152587891
tF37.200000762939453
F7.3995671272277832
F0.0042970157228410244
I1
I-1
tp159
a((F152.40000915527344
F110.40000152587891
tF37.200000762939453
F185.10824584960938
F0.0035247677005827427
I1
I-1
tp160
a((F238.80000305175781
F44.400001525878906
tF37.200000762939453
F111.31046295166016
F0.0030641590710729361
I1
I-1
tp161
a((F248.40000915527344
F37.200000762939453
tF37.200000762939453
F245.62460327148438
F0.0072109517641365528
I1
I-1
tp162
a((F238.80000305175781
F81.600006103515625
tF37.200000762939453
F107.74143981933594
F0.0082839261740446091
I1
I-1
tp163
a((F284.4000244140625
F123.60000610351562
tF37.200000762939453
F225.83541870117188
F0.0068467357195913792
I1
I-1
tp164
a((F283.20001220703125
F121.20000457763672
tF37.200000762939453
F252.3017578125
F0.0053934059105813503
I1
I-1
tp165
a((F67.200004577636719
F94.800003051757812
tF37.200000762939453
F253.40411376953125
F0.0037647364661097527
I1
I-1
tp166
a((F236.40000915527344
F82.800003051757812
tF37.200000762939453
F86.6759033203125
F0.0052569746039807796
I1
I-1
tp167
a((F198.00001525878906
F84
tF37.200000762939453
F340.73550415039062
F0.0064996057190001011
I1
I-1
tp168
a((F247.20001220703125
F58.800003051757812
tF37.200000762939453
F197.84780883789062
F0.0071199433878064156
I1
I-1
tp169
a((F280.80001831054688
F120.00000762939453
tF37.200000762939453
F277.69281005859375
F0.0032746419310569763
I1
I-1
tp170
a((F200.40000915527344
F85.200004577636719
tF37.200000762939453
F331.60934448242188
F0.00366988405585289
I1
I-1
tp171
a((F122.40000152587891
F115.20000457763672
tF37.200000762939453
F336.16946411132812
F0.00024564916384406388
I1
I-1
tp172
a((F294
F136.80000305175781
tF37.200000762939453
F95.87847900390625
F0.001730813761241734
I1
I-1
tp173
a((F66
F134.40000915527344
tF37.200000762939453
F126.45779418945312
F0.00078485632548108697
I1
I-1
tp174
a((F192
F112.80000305175781
tF37.200000762939453
F293.5960693359375
F0.0021224888041615486
I1
I-1
tp175
a((F226.80000305175781
F82.800003051757812
tF37.200000762939453
F53.022441864013672
F0.0010442698840051889
I1
I-1
tp176
a((F343.20001220703125
F115.20000457763672
tF37.200000762939453
F336.71542358398438
F0.00029132215422578156
I1
I-1
tp177
a((F218.40000915527344
F118.80000305175781
tF37.200000762939453
F212.35591125488281
F0.00079447939060628414
I1
I-1
tp178
a((F223.20001220703125
F81.600006103515625
tF37.200000762939453
F113.01180267333984
F0.0022761521395295858
I1
I-1
tp179
a((F306
F136.80000305175781
tF37.200000762939453
F59.695220947265625
F0.0023445810656994581
I1
I-1
tp180
a((F150
F111.60000610351562
tF37.200000762939453
F195.58059692382812
F0.0023850284051150084
I1
I-1
tp181
a((F274.80001831054688
F117.60000610351562
tF37.200000762939453
F310.82711791992188
F0.00056057126494124532
I1
I-1
tp182
a((F219.60000610351562
F78
tF37.200000762939453
F121.01666259765625
F0.00092047295765951276
I1
I-1
tp183
a((F320.4000244140625
F43.200000762939453
tF37.200000762939453
F321.80972290039062
F0.00050549634033814073
I1
I-1
tp184
a((F279.60000610351562
F135.60000610351562
tF37.200000762939453
F78.888198852539062
F0.0015325373969972134
I1
I-1
tp185
a((F195.60000610351562
F116.40000152587891
tF37.200000762939453
F301.18853759765625
F0.0010137500939890742
I1
I-1
tp186
a((F146.40000915527344
F116.40000152587891
tF37.200000762939453
F228.7647705078125
F0.0012538828887045383
I1
I-1
tp187
a((F284.4000244140625
F130.80000305175781
tF37.200000762939453
F89.331832885742188
F0.0019427826628088951
I1
I-1
tp188
a((F177.60000610351562
F90
tF37.200000762939453
F109.00242614746094
F-0.00080987403634935617
I1
I-1
tp189
a((F240.00001525878906
F40.800003051757812
tF37.200000762939453
F264.228271484375
F-6.626508547924459e-05
I1
I-1
tp190
a((F241.20001220703125
F103.20000457763672
tF37.200000762939453
F278.97610473632812
F-0.00076359626837074757
I1
I-1
tp191
a((F343.20001220703125
F80.400001525878906
tF37.200000762939453
F16.118038177490234
F-0.00054815562907606363
I1
I-1
tp192
a((F248.40000915527344
F120.00000762939453
tF37.200000762939453
F113.18122863769531
F-0.00074320525163784623
I1
I-1
tp193
a((F350.4000244140625
F75.600006103515625
tF37.200000762939453
F64.490264892578125
F-0.00077542185317724943
I1
I-1
tp194
a((F146.40000915527344
F80.400001525878906
tF37.200000762939453
F164.40927124023438
F-0.00010354838741477579
I1
I-1
tp195
a((F129.60000610351562
F75.600006103515625
tF37.200000762939453
F66.4952392578125
F-0.00079177756560966372
I1
I-1
tp196
a((F216.00001525878906
F75.600006103515625
tF37.200000762939453
F115.44306182861328
F-0.00022263506252784282
I1
I-1
tp197
a((F355.20001220703125
F120.00000762939453
tF37.200000762939453
F273.11868286132812
F-0.00093353318516165018
I1
I-1
tp198
a((F133.20001220703125
F75.600006103515625
tF37.200000762939453
F85.335037231445312
F-0.00091999437427148223
I1
I-1
tp199
a((F70.800003051757812
F136.80000305175781
tF37.200000762939453
F112.25001525878906
F-0.00081709201913326979
I1
I-1
tp200
a((F272.16000366210938
F116.64000701904297
tF44.640003204345703
F325.9281005859375
F0.0041689532808959484
I2
I-1
tp201
a((F322.55999755859375
F44.640003204345703
tF44.640003204345703
F11.26417064666748
F0.013352508656680584
I2
I-1
tp202
a((F237.60000610351562
F47.520000457763672
tF44.640003204345703
F199.51255798339844
F0.0075226137414574623
I2
I-1
tp203
a((F322.55999755859375
F47.520000457763672
tF44.640003204345703
F38.407257080078125
F0.0086944848299026489
I2
I-1
tp204
a((F325.44000244140625
F47.520000457763672
tF44.640003204345703
F119.23207092285156
F0.012123900465667248
I2
I-1
tp205
a((F234.72001647949219
F48.960002899169922
tF44.640003204345703
F307.93655395507812
F0.0069858375936746597
I2
I-1
tp206
a((F92.160003662109375
F50.400001525878906
tF44.640003204345703
F25.498073577880859
F0.010278838686645031
I2
I-1
tp207
a((F239.04000854492188
F44.640003204345703
tF44.640003204345703
F202.47404479980469
F0.0076308161951601505
I2
I-1
tp208
a((F221.760009765625
F115.20000457763672
tF44.640003204345703
F174.08486938476562
F0.013526680879294872
I2
I-1
tp209
a((F247.68000793457031
F59.040000915527344
tF44.640003204345703
F197.58468627929688
F0.0050718183629214764
I2
I-1
tp210
a((F175.68000793457031
F113.76000213623047
tF44.640003204345703
F6.6066913604736328
F0.010738175362348557
I2
I-1
tp211
a((F285.12002563476562
F123.84000396728516
tF44.640003204345703
F170.23268127441406
F0.012909889221191406
I2
I-1
tp212
a((F168.48001098632812
F113.76000213623047
tF44.640003204345703
F16.98063850402832
F0.011386963538825512
I2
I-1
tp213
a((F221.760009765625
F110.8800048828125
tF44.640003204345703
F176.76362609863281
F0.007381955161690712
I2
I-1
tp214
a((F152.63999938964844
F110.8800048828125
tF44.640003204345703
F118.08859252929688
F0.0044743157923221588
I2
I-1
tp215
a((F270.72000122070312
F60.480003356933594
tF44.640003204345703
F330.84152221679688
F0.010735750198364258
I2
I-1
tp216
a((F341.27999877929688
F106.56000518798828
tF44.640003204345703
F6.8605785369873047
F0.013790096156299114
I2
I-1
tp217
a((F285.12002563476562
F63.360000610351562
tF44.640003204345703
F214.20779418945312
F0.016609154641628265
I2
I-1
tp218
a((F288
F63.360000610351562
tF44.640003204345703
F205.03549194335938
F0.0091430936008691788
I2
I-1
tp219
a((F168.48001098632812
F103.68000793457031
tF44.640003204345703
F32.389495849609375
F0.011032057926058769
I2
I-1
tp220
a((F243.36001586914062
F66.240005493164062
tF44.640003204345703
F216.35147094726562
F0.0064376327209174633
I2
I-1
tp221
a((F171.36000061035156
F102.24000549316406
tF44.640003204345703
F44.040252685546875
F0.0094282226637005806
I2
I-1
tp222
a((F66.240005493164062
F93.600006103515625
tF44.640003204345703
F255.51351928710938
F0.0044754454866051674
I2
I-1
tp223
a((F341.27999877929688
F87.840003967285156
tF44.640003204345703
F357.61810302734375
F0.012773693539202213
I2
I-1
tp224
a((F239.04000854492188
F69.120002746582031
tF44.640003204345703
F223.116455078125
F0.010761039331555367
I2
I-1
tp225
a((F148.32000732421875
F87.840003967285156
tF44.640003204345703
F165.18922424316406
F0.012201002798974514
I2
I-1
tp226
a((F240.48001098632812
F72
tF44.640003204345703
F186.75442504882812
F0.0063906046561896801
I2
I-1
tp227
a((F244.80000305175781
F73.44000244140625
tF44.640003204345703
F176.6915283203125
F0.0076198033057153225
I2
I-1
tp228
a((F288
F73.44000244140625
tF44.640003204345703
F160.68508911132812
F0.0082249986007809639
I2
I-1
tp229
a((F119.52000427246094
F87.840003967285156
tF44.640003204345703
F356.92062377929688
F0.011779037304222584
I2
I-1
tp230
a((F201.60000610351562
F84.960006713867188
tF44.640003204345703
F351.8262939453125
F0.0045177005231380463
I2
I-1
tp231
a((F236.16000366210938
F83.520004272460938
tF44.640003204345703
F120.34604644775391
F0.0049257045611739159
I2
I-1
tp232
a((F239.04000854492188
F82.080001831054688
tF44.640003204345703
F141.25613403320312
F0.0065948064438998699
I2
I-1
tp233
a((F270.72000122070312
F79.200004577636719
tF44.640003204345703
F32.105499267578125
F0.014348600059747696
I2
I-1
tp234
a((F201.60000610351562
F76.319999694824219
tF44.640003204345703
F346.55450439453125
F0.0052771596238017082
I2
I-1
tp235
a((F247.68000793457031
F79.200004577636719
tF44.640003204345703
F156.638916015625
F0.0063197584822773933
I2
I-1
tp236
a((F243.36001586914062
F76.319999694824219
tF44.640003204345703
F159.26425170898438
F0.01335429772734642
I2
I-1
tp237
a((F283.68002319335938
F76.319999694824219
tF44.640003204345703
F131.36946105957031
F0.0084406724199652672
I2
I-1
tp238
a((F240.48001098632812
F79.200004577636719
tF44.640003204345703
F148.89067077636719
F0.013970169238746166
I2
I-1
tp239
a((F197.28001403808594
F79.200004577636719
tF44.640003204345703
F335.90542602539062
F0.013554709032177925
I2
I-1
tp240
a((F349.92001342773438
F76.319999694824219
tF44.640003204345703
F16.085729598999023
F-0.00021067974739708006
I2
I-1
tp241
a((F269.27999877929688
F112.32000732421875
tF44.640003204345703
F329.19937133789062
F0.0028563125524669886
I2
I-1
tp242
a((F216.00001525878906
F76.319999694824219
tF44.640003204345703
F80.094940185546875
F0.0004861545457970351
I2
I-1
tp243
a((F191.52000427246094
F112.32000732421875
tF44.640003204345703
F228.29681396484375
F0.0028531861025840044
I2
I-1
tp244
a((F122.40000152587891
F80.639999389648438
tF44.640003204345703
F349.01528930664062
F0.00012978982704225928
I2
I-1
tp245
a((F146.8800048828125
F80.639999389648438
tF44.640003204345703
F196.43670654296875
F0.00065547559643164277
I2
I-1
tp246
a((F149.760009765625
F112.32000732421875
tF44.640003204345703
F181.9376220703125
F0.0019458564929664135
I2
I-1
tp247
a((F195.84001159667969
F116.64000701904297
tF44.640003204345703
F280.51657104492188
F0.00086247670697048306
I2
I-1
tp248
a((F128.16000366210938
F76.319999694824219
tF44.640003204345703
F14.160455703735352
F-0.00020291484543122351
I2
I-1
tp249
a((F146.8800048828125
F116.64000701904297
tF44.640003204345703
F221.71061706542969
F0.00093585997819900513
I2
I-1
tp250
a((F226.08000183105469
F83.520004272460938
tF44.640003204345703
F2.4540927410125732
F0.0029108116868883371
I2
I-1
tp251
a((F168.48001098632812
F118.08000183105469
tF44.640003204345703
F45.353572845458984
F0.00073581398464739323
I2
I-1
tp252
a((F239.04000854492188
F74.8800048828125
tF44.640003204345703
F158.3802490234375
F0.0025580204091966152
I2
I-1
tp253
a((F188.6400146484375
F110.8800048828125
tF44.640003204345703
F203.58074951171875
F0.0030657043680548668
I2
I-1
tp254
a((F217.44000244140625
F119.52000427246094
tF44.640003204345703
F182.12368774414062
F0.00043277497752569616
I2
I-1
tp255
a((F275.04000854492188
F118.08000183105469
tF44.640003204345703
F320.88604736328125
F0.0019260122207924724
I2
I-1
tp256
a((F243.36001586914062
F69.120002746582031
tF44.640003204345703
F209.20120239257812
F0.0029290826059877872
I2
I-1
tp257
a((F280.80001831054688
F119.52000427246094
tF44.640003204345703
F278.190185546875
F0.003049937542527914
I2
I-1
tp258
a((F200.16000366210938
F119.52000427246094
tF44.640003204345703
F298.50241088867188
F-0.00018016539979726076
I2
I-1
tp259
a((F217.44000244140625
F109.44000244140625
tF44.640003204345703
F165.34652709960938
F0.00070486386539414525
I2
I-1
tp260
a((F244.80000305175781
F63.360000610351562
tF44.640003204345703
F211.1822509765625
F0.0032466517295688391
I2
I-1
tp261
a((F344.16000366210938
F115.20000457763672
tF44.640003204345703
F352.33355712890625
F0.00099144387058913708
I2
I-1
tp262
a((F241.92001342773438
F103.68000793457031
tF44.640003204345703
F263.11239624023438
F-0.00015341176185756922
I2
I-1
tp263
a((F237.60000610351562
F97.920005798339844
tF44.640003204345703
F286.84112548828125
F-8.6099280451890081e-05
I2
I-1
tp264
a((F220.32000732421875
F77.760002136230469
tF44.640003204345703
F46.341503143310547
F0.00073166511720046401
I2
I-1
tp265
a((F236.16000366210938
F67.680000305175781
tF44.640003204345703
F250.39492797851562
F0.00036025978624820709
I2
I-1
tp266
a((F122.40000152587891
F115.20000457763672
tF44.640003204345703
F353.09304809570312
F0.0008441809331998229
I2
I-1
tp267
a((F249.12001037597656
F120.96000671386719
tF44.640003204345703
F107.55823516845703
F-0.00039705308154225349
I2
I-1
tp268
a((F181.44000244140625
F96.480003356933594
tF44.640003204345703
F112.35932922363281
F-0.00036078106495551765
I2
I-1
tp269
a((F133.91999816894531
F74.8800048828125
tF44.640003204345703
F87.223556518554688
F-0.00055898219579830766
I2
I-1
tp270
a((F342.72000122070312
F80.639999389648438
tF44.640003204345703
F337.46417236328125
F-0.00053573754848912358
I2
I-1
tp271
a((F349.92001342773438
F119.52000427246094
tF44.640003204345703
F316.93508911132812
F-0.00052771985065191984
I2
I-1
tp272
a((F128.16000366210938
F119.52000427246094
tF44.640003204345703
F318.0640869140625
F-0.00053601735271513462
I2
I-1
tp273
a((F141.12001037597656
F119.52000427246094
tF44.640003204345703
F243.70893859863281
F-0.00058700755471363664
I2
I-1
tp274
a((F139.68000793457031
F76.319999694824219
tF44.640003204345703
F161.2249755859375
F-0.00062368751969188452
I2
I-1
tp275
a((F248.83203125
F119.23200988769531
tF53.568004608154297
F94.445770263671875
F0.0001861826895037666
I3
I-1
tp276
a((F200.44801330566406
F119.23200988769531
tF53.568004608154297
F131.01344299316406
F0.00026745410286821425
I3
I-1
tp277
a((F274.75201416015625
F117.50401306152344
tF53.568004608154297
F353.54855346679688
F0.0021623740904033184
I3
I-1
tp278
a((F141.69601440429688
F117.50401306152344
tF53.568004608154297
F71.592605590820312
F0.0017396202310919762
I3
I-1
tp279
a((F127.87200927734375
F117.50401306152344
tF53.568004608154297
F60.300041198730469
F0.00038402978680096567
I3
I-1
tp280
a((F195.26402282714844
F115.77600860595703
tF53.568004608154297
F161.49966430664062
F0.00080203812103718519
I3
I-1
tp281
a((F247.10401916503906
F58.752006530761719
tF53.568004608154297
F209.603515625
F0.0036825407296419144
I3
I-1
tp282
a((F269.56802368164062
F58.752006530761719
tF53.568004608154297
F327.44683837890625
F0.0097705051302909851
I3
I-1
tp283
a((F145.15200805664062
F115.77600860595703
tF53.568004608154297
F60.7403564453125
F0.0015835490776225924
I3
I-1
tp284
a((F286.8480224609375
F60.480007171630859
tF53.568004608154297
F213.95101928710938
F0.0096266418695449829
I3
I-1
tp285
a((F283.39202880859375
F63.936004638671875
tF53.568004608154297
F203.76506042480469
F0.016769770532846451
I3
I-1
tp286
a((F167.61601257324219
F114.04801177978516
tF53.568004608154297
F58.900005340576172
F0.015882575884461403
I3
I-1
tp287
a((F241.92002868652344
F65.664009094238281
tF53.568004608154297
F189.91511535644531
F0.010552626103162766
I3
I-1
tp288
a((F122.68801116943359
F114.04801177978516
tF53.568004608154297
F56.065628051757812
F0.0022348503116518259
I3
I-1
tp289
a((F269.56802368164062
F112.32000732421875
tF53.568004608154297
F325.56619262695312
F0.0061535700224339962
I3
I-1
tp290
a((F238.46401977539062
F69.120010375976562
tF53.568004608154297
F181.21517944335938
F0.010589937679469585
I3
I-1
tp291
a((F243.64802551269531
F70.848007202148438
tF53.568004608154297
F183.37918090820312
F0.0066289333626627922
I3
I-1
tp292
a((F221.18402099609375
F112.32000732421875
tF53.568004608154297
F19.801080703735352
F0.016122398898005486
I3
I-1
tp293
a((F191.80801391601562
F112.32000732421875
tF53.568004608154297
F159.43820190429688
F0.0018632701830938458
I3
I-1
tp294
a((F176.25601196289062
F112.32000732421875
tF53.568004608154297
F78.537193298339844
F0.0099087823182344437
I3
I-1
tp295
a((F283.39202880859375
F74.304008483886719
tF53.568004608154297
F151.73530578613281
F0.016950527206063271
I3
I-1
tp296
a((F286.8480224609375
F74.304008483886719
tF53.568004608154297
F155.37236022949219
F0.0097392639145255089
I3
I-1
tp297
a((F127.87200927734375
F76.032005310058594
tF53.568004608154297
F270.46087646484375
F0.0002808519930113107
I3
I-1
tp298
a((F148.60801696777344
F112.32000732421875
tF53.568004608154297
F66.012542724609375
F0.0016497826436534524
I3
I-1
tp299
a((F216.00001525878906
F76.032005310058594
tF53.568004608154297
F317.4993896484375
F0.001781943254172802
I3
I-1
tp300
a((F219.45602416992188
F77.760009765625
tF53.568004608154297
F325.486572265625
F0.00067684176610782743
I3
I-1
tp301
a((F238.46401977539062
F77.760009765625
tF53.568004608154297
F195.17799377441406
F0.013265779241919518
I3
I-1
tp302
a((F243.64802551269531
F77.760009765625
tF53.568004608154297
F180.21376037597656
F0.015656812116503716
I3
I-1
tp303
a((F269.56802368164062
F77.760009765625
tF53.568004608154297
F28.457956314086914
F0.0091752121224999428
I3
I-1
tp304
a((F120.96001434326172
F79.488006591796875
tF53.568004608154297
F264.50946044921875
F0.00048257681191898882
I3
I-1
tp305
a((F145.15200805664062
F79.488006591796875
tF53.568004608154297
F266.10775756835938
F0.0020366031676530838
I3
I-1
tp306
a((F196.99201965332031
F79.488006591796875
tF53.568004608154297
F229.00517272949219
F0.017521696165204048
I3
I-1
tp307
a((F247.10401916503906
F79.488006591796875
tF53.568004608154297
F165.40972900390625
F0.0055433902889490128
I3
I-1
tp308
a((F342.14404296875
F79.488006591796875
tF53.568004608154297
F265.92181396484375
F0.00034550181590020657
I3
I-1
tp309
a((F188.35202026367188
F110.59201049804688
tF53.568004608154297
F145.0455322265625
F0.0039093573577702045
I3
I-1
tp310
a((F222.91201782226562
F81.216011047363281
tF53.568004608154297
F327.61614990234375
F0.0015492048114538193
I3
I-1
tp311
a((F238.46401977539062
F81.216011047363281
tF53.568004608154297
F195.23751831054688
F0.007374386303126812
I3
I-1
tp312
a((F153.79200744628906
F110.59201049804688
tF53.568004608154297
F59.947891235351562
F0.0038221231661736965
I3
I-1
tp313
a((F226.36802673339844
F82.944007873535156
tF53.568004608154297
F316.74313354492188
F0.0033088389318436384
I3
I-1
tp314
a((F340.41604614257812
F107.13600921630859
tF53.568004608154297
F7.420464038848877
F0.014664838090538979
I3
I-1
tp315
a((F216.00001525878906
F107.13600921630859
tF53.568004608154297
F231.87088012695312
F0.0010834942804649472
I3
I-1
tp316
a((F119.23200988769531
F86.400009155273438
tF53.568004608154297
F344.72103881835938
F0.011517512612044811
I3
I-1
tp317
a((F146.88002014160156
F86.400009155273438
tF53.568004608154297
F135.31857299804688
F0.012246357277035713
I3
I-1
tp318
a((F340.41604614257812
F86.400009155273438
tF53.568004608154297
F349.54327392578125
F0.012279045768082142
I3
I-1
tp319
a((F119.23200988769531
F107.13600921630859
tF53.568004608154297
F9.6884088516235352
F0.013129036873579025
I3
I-1
tp320
a((F240.1920166015625
F103.68000793457031
tF53.568004608154297
F225.78030395507812
F0.00027378206141293049
I3
I-1
tp321
a((F65.664009094238281
F91.584007263183594
tF53.568004608154297
F247.50338745117188
F0.0045797210186719894
I3
I-1
tp322
a((F169.34400939941406
F101.95201110839844
tF53.568004608154297
F57.423793792724609
F0.0095637459307909012
I3
I-1
tp323
a((F236.73602294921875
F96.76800537109375
tF53.568004608154297
F239.56259155273438
F0.00062624667771160603
I3
I-1
tp324
a((F207.36001586914062
F74.304008483886719
tF53.568004608154297
F294.53250122070312
F-0.0011378724593669176
I3
I-1
tp325
a((F181.44001770019531
F96.76800537109375
tF53.568004608154297
F95.8343505859375
F-0.00018203305080533028
I3
I-1
tp326
a((F191.80801391601562
F101.95201110839844
tF53.568004608154297
F115.08352661132812
F-0.0011328613618388772
I3
I-1
tp327
a((F134.78401184082031
F119.23200988769531
tF53.568004608154297
F68.560653686523438
F-0.00052383448928594589
I3
I-1
tp328
a((F177.98402404785156
F88.128005981445312
tF53.568004608154297
F99.349449157714844
F-0.00015394212095998228
I3
I-1
tp329
a((F183.16801452636719
F65.664009094238281
tF53.568004608154297
F217.85955810546875
F-3.3051546779461205e-05
I3
I-1
tp330
a((F231.55201721191406
F82.944007873535156
tF53.568004608154297
F266.95162963867188
F0.00012147478992119431
I3
I-1
tp331
a((F96.76800537109375
F82.944007873535156
tF53.568004608154297
F284.7567138671875
F-0.00089839531574398279
I3
I-1
tp332
a((F183.16801452636719
F110.59201049804688
tF53.568004608154297
F119.19092559814453
F-0.00071603344986215234
I3
I-1
tp333
a((F176.25601196289062
F81.216011047363281
tF53.568004608154297
F268.49209594726562
F-0.00079492904478684068
I3
I-1
tp334
a((F133.05601501464844
F74.304008483886719
tF53.568004608154297
F269.09588623046875
F-0.00013332540402188897
I3
I-1
tp335
a((F176.25601196289062
F74.304008483886719
tF53.568004608154297
F261.46875
F5.6863515055738389e-05
I3
I-1
tp336
a((F96.76800537109375
F112.32000732421875
tF53.568004608154297
F75.376731872558594
F-0.00082647724775597453
I3
I-1
tp337
a((F139.968017578125
F76.032005310058594
tF53.568004608154297
F267.3048095703125
F-1.9800707377726212e-05
I3
I-1
tp338
a((F182.47682189941406
F66.355209350585938
tF64.281608581542969
F228.1517333984375
F0.00081277394201606512
I4
I-1
tp339
a((F238.46403503417969
F66.355209350585938
tF64.281608581542969
F171.65878295898438
F0.014570483937859535
I4
I-1
tp340
a((F244.68482971191406
F66.355209350585938
tF64.281608581542969
F177.85307312011719
F0.0064530521631240845
I4
I-1
tp341
a((F107.82721710205078
F68.428810119628906
tF64.281608581542969
F302.29278564453125
F-0.00088056374806910753
I4
I-1
tp342
a((F161.74082946777344
F68.428810119628906
tF64.281608581542969
F284.54666137695312
F-0.0010387127986177802
I4
I-1
tp343
a((F132.71041870117188
F74.649612426757812
tF64.281608581542969
F264.9678955078125
F0.00026822614017874002
I4
I-1
tp344
a((F176.25602722167969
F74.649612426757812
tF64.281608581542969
F268.31549072265625
F0.0033550276421010494
I4
I-1
tp345
a((F207.36003112792969
F74.649612426757812
tF64.281608581542969
F287.8785400390625
F-0.00080245494609698653
I4
I-1
tp346
a((F215.65443420410156
F74.649612426757812
tF64.281608581542969
F317.62057495117188
F0.0018246473046019673
I4
I-1
tp347
a((F282.0096435546875
F74.649612426757812
tF64.281608581542969
F92.689186096191406
F0.0094849150627851486
I4
I-1
tp348
a((F128.56321716308594
F76.723213195800781
tF64.281608581542969
F251.10137939453125
F0.00098179979249835014
I4
I-1
tp349
a((F138.93121337890625
F76.723213195800781
tF64.281608581542969
F288.1591796875
F0.00045297722681425512
I4
I-1
tp350
a((F172.10882568359375
F76.723213195800781
tF64.281608581542969
F271.19342041015625
F0.0090779699385166168
I4
I-1
tp351
a((F219.8016357421875
F76.723213195800781
tF64.281608581542969
F316.0191650390625
F0.00080125761451199651
I4
I-1
tp352
a((F199.06562805175781
F78.79681396484375
tF64.281608581542969
F210.70535278320312
F0.017444835975766182
I4
I-1
tp353
a((F246.75843811035156
F78.79681396484375
tF64.281608581542969
F197.58792114257812
F0.0063086086884140968
I4
I-1
tp354
a((F271.64163208007812
F78.79681396484375
tF64.281608581542969
F49.833515167236328
F0.010668357834219933
I4
I-1
tp355
a((F286.15682983398438
F78.79681396484375
tF64.281608581542969
F92.936012268066406
F0.011557969264686108
I4
I-1
tp356
a((F228.09603881835938
F80.870414733886719
tF64.281608581542969
F274.4666748046875
F0.0037534693256020546
I4
I-1
tp357
a((F234.31683349609375
F80.870414733886719
tF64.281608581542969
F238.95600891113281
F0.0095607535913586617
I4
I-1
tp358
a((F238.46403503417969
F80.870414733886719
tF64.281608581542969
F225.91156005859375
F0.0090768896043300629
I4
I-1
tp359
a((F97.459213256835938
F82.944015502929688
tF64.281608581542969
F290.45867919921875
F-0.00070712977321818471
I4
I-1
tp360
a((F319.33444213867188
F82.944015502929688
tF64.281608581542969
F283.94180297851562
F-0.00099616462830454111
I4
I-1
tp361
a((F120.26881408691406
F85.017608642578125
tF64.281608581542969
F228.10404968261719
F0.011284936219453812
I4
I-1
tp362
a((F147.22561645507812
F85.017608642578125
tF64.281608581542969
F5.4896750450134277
F0.011498244479298592
I4
I-1
tp363
a((F178.32962036132812
F89.164810180664062
tF64.281608581542969
F310.34982299804688
F0.0023218481801450253
I4
I-1
tp364
a((F223.94883728027344
F89.164810180664062
tF64.281608581542969
F23.076751708984375
F-0.0019746266771107912
I4
I-1
tp365
a((F66.355209350585938
F91.238410949707031
tF64.281608581542969
F241.30633544921875
F0.003638753667473793
I4
I-1
tp366
a((F180.40322875976562
F95.385612487792969
tF64.281608581542969
F54.816150665283203
F0.0039658844470977783
I4
I-1
tp367
a((F236.39042663574219
F97.459213256835938
tF64.281608581542969
F184.10693359375
F0.0020703498739749193
I4
I-1
tp368
a((F317.26083374023438
F97.459213256835938
tF64.281608581542969
F160.90055847167969
F-0.0031472363043576479
I4
I-1
tp369
a((F170.03521728515625
F101.60641479492188
tF64.281608581542969
F82.800735473632812
F0.010015908628702164
I4
I-1
tp370
a((F192.84483337402344
F101.60641479492188
tF64.281608581542969
F119.16075897216797
F-0.0011229125084355474
I4
I-1
tp371
a((F240.53762817382812
F103.68001556396484
tF64.281608581542969
F135.02880859375
F0.0016249628970399499
I4
I-1
tp372
a((F120.26881408691406
F105.75361633300781
tF64.281608581542969
F73.006202697753906
F0.010750571265816689
I4
I-1
tp373
a((F215.65443420410156
F107.82721710205078
tF64.281608581542969
F296.61502075195312
F0.004079827107489109
I4
I-1
tp374
a((F129.39266967773438
F77.137939453125
tF77.137939453125
F231.24522399902344
F0.0021267253905534744
I5
I-1
tp375
a((F139.345947265625
F77.137939453125
tF77.137939453125
F326.64971923828125
F0.0026636028196662664
I5
I-1
tp376
a((F199.06564331054688
F79.626258850097656
tF77.137939453125
F199.66775512695312
F0.014573829248547554
I5
I-1
tp377
a((F226.43717956542969
F79.626258850097656
tF77.137939453125
F263.93121337890625
F0.0030547324568033218
I5
I-1
tp378
a((F236.39045715332031
F79.626258850097656
tF77.137939453125
F229.06869506835938
F0.0082059986889362335
I5
I-1
tp379
a((F246.34373474121094
F79.626258850097656
tF77.137939453125
F275.44161987304688
F0.0074721579439938068
I5
I-1
tp380
a((F271.22695922851562
F79.626258850097656
tF77.137939453125
F122.33892822265625
F0.0097385914996266365
I5
I-1
tp381
a((F286.1568603515625
F79.626258850097656
tF77.137939453125
F21.62945556640625
F0.011629827320575714
I5
I-1
tp382
a((F99.532821655273438
F82.114578247070312
tF77.137939453125
F298.07012939453125
F-0.00020844474784098566
I5
I-1
tp383
a((F320.99334716796875
F82.114578247070312
tF77.137939453125
F279.22930908203125
F-0.00062580860685557127
I5
I-1
tp384
a((F121.92771148681641
F84.602897644042969
tF77.137939453125
F239.76023864746094
F0.011237455531954765
I5
I-1
tp385
a((F146.8109130859375
F84.602897644042969
tF77.137939453125
F326.71328735351562
F0.010778620839118958
I5
I-1
tp386
a((F169.20579528808594
F84.602897644042969
tF77.137939453125
F267.47293090820312
F4.2807761928997934e-05
I5
I-1
tp387
a((F179.15908813476562
F87.091217041015625
tF77.137939453125
F277.0992431640625
F0.0018257754854857922
I5
I-1
tp388
a((F223.9488525390625
F89.579544067382812
tF77.137939453125
F249.76200866699219
F-0.0012747079599648714
I5
I-1
tp389
a((F181.64739990234375
F94.556182861328125
tF77.137939453125
F4.7747812271118164
F0.00525326794013381
I5
I-1
tp390
a.