(lp1
((F212.6312255859375
F604.1419677734375
tF91
F266.83059692382812
F72189.421875
I2
I-1
tp2
a((F288.85458374023438
F250.83169555664062
tF122
F340.55941772460938
F71522.265625
I3
I-1
tp3
a((F155.19923400878906
F889.36517333984375
tF115
F182.85829162597656
F69480.46875
I3
I-1
tp4
a((F155.19725036621094
F335.91592407226562
tF115
F182.69770812988281
F68665
I3
I-1
tp5
a((F331.53546142578125
F578.7451171875
tF83
F9.2986469268798828
F65881.3203125
I2
I1
tp6
a((F327.96786499023438
F750.83935546875
tF119
F292.956787109375
F63368.671875
I3
I1
tp7
a((F280.8524169921875
F428.905029296875
tF135
F15.655210494995117
F62058.31640625
I3
I-1
tp8
a((F292.4381103515625
F593.20269775390625
tF110
F17.836824417114258
F61499.55859375
I3
I-1
tp9
a((F327.69744873046875
F818.2960205078125
tF68
F344.47787475585938
F61394.34765625
I2
I1
tp10
a((F192.95297241210938
F699.43438720703125
tF163
F274.98117065429688
F58611.57421875
I3
I-1
tp11
a((F112.40425872802734
F753.97247314453125
tF92
F107.078857421875
F57999.94140625
I2
I1
tp12
a((F234.46780395507812
F503.63406372070312
tF47
F21.054620742797852
F57892.3203125
I1
I-1
tp13
a((F216.8580322265625
F698.1571044921875
tF123
F267.91952514648438
F55966.43359375
I3
I-1
tp14
a((F233.02738952636719
F519.64306640625
tF91
F12.55305290222168
F55237.82421875
I2
I-1
tp15
a((F235.60816955566406
F509.85919189453125
tF67
F18.688413619995117
F54862.89453125
I2
I-1
tp16
a((F150.31692504882812
F541.16864013671875
tF68
F199.28004455566406
F54239.98046875
I2
I-1
tp17
a((F230.36552429199219
F889.80224609375
tF104
F5.556663990020752
F54089.4609375
I3
I-1
tp18
a((F328.63204956054688
F648.5242919921875
tF111
F66.965728759765625
F53545.828125
I3
I1
tp19
a((F230.35264587402344
F336.27239990234375
tF104
F354.8101806640625
F53477.0234375
I3
I-1
tp20
a((F288.3140869140625
F805.59417724609375
tF127
F86.64117431640625
F51940.69140625
I3
I-1
tp21
a((F177.17852783203125
F446.71078491210938
tF87
F210.55152893066406
F50484.4453125
I2
I-1
tp22
a((F119.3084716796875
F752.65155029296875
tF118
F106.93678283691406
F49634.67578125
I3
I1
tp23
a((F166.7703857421875
F698.604736328125
tF123
F270.10498046875
F48568.09375
I3
I-1
tp24
a((F118.32341003417969
F190.51033020019531
tF135
F230.10113525390625
F48288.7109375
I3
I1
tp25
a((F306.06423950195312
F697.23443603515625
tF111
F282.98291015625
F45673.4921875
I3
I-1
tp26
a((F140.021728515625
F461.23184204101562
tF83
F214.8634033203125
F43801.390625
I2
I1
tp27
a((F113.37728881835938
F686.0609130859375
tF89
F187.12960815429688
F42079.8046875
I2
I1
tp28
a((F148.22561645507812
F414.330322265625
tF44
F111.03534698486328
F41805.05859375
I1
I1
tp29
a((F147.87710571289062
F967.008544921875
tF47
F111.99687194824219
F41737.109375
I1
I1
tp30
a((F150.39895629882812
F971.82891845703125
tF33
F104.38145446777344
F41268.078125
I1
I1
tp31
a((F150.36338806152344
F418.4754638671875
tF32
F104.03789520263672
F41251.05078125
I1
I1
tp32
a((F145.47500610351562
F455.01010131835938
tF64
F16.440462112426758
F41163.0234375
I2
I1
tp33
a((F243.29209899902344
F580.6790771484375
tF82
F24.168966293334961
F41052.0859375
I2
I1
tp34
a((F145.34152221679688
F407.6258544921875
tF61
F119.70161437988281
F37251.078125
I2
I1
tp35
a((F266.09628295898438
F650.0263671875
tF170
F292.18194580078125
F37103.65234375
I3
I1
tp36
a((F146.94075012207031
F447.94158935546875
tF46
F255.62774658203125
F36969.65625
I1
I1
tp37
a((F165.65406799316406
F860.6533203125
tF44
F171.42471313476562
F35448.9609375
I1
I-1
tp38
a((F165.70697021484375
F307.01358032226562
tF44
F172.38818359375
F35251.7421875
I1
I-1
tp39
a((F216.41070556640625
F927.80169677734375
tF15
F352.50064086914062
F35234.984375
I0
I-1
tp40
a((F305.130615234375
F234.06428527832031
tF34
F167.92724609375
F34902.390625
I1
I-1
tp41
a((F216.35606384277344
F298.13226318359375
tF15
F6.837038516998291
F34825.87109375
I0
I-1
tp42
a((F170.58677673339844
F852.4014892578125
tF17
F170.08680725097656
F34342.83984375
I0
I-1
tp43
a((F167.53543090820312
F302.89251708984375
tF32
F169.97373962402344
F34253.7890625
I1
I-1
tp44
a((F169.18537902832031
F300.64474487304688
tF24
F170.40403747558594
F34201.09375
I0
I-1
tp45
a((F167.48313903808594
F856.50921630859375
tF32
F170.97724914550781
F34199.71875
I1
I-1
tp46
a((F216.39817810058594
F374.26522827148438
tF15
F351.12506103515625
F34146.11328125
I0
I-1
tp47
a((F216.32916259765625
F851.4813232421875
tF15
F7.8654003143310547
F33579.50390625
I0
I-1
tp48
a((F235.44700622558594
F679.66436767578125
tF34
F100.11820220947266
F33099.5078125
I1
I-1
tp49
a((F238.79908752441406
F616.94189453125
tF22
F254.99188232421875
F32978.92578125
I0
I-1
tp50
a((F289.577392578125
F679.63433837890625
tF33
F79.372207641601562
F32978.75
I1
I-1
tp51
a((F249.49481201171875
F708.52288818359375
tF31
F169.5491943359375
F32890.02734375
I1
I1
tp52
a((F221.23881530761719
F918.546142578125
tF43
F353.62716674804688
F32750.2734375
I1
I-1
tp53
a((F239.53863525390625
F676.18780517578125
tF16
F173.08363342285156
F32581.255859375
I0
I-1
tp54
a((F217.83517456054688
F925.926025390625
tF22
F352.9688720703125
F32501.2578125
I0
I-1
tp55
a((F275.4727783203125
F709.242919921875
tF31
F11.344436645507812
F32323.54296875
I1
I1
tp56
a((F190.38479614257812
F419.2677001953125
tF63
F97.478713989257812
F32323.533203125
I2
I1
tp57
a((F221.22651672363281
F365.02261352539062
tF43
F353.66171264648438
F32163.283203125
I1
I-1
tp58
a((F287.48049926757812
F616.79388427734375
tF21
F290.31610107421875
F31606.98046875
I0
I-1
tp59
a((F247.60789489746094
F709.98748779296875
tF23
F167.30490112304688
F31248.3203125
I0
I1
tp60
a((F219.341064453125
F369.77865600585938
tF31
F352.35791015625
F30935.78515625
I1
I-1
tp61
a((F217.45211791992188
F299.71356201171875
tF21
F8.4242610931396484
F30754.861328125
I0
I-1
tp62
a((F219.601806640625
F923.38641357421875
tF31
F352.43792724609375
F30288.58984375
I1
I-1
tp63
a((F251.26869201660156
F704.8057861328125
tF42
F171.25360107421875
F30137.015625
I1
I1
tp64
a((F262.94488525390625
F700.0135498046875
tF63
F16.246244430541992
F29827.580078125
I2
I1
tp65
a((F219.22309875488281
F302.74554443359375
tF30
F7.5178146362304688
F29578.5625
I1
I-1
tp66
a((F219.28132629394531
F856.34710693359375
tF30
F6.7569408416748047
F29226.8359375
I1
I-1
tp67
a((F273.67874145507812
F705.0518798828125
tF42
F10.894304275512695
F29142.111328125
I1
I1
tp68
a((F102.86265563964844
F59.440422058105469
tF35
F106.15550994873047
F29044.537109375
I1
I1
tp69
a((F221.03938293457031
F307.83889770507812
tF43
F8.5339937210083008
F28990.841796875
I1
I-1
tp70
a((F220.98927307128906
F861.35858154296875
tF43
F5.5464982986450195
F28987.818359375
I1
I-1
tp71
a((F111.36058044433594
F428.80307006835938
tF85
F136.77340698242188
F28149.775390625
I2
I-1
tp72
a((F106.01889801025391
F737.5010986328125
tF47
F195.8885498046875
F28093.701171875
I1
I1
tp73
a((F104.14505767822266
F733.1898193359375
tF33
F254.639892578125
F27774.529296875
I1
I1
tp74
a((F96.870475769042969
F428.09158325195312
tF123
F159.0709228515625
F26926.064453125
I3
I-1
tp75
a((F107.74647521972656
F614.6387939453125
tF92
F149.66131591796875
F26907.51953125
I2
I-1
tp76
a((F211.620361328125
F400.6943359375
tF132
F194.04132080078125
F26494.30859375
I3
I1
tp77
a((F226.85728454589844
F468.848388671875
tF125
F189.7657470703125
F26493.349609375
I3
I1
tp78
a((F120.17456817626953
F429.41232299804688
tF63
F124.51340484619141
F26160.779296875
I2
I-1
tp79
a((F112.54982757568359
F667.055908203125
tF120
F186.87136840820312
F26154.3359375
I3
I1
tp80
a((F96.015518188476562
F614.7666015625
tF129
F164.44900512695312
F24498.748046875
I3
I-1
tp81
a((F124.32571411132812
F469.404296875
tF127
F197.06631469726562
F24284.984375
I3
I1
tp82
a((F126.09807586669922
F709.462158203125
tF31
F72.558761596679688
F20734.9765625
I1
I1
tp83
a((F162.75399780273438
F427.98013305664062
tF57
F350.05044555664062
F20685.51171875
I2
I-1
tp84
a((F262.83273315429688
F621.7803955078125
tF60
F287.8094482421875
F20054.404296875
I2
I1
tp85
a((F157.13336181640625
F583.33416748046875
tF123
F162.76252746582031
F19208.126953125
I3
I1
tp86
a((F89.69500732421875
F718.76611328125
tF66
F165.27520751953125
F18759.3046875
I2
I-1
tp87
a((F228.81916809082031
F481.7664794921875
tF169
F359.190185546875
F18120
I3
I1
tp88
a((F194.33857727050781
F829.87847900390625
tF141
F270.36056518554688
F17952.197265625
I3
I1
tp89
a((F189.763916015625
F276.9710693359375
tF160
F120.58507537841797
F16925.3515625
I3
I1
tp90
a((F269.96408081054688
F744.9119873046875
tF171
F82.427642822265625
F16781.16796875
I3
I1
tp91
a((F272.8194580078125
F612.724609375
tF33
F295.88235473632812
F16773.103515625
I1
I1
tp92
a((F249.63133239746094
F613.46380615234375
tF22
F231.64779663085938
F16516.29296875
I0
I1
tp93
a((F101.59397125244141
F892.63885498046875
tF121
F177.4815673828125
F16390.005859375
I3
I1
tp94
a((F101.51800537109375
F338.81954956054688
tF121
F177.55245971679688
F16383.4755859375
I3
I1
tp95
a((F253.77946472167969
F613.53265380859375
tF30
F254.15272521972656
F15268.958984375
I1
I1
tp96
a((F232.74131774902344
F565.39208984375
tF34
F207.7406005859375
F15165.8671875
I1
I1
tp97
a((F262.27395629882812
F630.56195068359375
tF87
F280.1259765625
F14646.001953125
I2
I1
tp98
a((F272.23324584960938
F890.1820068359375
tF90
F359.97247314453125
F14536.162109375
I2
I1
tp99
a((F153.62803649902344
F384.2666015625
tF41
F333.862548828125
F14478.380859375
I1
I1
tp100
a((F154.03317260742188
F936.952392578125
tF39
F334.45684814453125
F14363.6875
I1
I1
tp101
a((F361.01580810546875
F609.93402099609375
tF88
F14.768237113952637
F14321.5419921875
I2
I-1
tp102
a((F271.86474609375
F335.86154174804688
tF90
F359.37838745117188
F14270.46875
I2
I1
tp103
a((F254.61965942382812
F460.87832641601562
tF91
F304.55712890625
F14028.638671875
I2
I1
tp104
a((F274.76498413085938
F521.83673095703125
tF85
F2.8328475952148438
F12842.080078125
I2
I1
tp105
a((F276.37347412109375
F612.7581787109375
tF24
F301.33486938476562
F11664.10546875
I0
I1
tp106
a((F241.44764709472656
F69.965118408203125
tF14
F93.314857482910156
F11644.689453125
I0
I-1
tp107
a((F115.61174774169922
F389.42849731445312
tF125
F158.61213684082031
F11498.7470703125
I3
I1
tp108
a((F98.83447265625
F523.8837890625
tF121
F181.60818481445312
F10884.2138671875
I3
I1
tp109
a((F206.45767211914062
F167.32882690429688
tF15
F272.37896728515625
F10684.3828125
I0
I-1
tp110
a((F205.36515808105469
F167.83445739746094
tF14
F273.62921142578125
F10567.2177734375
I0
I-1
tp111
a((F154.77432250976562
F932.19598388671875
tF24
F321.73284912109375
F10475.2578125
I0
I1
tp112
a((F143.70726013183594
F717.931884765625
tF42
F271.12973022460938
F10398.4521484375
I1
I-1
tp113
a((F137.8699951171875
F614.30145263671875
tF27
F103.45375823974609
F9521.5546875
I1
I-1
tp114
a((F112.54525756835938
F575.71881103515625
tF110
F158.2989501953125
F9054.369140625
I3
I1
tp115
a((F218.85670471191406
F74.566825866699219
tF42
F92.626052856445312
F8865.38671875
I1
I-1
tp116
a((F124.57804870605469
F642.9197998046875
tF88
F225.67311096191406
F8661.029296875
I2
I1
tp117
a((F125.36641693115234
F588.66845703125
tF84
F139.72573852539062
F8655.458984375
I2
I1
tp118
a((F229.33261108398438
F162.76969909667969
tF42
F272.88916015625
F8501.3349609375
I1
I-1
tp119
a((F204.47764587402344
F77.256401062011719
tF57
F92.48858642578125
F8400.6982421875
I2
I-1
tp120
a((F166.664306640625
F638.54718017578125
tF148
F75.879241943359375
F7195.55078125
I3
I1
tp121
a((F241.94728088378906
F161.16903686523438
tF57
F272.3016357421875
F6789.9755859375
I2
I-1
tp122
a((F106.19197845458984
F293.58444213867188
tF119
F203.0018310546875
F6784.892578125
I3
I1
tp123
a((F107.58769226074219
F844.96435546875
tF118
F204.49700927734375
F6690.7275390625
I3
I1
tp124
a((F246.77995300292969
F159.17083740234375
tF59
F272.30081176757812
F6650.5947265625
I2
I-1
tp125
a((F186.68986511230469
F590.018310546875
tF67
F35.295265197753906
F5998.515625
I2
I1
tp126
a((F189.24545288085938
F490.533935546875
tF115
F192.84791564941406
F5939.10009765625
I3
I1
tp127
a((F185.7572021484375
F81.414176940917969
tF79
F92.720672607421875
F5832.87109375
I2
I-1
tp128
a((F198.5616455078125
F552.0892333984375
tF103
F13.460912704467773
F5741.33203125
I3
I1
tp129
a((F145.77629089355469
F919.59765625
tF24
F319.518310546875
F5371.7431640625
I0
I-1
tp130
a((F237.54826354980469
F432.70809936523438
tF27
F65.973518371582031
F5278.33203125
I1
I-1
tp131
a((F262.40985107421875
F600.94091796875
tF13
F54.626308441162109
F5236.9189453125
I0
I-1
tp132
a((F242.71739196777344
F608.28106689453125
tF13
F88.288101196289062
F5090.66796875
I0
I-1
tp133
a.