(lp1
((F394.85806274414062
F212.6312255859375
tF91
F356.83059692382812
F72189.421875
I2
I-1
tp2
a((F748.1683349609375
F288.85458374023438
tF122
F70.559417724609375
F71522.265625
I3
I-1
tp3
a((F109.63481140136719
F155.19923400878906
tF115
F272.8582763671875
F69480.46875
I3
I-1
tp4
a((F663.08404541015625
F155.19725036621094
tF115
F272.69769287109375
F68665
I3
I-1
tp5
a((F420.2548828125
F331.53546142578125
tF83
F99.29864501953125
F65881.3203125
I2
I1
tp6
a((F248.16065979003906
F327.96786499023438
tF119
F22.956808090209961
F63368.671875
I3
I1
tp7
a((F570.094970703125
F280.8524169921875
tF135
F105.65520477294922
F62058.31640625
I3
I-1
tp8
a((F405.79730224609375
F292.4381103515625
tF110
F107.83682250976562
F61499.55859375
I3
I-1
tp9
a((F180.7039794921875
F327.69744873046875
tF68
F74.477882385253906
F61394.34765625
I2
I1
tp10
a((F299.56558227539062
F192.95297241210938
tF163
F4.981168270111084
F58611.57421875
I3
I-1
tp11
a((F245.02751159667969
F112.40425872802734
tF92
F197.078857421875
F57999.94140625
I2
I1
tp12
a((F495.36593627929688
F234.46780395507812
tF47
F111.05461120605469
F57892.3203125
I1
I-1
tp13
a((F300.84286499023438
F216.8580322265625
tF123
F357.91952514648438
F55966.43359375
I3
I-1
tp14
a((F479.35693359375
F233.02738952636719
tF91
F102.55305480957031
F55237.82421875
I2
I-1
tp15
a((F489.14080810546875
F235.60816955566406
tF67
F108.68841552734375
F54862.89453125
I2
I-1
tp16
a((F457.83132934570312
F150.31692504882812
tF68
F289.28005981445312
F54239.98046875
I2
I-1
tp17
a((F109.19774627685547
F230.36552429199219
tF104
F95.556663513183594
F54089.4609375
I3
I-1
tp18
a((F350.47567749023438
F328.63204956054688
tF111
F156.96572875976562
F53545.828125
I3
I1
tp19
a((F662.72760009765625
F230.35264587402344
tF104
F84.810173034667969
F53477.0234375
I3
I-1
tp20
a((F193.40582275390625
F288.3140869140625
tF127
F176.64117431640625
F51940.69140625
I3
I-1
tp21
a((F552.28924560546875
F177.17852783203125
tF87
F300.55154418945312
F50484.4453125
I2
I-1
tp22
a((F246.34846496582031
F119.30847930908203
tF118
F196.93678283691406
F49634.67578125
I3
I1
tp23
a((F300.395263671875
F166.7703857421875
tF123
F0.10499807447195053
F48568.09375
I3
I-1
tp24
a((F808.48968505859375
F118.32341003417969
tF135
F320.10113525390625
F48288.7109375
I3
I1
tp25
a((F301.76556396484375
F306.06423950195312
tF111
F12.98292064666748
F45673.4921875
I3
I-1
tp26
a((F537.76812744140625
F140.021728515625
tF83
F304.8634033203125
F43801.390625
I2
I1
tp27
a((F312.93911743164062
F113.37728881835938
tF89
F277.12960815429688
F42079.8046875
I2
I1
tp28
a((F584.669677734375
F148.22561645507812
tF44
F201.03533935546875
F41805.05859375
I1
I1
tp29
a((F31.991476058959961
F147.87710571289062
tF47
F201.99685668945312
F41737.109375
I1
I1
tp30
a((F27.171054840087891
F150.39895629882812
tF33
F194.38143920898438
F41268.078125
I1
I1
tp31
a((F580.5245361328125
F150.36338806152344
tF32
F194.03788757324219
F41251.05078125
I1
I1
tp32
a((F543.9898681640625
F145.47500610351562
tF64
F106.44046020507812
F41163.0234375
I2
I1
tp33
a((F418.3209228515625
F243.29209899902344
tF82
F114.16896820068359
F41052.0859375
I2
I1
tp34
a((F591.3741455078125
F145.34152221679688
tF61
F209.70161437988281
F37251.078125
I2
I1
tp35
a((F348.97366333007812
F266.09628295898438
tF170
F22.181936264038086
F37103.65234375
I3
I1
tp36
a((F551.05841064453125
F146.94075012207031
tF46
F345.62774658203125
F36969.65625
I1
I1
tp37
a((F138.3466796875
F165.65406799316406
tF44
F261.42471313476562
F35448.9609375
I1
I-1
tp38
a((F691.98638916015625
F165.70697021484375
tF44
F262.38818359375
F35251.7421875
I1
I-1
tp39
a((F71.198280334472656
F216.41070556640625
tF15
F82.500648498535156
F35234.984375
I0
I-1
tp40
a((F764.93572998046875
F305.130615234375
tF34
F257.92724609375
F34902.390625
I1
I-1
tp41
a((F700.86773681640625
F216.35606384277344
tF15
F96.8370361328125
F34825.87109375
I0
I-1
tp42
a((F146.59852600097656
F170.58677673339844
tF17
F260.0867919921875
F34342.83984375
I0
I-1
tp43
a((F696.10748291015625
F167.53543090820312
tF32
F259.9737548828125
F34253.7890625
I1
I-1
tp44
a((F698.355224609375
F169.18537902832031
tF24
F260.404052734375
F34201.09375
I0
I-1
tp45
a((F142.49075317382812
F167.48313903808594
tF32
F260.97723388671875
F34199.71875
I1
I-1
tp46
a((F624.73480224609375
F216.39817810058594
tF15
F81.125045776367188
F34146.11328125
I0
I-1
tp47
a((F147.51870727539062
F216.32916259765625
tF15
F97.865402221679688
F33579.50390625
I0
I-1
tp48
a((F319.33563232421875
F235.44700622558594
tF34
F190.11819458007812
F33099.5078125
I1
I-1
tp49
a((F382.05810546875
F238.79908752441406
tF22
F344.99188232421875
F32978.92578125
I0
I-1
tp50
a((F319.36566162109375
F289.577392578125
tF33
F169.37220764160156
F32978.75
I1
I-1
tp51
a((F290.47714233398438
F249.49481201171875
tF31
F259.5491943359375
F32890.02734375
I1
I1
tp52
a((F80.453834533691406
F221.23881530761719
tF43
F83.627166748046875
F32750.2734375
I1
I-1
tp53
a((F322.81219482421875
F239.53863525390625
tF16
F263.0836181640625
F32581.255859375
I0
I-1
tp54
a((F73.073974609375
F217.83517456054688
tF22
F82.968879699707031
F32501.2578125
I0
I-1
tp55
a((F289.75704956054688
F275.4727783203125
tF31
F101.34443664550781
F32323.54296875
I1
I1
tp56
a((F579.7322998046875
F190.38479614257812
tF63
F187.47871398925781
F32323.533203125
I2
I1
tp57
a((F633.97735595703125
F221.22651672363281
tF43
F83.661727905273438
F32163.283203125
I1
I-1
tp58
a((F382.20608520507812
F287.48049926757812
tF21
F20.316106796264648
F31606.98046875
I0
I-1
tp59
a((F289.01254272460938
F247.60789489746094
tF23
F257.30490112304688
F31248.3203125
I0
I1
tp60
a((F629.22137451171875
F219.341064453125
tF31
F82.357917785644531
F30935.78515625
I1
I-1
tp61
a((F699.28643798828125
F217.45211791992188
tF21
F98.424263000488281
F30754.861328125
I0
I-1
tp62
a((F75.613601684570312
F219.601806640625
tF31
F82.437934875488281
F30288.58984375
I1
I-1
tp63
a((F294.19424438476562
F251.26869201660156
tF42
F261.25360107421875
F30137.015625
I1
I1
tp64
a((F298.98641967773438
F262.94488525390625
tF63
F106.24623870849609
F29827.580078125
I2
I1
tp65
a((F696.25445556640625
F219.22309875488281
tF30
F97.517814636230469
F29578.5625
I1
I-1
tp66
a((F142.65290832519531
F219.28132629394531
tF30
F96.756942749023438
F29226.8359375
I1
I-1
tp67
a((F293.94815063476562
F273.67874145507812
tF42
F100.89430236816406
F29142.111328125
I1
I1
tp68
a((F939.5595703125
F102.86265563964844
tF35
F196.15550231933594
F29044.537109375
I1
I1
tp69
a((F691.16107177734375
F221.03938293457031
tF43
F98.533988952636719
F28990.841796875
I1
I-1
tp70
a((F137.64140319824219
F220.98927307128906
tF43
F95.546501159667969
F28987.818359375
I1
I-1
tp71
a((F570.19696044921875
F111.36058044433594
tF85
F226.77342224121094
F28149.775390625
I2
I-1
tp72
a((F261.49887084960938
F106.01889801025391
tF47
F285.8885498046875
F28093.701171875
I1
I1
tp73
a((F265.8101806640625
F104.14505767822266
tF33
F344.639892578125
F27774.529296875
I1
I1
tp74
a((F570.90838623046875
F96.870475769042969
tF123
F249.0709228515625
F26926.064453125
I3
I-1
tp75
a((F384.3612060546875
F107.74647521972656
tF92
F239.66131591796875
F26907.51953125
I2
I-1
tp76
a((F598.3056640625
F211.620361328125
tF132
F284.04132080078125
F26494.30859375
I3
I1
tp77
a((F530.151611328125
F226.85728454589844
tF125
F279.7657470703125
F26493.349609375
I3
I1
tp78
a((F569.58770751953125
F120.17456817626953
tF63
F214.51339721679688
F26160.779296875
I2
I-1
tp79
a((F331.94406127929688
F112.54982757568359
tF120
F276.87136840820312
F26154.3359375
I3
I1
tp80
a((F384.23336791992188
F96.015518188476562
tF129
F254.44900512695312
F24498.748046875
I3
I-1
tp81
a((F529.595703125
F124.32571411132812
tF127
F287.06631469726562
F24284.984375
I3
I1
tp82
a((F289.53781127929688
F126.09807586669922
tF31
F162.55876159667969
F20734.9765625
I1
I1
tp83
a((F571.0198974609375
F162.75399780273438
tF57
F80.050445556640625
F20685.51171875
I2
I-1
tp84
a((F377.21957397460938
F262.83273315429688
tF60
F17.80943489074707
F20054.404296875
I2
I1
tp85
a((F415.66586303710938
F157.13336181640625
tF123
F252.76251220703125
F19208.126953125
I3
I1
tp86
a((F280.23388671875
F89.69500732421875
tF66
F255.27520751953125
F18759.3046875
I2
I-1
tp87
a((F517.2335205078125
F228.81916809082031
tF169
F89.190177917480469
F18120
I3
I1
tp88
a((F169.12153625488281
F194.33857727050781
tF141
F0.36057141423225403
F17952.197265625
I3
I1
tp89
a((F722.0289306640625
F189.763916015625
tF160
F210.58506774902344
F16925.3515625
I3
I1
tp90
a((F254.0880126953125
F269.96408081054688
tF171
F172.42764282226562
F16781.16796875
I3
I1
tp91
a((F386.275390625
F272.8194580078125
tF33
F25.882354736328125
F16773.103515625
I1
I1
tp92
a((F385.53619384765625
F249.63133239746094
tF22
F321.6478271484375
F16516.29296875
I0
I1
tp93
a((F106.36116027832031
F101.59397125244141
tF121
F267.4815673828125
F16390.005859375
I3
I1
tp94
a((F660.18048095703125
F101.51800537109375
tF121
F267.55245971679688
F16383.4755859375
I3
I1
tp95
a((F385.46734619140625
F253.77946472167969
tF30
F344.1527099609375
F15268.958984375
I1
I1
tp96
a((F433.60791015625
F232.74131774902344
tF34
F297.7406005859375
F15165.8671875
I1
I1
tp97
a((F368.43801879882812
F262.27395629882812
tF87
F10.125970840454102
F14646.001953125
I2
I1
tp98
a((F108.81800842285156
F272.23324584960938
tF90
F89.97247314453125
F14536.162109375
I2
I1
tp99
a((F614.7333984375
F153.62803649902344
tF41
F63.862548828125
F14478.380859375
I1
I1
tp100
a((F62.047622680664062
F154.03317260742188
tF39
F64.456863403320312
F14363.6875
I1
I1
tp101
a((F389.06594848632812
F361.01580810546875
tF88
F104.76824188232422
F14321.5419921875
I2
I-1
tp102
a((F663.138427734375
F271.86474609375
tF90
F89.378395080566406
F14270.46875
I2
I1
tp103
a((F538.12164306640625
F254.61965942382812
tF91
F34.557125091552734
F14028.638671875
I2
I1
tp104
a((F477.16323852539062
F274.76498413085938
tF85
F92.832847595214844
F12842.080078125
I2
I1
tp105
a((F386.24185180664062
F276.37347412109375
tF24
F31.334863662719727
F11664.10546875
I0
I1
tp106
a((F929.034912109375
F241.44764709472656
tF14
F183.31484985351562
F11644.689453125
I0
I-1
tp107
a((F609.57147216796875
F115.61174774169922
tF125
F248.61215209960938
F11498.7470703125
I3
I1
tp108
a((F475.1162109375
F98.83447265625
tF121
F271.60818481445312
F10884.2138671875
I3
I1
tp109
a((F831.671142578125
F206.45767211914062
tF15
F2.3789606094360352
F10684.3828125
I0
I-1
tp110
a((F831.16552734375
F205.36515808105469
tF14
F3.6292152404785156
F10567.2177734375
I0
I-1
tp111
a((F66.804039001464844
F154.77432250976562
tF24
F51.732837677001953
F10475.2578125
I0
I1
tp112
a((F281.06808471679688
F143.70726013183594
tF42
F1.1297304630279541
F10398.4521484375
I1
I-1
tp113
a((F384.69851684570312
F137.8699951171875
tF27
F193.45376586914062
F9521.5546875
I1
I-1
tp114
a((F423.28121948242188
F112.54525756835938
tF110
F248.2989501953125
F9054.369140625
I3
I1
tp115
a((F924.43316650390625
F218.85670471191406
tF42
F182.62605285644531
F8865.38671875
I1
I-1
tp116
a((F356.0802001953125
F124.57804870605469
tF88
F315.673095703125
F8661.029296875
I2
I1
tp117
a((F410.33157348632812
F125.36641693115234
tF84
F229.72573852539062
F8655.458984375
I2
I1
tp118
a((F836.23028564453125
F229.33261108398438
tF42
F2.8891475200653076
F8501.3349609375
I1
I-1
tp119
a((F921.74359130859375
F204.47764587402344
tF57
F182.48858642578125
F8400.6982421875
I2
I-1
tp120
a((F360.45285034179688
F166.664306640625
tF148
F165.87924194335938
F7195.55078125
I3
I1
tp121
a((F837.83099365234375
F241.94728088378906
tF57
F2.301642894744873
F6789.9755859375
I2
I-1
tp122
a((F705.41552734375
F106.19197845458984
tF119
F293.0018310546875
F6784.892578125
I3
I1
tp123
a((F154.03567504882812
F107.58769226074219
tF118
F294.49700927734375
F6690.7275390625
I3
I1
tp124
a((F839.82916259765625
F246.77995300292969
tF59
F2.30082106590271
F6650.5947265625
I2
I-1
tp125
a((F408.98165893554688
F186.68986511230469
tF67
F125.29526519775391
F5998.515625
I2
I1
tp126
a((F508.466064453125
F189.24545288085938
tF115
F282.847900390625
F5939.10009765625
I3
I1
tp127
a((F917.5858154296875
F185.7572021484375
tF79
F182.72067260742188
F5832.87109375
I2
I-1
tp128
a((F446.9107666015625
F198.5616455078125
tF103
F103.46091461181641
F5741.33203125
I3
I1
tp129
a((F79.402313232421875
F145.77629089355469
tF24
F49.518318176269531
F5371.7431640625
I0
I-1
tp130
a((F566.2918701171875
F237.54826354980469
tF27
F155.9735107421875
F5278.33203125
I1
I-1
tp131
a((F398.05911254882812
F262.40985107421875
tF13
F144.62631225585938
F5236.9189453125
I0
I-1
tp132
a((F390.71896362304688
F242.71739196777344
tF13
F178.28810119628906
F5090.66796875
I0
I-1
tp133
a.