(lp1
((F148.405029296875
F748.8897705078125
tF123
F159.45802307128906
F71664.71875
I3
I-1
tp2
a((F223.46345520019531
F394.8858642578125
tF92
F90.482673645019531
F70638.265625
I2
I-1
tp3
a((F281.48135375976562
F109.71436309814453
tF115
F1.6989282369613647
F66063.171875
I3
I-1
tp4
a((F103.77922058105469
F420.33682250976562
tF83
F188.70500183105469
F66042.9296875
I2
I1
tp5
a((F281.453369140625
F663.1881103515625
tF115
F1.7380748987197876
F65310.02734375
I3
I-1
tp6
a((F109.07172393798828
F248.13217163085938
tF121
F262.26251220703125
F64632.328125
I3
I1
tp7
a((F107.66732025146484
F180.84315490722656
tF67
F162.58653259277344
F63420.1640625
I2
I1
tp8
a((F154.60882568359375
F570.122314453125
tF133
F196.04338073730469
F62703.75390625
I3
I-1
tp9
a((F322.83230590820312
F245.07859802246094
tF93
F287.8414306640625
F58720.890625
I2
I1
tp10
a((F244.09297180175781
F299.5531005859375
tF163
F92.449691772460938
F58259.25390625
I3
I-1
tp11
a((F143.48516845703125
F405.46249389648438
tF111
F197.557373046875
F56372.98828125
I3
I-1
tp12
a((F201.49732971191406
F495.26654052734375
tF47
F200.95086669921875
F56366.0859375
I1
I-1
tp13
a((F205.93766784667969
F109.13842010498047
tF107
F186.33695983886719
F56345.8359375
I3
I-1
tp14
a((F205.93544006347656
F662.58978271484375
tF107
F186.38743591308594
F55716.046875
I3
I-1
tp15
a((F108.35575866699219
F350.41680908203125
tF114
F248.20924377441406
F55360.08203125
I3
I1
tp16
a((F202.67572021484375
F479.46890258789062
tF90
F190.71661376953125
F54821.8125
I2
I-1
tp17
a((F220.30171203613281
F301.06878662109375
tF126
F87.900070190429688
F54458.16015625
I3
I-1
tp18
a((F148.1890869140625
F194.06739807128906
tF128
F266.88735961914062
F53977.21875
I3
I-1
tp19
a((F115.39046478271484
F800.71478271484375
tF149
F111.70981597900391
F53925.94140625
I3
I1
tp20
a((F200.7584228515625
F488.19741821289062
tF70
F197.14323425292969
F53655.125
I2
I-1
tp21
a((F285.74639892578125
F458.26535034179688
tF69
F18.59234619140625
F52840.27734375
I2
I-1
tp22
a((F315.75201416015625
F246.30752563476562
tF118
F292.60415649414062
F51309.9375
I3
I1
tp23
a((F222.02999877929688
F394.90328979492188
tF91
F86.240997314453125
F50700.1640625
I3
I-1
tp24
a((F259.32888793945312
F552.15301513671875
tF88
F25.014307022094727
F49834.40625
I2
I-1
tp25
a((F130.27455139160156
F301.43429565429688
tF110
F249.85105895996094
F48673.26171875
I3
I-1
tp26
a((F269.07101440429688
F300.86114501953125
tF123
F90.221763610839844
F48591.10546875
I3
I-1
tp27
a((F319.49020385742188
F807.7652587890625
tF130
F49.242172241210938
F47600.7109375
I3
I1
tp28
a((F282.57296752929688
F473.52325439453125
tF111
F9.0370378494262695
F45008.73828125
I3
I-1
tp29
a((F295.62863159179688
F537.72723388671875
tF83
F35.424659729003906
F43978.6484375
I2
I1
tp30
a((F322.30047607421875
F311.85113525390625
tF88
F6.025972843170166
F43251.140625
I2
I1
tp31
a((F298.06781005859375
F810.19537353515625
tF186
F47.485050201416016
F42327.5546875
I3
I1
tp32
a((F192.24822998046875
F418.37762451171875
tF81
F204.01809692382812
F41340.34375
I2
I1
tp33
a((F287.82711791992188
F584.61663818359375
tF44
F291.02560424804688
F40849.921875
I1
I1
tp34
a((F290.89447021484375
F543.90472412109375
tF64
F196.94801330566406
F40807.03125
I2
I1
tp35
a((F288.09078979492188
F31.898187637329102
tF47
F291.9990234375
F40775.84765625
I1
I1
tp36
a((F285.52011108398438
F580.68780517578125
tF32
F283.5382080078125
F39830.7109375
I1
I1
tp37
a((F285.5457763671875
F27.117778778076172
tF33
F283.75726318359375
F39750.9609375
I1
I1
tp38
a((F288.98593139648438
F550.712646484375
tF47
F161.51596069335938
F37284.078125
I1
I1
tp39
a((F169.194091796875
F349.110595703125
tF169
F111.97442626953125
F36798.375
I3
I1
tp40
a((F290.82562255859375
F591.3182373046875
tF61
F299.96829223632812
F35672.35546875
I2
I1
tp41
a((F219.58929443359375
F71.198280334472656
tF15
F172.50065612792969
F35234.984375
I0
I-1
tp42
a((F130.68600463867188
F764.8985595703125
tF35
F347.86251831054688
F34976.8125
I1
I-1
tp43
a((F219.64393615722656
F700.86773681640625
tF15
F186.8370361328125
F34825.87109375
I0
I-1
tp44
a((F271.10049438476562
F137.8302001953125
tF46
F353.47238159179688
F34821.671875
I1
I-1
tp45
a((F271.36190795898438
F691.091796875
tF47
F351.61538696289062
F34376.67578125
I1
I-1
tp46
a((F265.4132080078125
F146.59852600097656
tF17
F350.0867919921875
F34342.83984375
I0
I-1
tp47
a((F266.81463623046875
F698.355224609375
tF24
F350.404052734375
F34201.09375
I0
I-1
tp48
a((F268.82296752929688
F142.28689575195312
tF33
F350.95584106445312
F34200.109375
I1
I-1
tp49
a((F268.7969970703125
F695.91265869140625
tF33
F349.99737548828125
F34194.234375
I1
I-1
tp50
a((F219.60182189941406
F624.73480224609375
tF15
F171.12504577636719
F34146.11328125
I0
I-1
tp51
a((F219.67083740234375
F147.51870727539062
tF15
F187.86540222167969
F33579.50390625
I0
I-1
tp52
a((F253.60491943359375
F574.6075439453125
tF35
F287.2857666015625
F33417.1875
I1
I1
tp53
a((F200.04037475585938
F319.27603149414062
tF33
F348.9173583984375
F33142.65625
I1
I-1
tp54
a((F146.44001770019531
F319.3099365234375
tF34
F259.50576782226562
F33115.11328125
I1
I-1
tp55
a((F186.36599731445312
F290.44699096679688
tF32
F347.65762329101562
F33002.63671875
I1
I1
tp56
a((F197.20091247558594
F382.05810546875
tF22
F74.991889953613281
F32978.92578125
I0
I-1
tp57
a((F245.63813781738281
F579.7213134765625
tF63
F277.47869873046875
F32760.177734375
I2
I1
tp58
a((F196.46136474609375
F322.81219482421875
tF16
F353.0836181640625
F32581.255859375
I0
I-1
tp59
a((F218.16482543945312
F73.073974609375
tF22
F172.9688720703125
F32501.2578125
I0
I-1
tp60
a((F160.60028076171875
F289.73342895507812
tF32
F193.39668273925781
F31983.05859375
I1
I1
tp61
a((F213.88632202148438
F80.952552795410156
tF45
F172.82554626464844
F31630.40234375
I1
I-1
tp62
a((F148.51948547363281
F382.20608520507812
tF21
F110.31610107421875
F31606.98046875
I0
I-1
tp63
a((F188.39210510253906
F289.01254272460938
tF23
F347.30490112304688
F31248.3203125
I0
I1
tp64
a((F213.96261596679688
F634.492431640625
tF45
F173.22499084472656
F31098.91015625
I1
I-1
tp65
a((F218.54788208007812
F699.28643798828125
tF21
F188.42425537109375
F30754.861328125
I0
I-1
tp66
a((F215.76930236816406
F76.033256530761719
tF32
F171.7982177734375
F30535.126953125
I1
I-1
tp67
a((F215.92472839355469
F629.59478759765625
tF32
F171.71391296386719
F30326.328125
I1
I-1
tp68
a((F184.43203735351562
F294.21295166015625
tF42
F350.28543090820312
F29798.763671875
I1
I1
tp69
a((F173.60105895996094
F298.95236206054688
tF63
F343.512939453125
F29783.75
I2
I1
tp70
a((F162.64126586914062
F293.92828369140625
tF43
F190.76240539550781
F28788.080078125
I1
I1
tp71
a((F216.23664855957031
F696.0330810546875
tF31
F187.46406555175781
F28521.779296875
I1
I-1
tp72
a((F325.03964233398438
F570.15435791015625
tF86
F317.6875
F28368.927734375
I2
I-1
tp73
a((F216.15640258789062
F142.44163513183594
tF31
F186.75631713867188
F28361.439453125
I1
I-1
tp74
a((F324.25369262695312
F331.74209594726562
tF120
F6.946141242980957
F27669.228515625
I3
I1
tp75
a((F312.00198364257812
F294.6361083984375
tF46
F206.85398864746094
F27577.49609375
I1
I1
tp76
a((F332.130126953125
F265.50048828125
tF34
F73.693885803222656
F27439.7421875
I1
I1
tp77
a((F214.40481567382812
F690.67828369140625
tF45
F188.78143310546875
F27388.083984375
I1
I-1
tp78
a((F339.62591552734375
F570.99737548828125
tF123
F339.3065185546875
F27097.177734375
I3
I-1
tp79
a((F214.39239501953125
F137.00877380371094
tF45
F189.42424011230469
F27023.630859375
I1
I-1
tp80
a((F328.59548950195312
F384.346435546875
tF93
F330.737548828125
F26874.3203125
I2
I-1
tp81
a((F224.34687805175781
F598.5067138671875
tF133
F14.022064208984375
F26378.4609375
I3
I1
tp82
a((F315.70693969726562
F569.57220458984375
tF63
F304.43414306640625
F25647.6484375
I2
I-1
tp83
a((F208.46171569824219
F530.1922607421875
tF125
F9.9880895614624023
F25481.8203125
I3
I1
tp84
a((F312.09036254882812
F528.9853515625
tF127
F16.855318069458008
F25213.078125
I3
I1
tp85
a((F146.9420166015625
F383.46112060546875
tF30
F109.52937316894531
F24801.357421875
I1
I-1
tp86
a((F339.54248046875
F384.3526611328125
tF129
F344.5098876953125
F24564.501953125
I3
I-1
tp87
a((F273.49124145507812
F570.90478515625
tF55
F296.77911376953125
F21860.47265625
I2
I-1
tp88
a((F173.1151123046875
F377.22607421875
tF60
F107.80944061279297
F20485.33984375
I2
I1
tp89
a((F333.42892456054688
F106.68138885498047
tF118
F0.23566223680973053
F18797.005859375
I3
I1
tp90
a((F333.44931030273438
F660.09271240234375
tF118
F357.6380615234375
F18708.3046875
I3
I1
tp91
a((F346.49124145507812
F280.30279541015625
tF66
F345.25128173828125
F18654.98828125
I2
I-1
tp92
a((F280.20111083984375
F416.182373046875
tF125
F343.25640869140625
F18506.734375
I3
I1
tp93
a((F242.76139831542969
F169.3184814453125
tF141
F98.274795532226562
F18349.056640625
I3
I1
tp94
a((F172.33161926269531
F383.0350341796875
tF45
F112.94729614257812
F17425.6484375
I1
I1
tp95
a((F165.74821472167969
F254.00843811035156
tF172
F262.37332153320312
F17415.642578125
I3
I1
tp96
a((F162.96368408203125
F386.23529052734375
tF33
F116.68709564208984
F16999.974609375
I1
I1
tp97
a((F248.22334289550781
F721.4993896484375
tF166
F294.08819580078125
F16825.26953125
I3
I1
tp98
a((F186.36866760253906
F385.53619384765625
tF22
F51.647808074951172
F16516.29296875
I0
I1
tp99
a((F282.69070434570312
F614.30059814453125
tF42
F154.41903686523438
F15611.046875
I1
I1
tp100
a((F282.70867919921875
F60.722251892089844
tF42
F150.65499877929688
F15507.1171875
I1
I1
tp101
a((F163.67138671875
F109.03104400634766
tF87
F181.09153747558594
F15286.474609375
I2
I1
tp102
a((F163.70236206054688
F662.87359619140625
tF87
F180.54299926757812
F15242.5029296875
I2
I1
tp103
a((F173.63246154785156
F368.37234497070312
tF87
F99.826644897460938
F14606.4267578125
I2
I1
tp104
a((F182.2044677734375
F538.36083984375
tF89
F123.7020263671875
F14138.017578125
I2
I1
tp105
a((F74.924674987792969
F389.05291748046875
tF88
F194.76823425292969
F13941.3330078125
I2
I-1
tp106
a((F161.09744262695312
F477.135498046875
tF84
F181.32780456542969
F12529.0322265625
I2
I1
tp107
a((F298.10894775390625
F568.4930419921875
tF27
F77.595787048339844
F12110.2958984375
I1
I-1
tp108
a((F78.899772644042969
F205.19590759277344
tF90
F163.23646545410156
F12031.8388671875
I2
I-1
tp109
a((F321.19668579101562
F609.9073486328125
tF125
F338.82470703125
F11978.689453125
I3
I1
tp110
a((F159.62654113769531
F386.24185180664062
tF24
F121.33486175537109
F11664.10546875
I0
I1
tp111
a((F194.55235290527344
F929.034912109375
tF14
F273.31484985351562
F11644.689453125
I0
I-1
tp112
a((F229.54232788085938
F831.671142578125
tF15
F92.378959655761719
F10684.3828125
I0
I-1
tp113
a((F230.63484191894531
F831.16552734375
tF14
F93.629219055175781
F10567.2177734375
I0
I-1
tp114
a((F291.38040161132812
F281.33489990234375
tF43
F90.9671630859375
F10538.830078125
I1
I-1
tp115
a((F281.22567749023438
F66.804039001464844
tF24
F141.73283386230469
F10475.2578125
I0
I1
tp116
a((F298.39141845703125
F384.66458129882812
tF28
F283.43569946289062
F9421.2685546875
I1
I-1
tp117
a((F324.30780029296875
F425.05517578125
tF117
F340.60958862304688
F8967.0224609375
I3
I1
tp118
a((F217.16346740722656
F924.43896484375
tF42
F272.62603759765625
F8784.0361328125
I1
I-1
tp119
a((F206.85858154296875
F836.1910400390625
tF42
F92.994712829589844
F8643.8720703125
I1
I-1
tp120
a((F310.25900268554688
F410.09005737304688
tF84
F320.345458984375
F8571.3857421875
I2
I1
tp121
a((F311.38796997070312
F356.41131591796875
tF87
F46.131423950195312
F8533.453125
I2
I1
tp122
a((F335.77374267578125
F475.171875
tF120
F0.58104026317596436
F8394.0166015625
I3
I1
tp123
a((F231.62611389160156
F921.71990966796875
tF57
F272.380126953125
F8387.130859375
I2
I-1
tp124
a((F271.17648315429688
F80.233512878417969
tF44
F1.0819919109344482
F7360.0654296875
I1
I-1
tp125
a((F118.1376953125
F861.4639892578125
tF132
F235.05563354492188
F6862.0419921875
I3
I-1
tp126
a((F193.85249328613281
F837.92486572265625
tF57
F92.258880615234375
F6786.9833984375
I2
I-1
tp127
a((F326.72427368164062
F710.2779541015625
tF115
F22.632747650146484
F6400.505859375
I3
I1
tp128
a((F325.74252319335938
F157.86566162109375
tF115
F28.416458129882812
F6341.7724609375
I3
I1
tp129
a((F248.57768249511719
F409.3658447265625
tF67
F224.76158142089844
F5805.052734375
I2
I1
tp130
a((F250.43229675292969
F917.4796142578125
tF79
F272.72137451171875
F5732.6533203125
I2
I-1
tp131
a((F290.22369384765625
F79.402320861816406
tF24
F139.518310546875
F5371.7431640625
I0
I-1
tp132
a((F173.59013366699219
F398.05911254882812
tF13
F234.62631225585938
F5236.9189453125
I0
I-1
tp133
a((F193.28260803222656
F390.71896362304688
tF13
F268.2880859375
F5090.66796875
I0
I-1
tp134
a.