(lp1
((F339.61752319335938
F60.027030944824219
tF36
F245.42633056640625
F41074.59375
I1
I1
tp2
a((F343.53875732421875
F98.577674865722656
tF22
F213.31207275390625
F33901.66015625
I0
I-1
tp3
a((F220.58894348144531
F144.69863891601562
tF34
F73.04168701171875
F29602.880859375
I1
I1
tp4
a((F180.16549682617188
F101.24124145507812
tF23
F33.361980438232422
F29427.216796875
I0
I-1
tp5
a((F367.37506103515625
F73.616012573242188
tF22
F262.37603759765625
F29302.0625
I0
I1
tp6
a((F344.26333618164062
F97.879531860351562
tF27
F228.23951721191406
F28906.296875
I1
I-1
tp7
a((F231.7635498046875
F90.790885925292969
tF18
F204.27783203125
F28494.828125
I0
I-1
tp8
a((F181.90208435058594
F100.14603424072266
tF29
F28.594125747680664
F28253.87109375
I1
I-1
tp9
a((F269.46054077148438
F144.19053649902344
tF34
F57.448287963867188
F28121.748046875
I1
I1
tp10
a((F203.90266418457031
F46.43072509765625
tF44
F240.68157958984375
F24289.46875
I1
I1
tp11
a((F166.72093200683594
F50.844997406005859
tF33
F245.22908020019531
F23798.90234375
I1
I1
tp12
a((F37.846706390380859
F81.371040344238281
tF32
F224.46098327636719
F23303.822265625
I1
I1
tp13
a((F36.115398406982422
F116.62166595458984
tF33
F202.87107849121094
F22391.80078125
I1
I1
tp14
a((F124.67177581787109
F35.212635040283203
tF32
F23.322093963623047
F22324.71875
I1
I1
tp15
a((F72.947921752929688
F124.96210479736328
tF41
F163.96372985839844
F22006.5625
I1
I1
tp16
a((F115.84538269042969
F81.337684631347656
tF31
F244.92373657226562
F21390.09765625
I1
I1
tp17
a((F207.43527221679688
F101.12640380859375
tF17
F224.57864379882812
F21267.0703125
I0
I-1
tp18
a((F86.321861267089844
F46.579826354980469
tF16
F249.94338989257812
F20980.193359375
I0
I1
tp19
a((F144.24049377441406
F102.00529479980469
tF16
F263.75393676757812
F20676.99609375
I0
I-1
tp20
a((F172.68397521972656
F114.64989471435547
tF31
F109.23862457275391
F20609.2109375
I1
I1
tp21
a((F208.84567260742188
F100.37055206298828
tF22
F20.794509887695312
F20546.4140625
I0
I-1
tp22
a((F319.15350341796875
F85.794258117675781
tF21
F330.23239135742188
F20119.64453125
I0
I1
tp23
a((F313.728271484375
F76.040992736816406
tF17
F284.70880126953125
F19675.05859375
I0
I1
tp24
a((F208.766845703125
F40.126255035400391
tF23
F10.728174209594727
F19192.923828125
I0
I1
tp25
a((F272.54656982421875
F83.760940551757812
tF32
F278.17892456054688
F19052.171875
I1
I1
tp26
a((F276.36996459960938
F79.753959655761719
tF16
F2.5451400279998779
F18641.029296875
I0
I1
tp27
a((F227.29513549804688
F116.26448822021484
tF35
F227.0457763671875
F18036.6953125
I1
I-1
tp28
a((F88.216583251953125
F103.93014526367188
tF16
F200.33514404296875
F17559.9296875
I0
I-1
tp29
a((F277.59512329101562
F116.50920867919922
tF26
F234.17965698242188
F17122.986328125
I1
I-1
tp30
a((F237.46919250488281
F105.43340301513672
tF30
F165.16302490234375
F16905.515625
I1
I1
tp31
a((F124.48011779785156
F68.915260314941406
tF42
F215.03474426269531
F16713.71484375
I1
I-1
tp32
a((F166.7353515625
F108.01698303222656
tF49
F87.899246215820312
F16671.0078125
I1
I1
tp33
a((F330.97463989257812
F82.1298828125
tF33
F234.68418884277344
F16399.716796875
I1
I-1
tp34
a((F80.301307678222656
F130.22047424316406
tF16
F75.089271545410156
F15988.3935546875
I0
I1
tp35
a((F301.0111083984375
F92.962936401367188
tF33
F232.285888671875
F15350.7353515625
I1
I-1
tp36
a((F157.71492004394531
F117.83580017089844
tF21
F76.548477172851562
F15321.873046875
I0
I-1
tp37
a((F101.96273040771484
F110.09352874755859
tF46
F88.971565246582031
F15265.7255859375
I1
I1
tp38
a((F89.813995361328125
F83.596412658691406
tF27
F39.959400177001953
F15111.552734375
I1
I-1
tp39
a((F274.88409423828125
F102.11544799804688
tF15
F28.730428695678711
F15057.697265625
I0
I-1
tp40
a((F340.90219116210938
F113.56346893310547
tF42
F75.091957092285156
F14791.7744140625
I1
I1
tp41
a((F322.02224731445312
F115.09310150146484
tF22
F65.749557495117188
F14679.5849609375
I0
I-1
tp42
a((F215.28358459472656
F78.954879760742188
tF16
F264.85986328125
F14494.2275390625
I0
I1
tp43
a((F339.75827026367188
F67.996009826660156
tF22
F37.841770172119141
F14386.1640625
I0
I1
tp44
a((F367.05447387695312
F84.180595397949219
tF21
F15.633782386779785
F14230.265625
I0
I-1
tp45
a((F254.57893371582031
F95.427619934082031
tF33
F251.63818359375
F14192.16796875
I1
I-1
tp46
a((F124.35496520996094
F118.41748046875
tF21
F85.433303833007812
F13928.771484375
I0
I-1
tp47
a((F225.10316467285156
F83.595375061035156
tF23
F272.095703125
F13595.1328125
I0
I1
tp48
a((F320.95697021484375
F118.06784057617188
tF32
F63.668502807617188
F13360.9443359375
I1
I-1
tp49
a((F156.75785827636719
F120.54099273681641
tF31
F85.481704711914062
F12979.7978515625
I1
I-1
tp50
a((F108.69073486328125
F91.644889831542969
tF23
F221.9395751953125
F12616.447265625
I0
I-1
tp51
a((F185.63978576660156
F118.62412261962891
tF21
F58.454631805419922
F12371.80078125
I0
I-1
tp52
a((F140.04801940917969
F114.42359161376953
tF32
F90.441734313964844
F12272.81640625
I1
I1
tp53
a((F85.322555541992188
F121.27993774414062
tF20
F357.39987182617188
F12079.7216796875
I0
I-1
tp54
a((F263.49179077148438
F77.644462585449219
tF17
F269.52438354492188
F11844.2548828125
I0
I1
tp55
a((F133.70179748535156
F109.05132293701172
tF48
F91.518043518066406
F11741.4306640625
I1
I1
tp56
a((F284.86959838867188
F104.37783050537109
tF30
F202.98045349121094
F11677.4228515625
I1
I1
tp57
a((F230.52503967285156
F118.33110809326172
tF22
F242.25662231445312
F11622.916015625
I0
I-1
tp58
a((F224.88401794433594
F84.355445861816406
tF28
F271.445556640625
F11434.2333984375
I1
I1
tp59
a((F177.75334167480469
F112.03430938720703
tF22
F55.221042633056641
F11394.912109375
I0
I1
tp60
a((F252.98802185058594
F98.698806762695312
tF22
F32.885353088378906
F10704.5
I0
I-1
tp61
a((F127.16909790039062
F74.927032470703125
tF22
F211.98658752441406
F10679.4375
I0
I-1
tp62
a((F330.36434936523438
F101.22550964355469
tF30
F232.06295776367188
F10233.8447265625
I1
I1
tp63
a((F332.29263305664062
F115.34008026123047
tF23
F110.40724182128906
F10211.1640625
I0
I1
tp64
a((F87.913902282714844
F112.26964569091797
tF15
F100.88556671142578
F10092.9462890625
I0
I1
tp65
a((F185.60731506347656
F121.84983062744141
tF31
F73.090522766113281
F10069.4599609375
I1
I-1
tp66
a((F243.53257751464844
F86.601661682128906
tF32
F267.40548706054688
F9553.3359375
I1
I1
tp67
a((F283.71755981445312
F108.82201385498047
tF22
F130.26129150390625
F9533.109375
I0
I1
tp68
a((F270.61932373046875
F74.116111755371094
tF16
F270.23504638671875
F9074.841796875
I0
I-1
tp69
a((F180.74845886230469
F43.738563537597656
tF32
F237.105712890625
F9029.5927734375
I1
I-1
tp70
a((F179.96818542480469
F110.67915344238281
tF15
F36.100116729736328
F8680.87109375
I0
I1
tp71
a((F181.03889465332031
F39.015579223632812
tF44
F239.989013671875
F8291.5185546875
I1
I-1
tp72
a((F294.8154296875
F107.43807220458984
tF66
F58.355056762695312
F8257.76171875
I2
I1
tp73
a((F92.478439331054688
F128.60638427734375
tF45
F86.584709167480469
F8178.1875
I1
I-1
tp74
a((F122.82212066650391
F99.231178283691406
tF15
F213.80368041992188
F8009.98681640625
I0
I-1
tp75
a((F253.36268615722656
F97.704109191894531
tF91
F270.97915649414062
F7968.53369140625
I2
I1
tp76
a((F89.691558837890625
F124.10655212402344
tF32
F100.68598937988281
F7907.16015625
I1
I-1
tp77
a((F311.49795532226562
F81.301261901855469
tF47
F249.81631469726562
F7872.16259765625
I1
I1
tp78
a((F31.462879180908203
F94.908302307128906
tF33
F211.54179382324219
F7771.89111328125
I1
I-1
tp79
a((F103.67720031738281
F117.61739349365234
tF23
F94.105720520019531
F7695.96875
I0
I1
tp80
a((F155.7744140625
F97.163742065429688
tF34
F212.18853759765625
F7546.15380859375
I1
I-1
tp81
a((F149.11553955078125
F92.777885437011719
tF45
F212.84385681152344
F7423.31396484375
I1
I-1
tp82
a((F185.65287780761719
F125.85446929931641
tF42
F92.482452392578125
F7392.8876953125
I1
I-1
tp83
a((F286.81491088867188
F72.333526611328125
tF43
F261.65029907226562
F7088.43359375
I1
I-1
tp84
a((F286.58926391601562
F76.1572265625
tF33
F247.47718811035156
F6916.1826171875
I1
I-1
tp85
a((F302.75186157226562
F97.229156494140625
tF87
F265.30865478515625
F6566.2890625
I2
I1
tp86
a((F151.39671325683594
F100.109619140625
tF32
F55.085166931152344
F6247.03515625
I1
I-1
tp87
a((F96.569549560546875
F37.449520111083984
tF46
F226.64201354980469
F6118.95703125
I1
I-1
tp88
a((F234.09867858886719
F58.386390686035156
tF87
F279.4683837890625
F5936.140625
I2
I-1
tp89
a((F155.035888671875
F61.908889770507812
tF21
F215.31336975097656
F5814.30419921875
I0
I-1
tp90
a((F358.82281494140625
F58.01641845703125
tF45
F294.37158203125
F5688.291015625
I1
I-1
tp91
a((F125.52649688720703
F99.780242919921875
tF82
F87.145652770996094
F5313.6630859375
I2
I1
tp92
a((F74.042869567871094
F69.754501342773438
tF70
F250.28555297851562
F5108.267578125
I2
I1
tp93
a((F84.665138244628906
F111.96246337890625
tF93
F91.724662780761719
F5027.67529296875
I2
I1
tp94
a((F219.31364440917969
F64.417388916015625
tF42
F273.45260620117188
F5007
I1
I-1
tp95
a.