(lp1
((F63.337272644042969
F69.162788391113281
tF2.1628100872039795
F197.17919921875
F0.077781394124031067
I13435391
I-1
tp2
a((F63.337272644042969
F69.162788391113281
tF2.1628100872039795
F65.57769775390625
F0.077781394124031067
I13435391
I-1
tp3
a((F84.950515747070312
F106.79190063476562
tF2.0703065395355225
F8.54638671875
F0.065366216003894806
I10289663
I-1
tp4
a((F183.76899719238281
F107.482177734375
tF1.9775446653366089
F267.1885986328125
F0.056251674890518188
I6947327
I-1
tp5
a((F159.49742126464844
F113.04618072509766
tF2.01206374168396
F155.24871826171875
F0.065538302063941956
I8192511
I-1
tp6
a((F159.49742126464844
F113.04618072509766
tF2.01206374168396
F62.13604736328125
F0.065538302063941956
I8192511
I-1
tp7
a((F125.35758209228516
F114.06041717529297
tF1.913277268409729
F135.77629089355469
F0.060048490762710571
I4588031
I-1
tp8
a((F125.35758209228516
F114.06041717529297
tF1.913277268409729
F63.7489013671875
F0.060048490762710571
I4588031
I-1
tp9
a((F258.18939208984375
F125.67147827148438
tF3.0442359447479248
F49.047515869140625
F0.042620968073606491
I4719615
I-1
tp10
a((F333.50021362304688
F68.306846618652344
tF2.7463376522064209
F202.5386962890625
F0.056365121155977249
I14025471
I-1
tp11
a((F333.50021362304688
F68.306846618652344
tF2.7463376522064209
F145.5035400390625
F0.056365121155977249
I14025471
I-1
tp12
a((F230.5093994140625
F88.734153747558594
tF2.8143529891967773
F98.620086669921875
F0.062949597835540771
I15794943
I-1
tp13
a((F230.5093994140625
F88.734153747558594
tF2.8143529891967773
F16.02154541015625
F0.062949597835540771
I15794943
I-1
tp14
a((F350.15390014648438
F88.782196044921875
tF2.5938878059387207
F185.2724609375
F0.073413647711277008
I9896703
I-1
tp15
a((F350.15390014648438
F88.782196044921875
tF2.5938878059387207
F52.64837646484375
F0.073413647711277008
I9896703
I-1
tp16
a((F339.20111083984375
F102.69577789306641
tF2.6059637069702148
F312.5765380859375
F0.047337055206298828
I10224383
I-1
tp17
a((F343.402587890625
F104.34159088134766
tF2.7474570274353027
F330.85601806640625
F0.067455306649208069
I14025471
I-1
tp18
a((F343.402587890625
F104.34159088134766
tF2.7474570274353027
F227.48097229003906
F0.067455306649208069
I14025471
I-1
tp19
a((F273.42901611328125
F106.70305633544922
tF2.5415494441986084
F238.86703491210938
F0.075953267514705658
I8389375
I-1
tp20
a((F110.16500091552734
F107.89946746826172
tF3.1538074016571045
F254.17166137695312
F0.077866315841674805
I7275519
I-1
tp21
a((F110.16500091552734
F107.89946746826172
tF3.1538074016571045
F46.649444580078125
F0.077866315841674805
I7275519
I-1
tp22
a((F324.43597412109375
F109.51069641113281
tF2.5132625102996826
F170.55770874023438
F0.066506415605545044
I7602943
I-1
tp23
a((F324.43597412109375
F109.51069641113281
tF2.5132625102996826
F58.058135986328125
F0.066506415605545044
I7602943
I-1
tp24
a((F186.06443786621094
F111.91654968261719
tF2.4374091625213623
F157.65597534179688
F0.064916454255580902
I5374719
I-1
tp25
a((F186.06443786621094
F111.91654968261719
tF2.4374091625213623
F25.613433837890625
F0.064916454255580902
I5374719
I-1
tp26
a((F87.061477661132812
F114.85703277587891
tF3.2586605548858643
F94.9202880859375
F0.051882129162549973
I9700351
I-1
tp27
a((F247.46940612792969
F115.59093475341797
tF2.8171834945678711
F70.786407470703125
F0.078564614057540894
I15860479
I-1
tp28
a((F83.176811218261719
F116.33182525634766
tF2.4756724834442139
F11.504058837890625
F0.059591926634311676
I6488831
I-1
tp29
a((F92.65032958984375
F117.57611083984375
tF2.5132856369018555
F128.33015441894531
F0.052186176180839539
I7602943
I-1
tp30
a((F92.65032958984375
F117.57611083984375
tF2.5132856369018555
F84.850250244140625
F0.052186176180839539
I7602943
I-1
tp31
a((F335.53042602539062
F72.806953430175781
tF3.4095609188079834
F193.79000854492188
F0.07530318945646286
I12977151
I-1
tp32
a((F335.53042602539062
F72.806953430175781
tF3.4095609188079834
F74.47119140625
F0.07530318945646286
I12977151
I-1
tp33
a((F365.48239135742188
F82.153495788574219
tF3.5666635036468506
F75.143310546875
F0.060293935239315033
I16188415
I-1
tp34
a((F365.48239135742188
F82.153495788574219
tF3.5666635036468506
F5.359039306640625
F0.060293935239315033
I16188415
I-1
tp35
a((F324.24273681640625
F109.95316314697266
tF2.8597173690795898
F60.08587646484375
F0.065546989440917969
I197631
I-1
tp36
a((F194.94309997558594
F57.467617034912109
tF4.2237029075622559
F202.75294494628906
F0.076849400997161865
I11731200
I-1
tp37
a((F194.94309997558594
F57.467617034912109
tF4.2237029075622559
F50.460479736328125
F0.076849400997161865
I11731200
I-1
tp38
a((F157.77291870117188
F62.021080017089844
tF4.1639084815979004
F205.04541015625
F0.080380931496620178
I10682624
I-1
tp39
a((F157.77291870117188
F62.021080017089844
tF4.1639084815979004
F50.015380859375
F0.080380931496620178
I10682624
I-1
tp40
a((F313.92916870117188
F76.378326416015625
tF5.2072625160217285
F268.35867309570312
F0.068498879671096802
I10158592
I-1
tp41
a((F110.62440490722656
F89.722541809082031
tF3.9125111103057861
F206.58966064453125
F0.082832381129264832
I6160640
I-1
tp42
a((F110.364990234375
F90.158828735351562
tF4.1307730674743652
F208.524169921875
F0.082700550556182861
I10092800
I-1
tp43
a((F110.364990234375
F90.158828735351562
tF4.1307730674743652
F38.305999755859375
F0.082700550556182861
I10092800
I-1
tp44
a((F181.66061401367188
F109.70484924316406
tF4.4136309623718262
F281.0250244140625
F0.050898391753435135
I14876928
I-1
tp45
a((F181.66061401367188
F109.70484924316406
tF4.4136309623718262
F31.108673095703125
F0.050898391753435135
I14876928
I-1
tp46
a((F277.49459838867188
F136.95391845703125
tF3.8172073364257812
F236.07537841796875
F0.083771683275699615
I4391168
I-1
tp47
a((F277.49459838867188
F136.95391845703125
tF3.8172073364257812
F38.93377685546875
F0.083771683275699615
I4391168
I-1
tp48
a((F229.354736328125
F137.95256042480469
tF3.8810901641845703
F238.9622802734375
F0.083131477236747742
I5570816
I-1
tp49
a((F229.354736328125
F137.95256042480469
tF3.8810901641845703
F39.539642333984375
F0.083131477236747742
I5570816
I-1
tp50
a((F263.12991333007812
F78.214897155761719
tF5.3131942749023438
F259.4886474609375
F0.061233699321746826
I11600384
I-1
tp51
a((F234.59141540527344
F83.593025207519531
tF5.5305342674255371
F276.86968994140625
F0.055859431624412537
I14483968
I-1
tp52
a((F68.711280822753906
F89.673637390136719
tF5.0145831108093262
F190.601806640625
F0.077790118753910065
I7406080
I-1
tp53
a((F68.711280822753906
F89.673637390136719
tF5.0145831108093262
F31.9527587890625
F0.077790118753910065
I7406080
I-1
tp54
a((F274.73529052734375
F100.99652862548828
tF5.4975571632385254
F29.80450439453125
F0.075630374252796173
I14090752
I-1
tp55
a((F87.923309326171875
F103.09528350830078
tF5.5576138496398926
F199.40415954589844
F0.082907006144523621
I14877184
I-1
tp56
a((F87.923309326171875
F103.09528350830078
tF5.5576138496398926
F7.67529296875
F0.082907006144523621
I14877184
I-1
tp57
a((F282.88131713867188
F111.02468872070312
tF4.9541144371032715
F129.9002685546875
F0.047553598880767822
I6554112
I-1
tp58
a((F88.427566528320312
F112.73529815673828
tF5.4097003936767578
F97.713043212890625
F0.053284935653209686
I12911104
I-1
tp59
a((F308.33831787109375
F123.24441528320312
tF6.645294189453125
F47.255615234375
F0.04191979393362999
I11076352
I-1
tp60
a((F85.290283203125
F48.06805419921875
tF7.1792793273925781
F242.96466064453125
F0.080769605934619904
I16646912
I-1
tp61
a((F85.290283203125
F48.06805419921875
tF7.1792793273925781
F27.4141845703125
F0.080769605934619904
I16646912
I-1
tp62
a((F213.70692443847656
F80.14349365234375
tF6.0818600654602051
F259.69705200195312
F0.067200087010860443
I4653824
I-1
tp63
a((F276.58892822265625
F80.760353088378906
tF6.4089441299438477
F270.1195068359375
F0.069949477910995483
I8454912
I-1
tp64
a((F276.58892822265625
F80.760353088378906
tF6.4089441299438477
F5.041839599609375
F0.069949477910995483
I8454912
I-1
tp65
a((F319.60360717773438
F86.040122985839844
tF6.5815939903259277
F328.32907104492188
F0.064677402377128601
I10355456
I-1
tp66
a((F319.60360717773438
F86.040122985839844
tF6.5815939903259277
F6.7420654296875
F0.064677402377128601
I10355456
I-1
tp67
a((F232.24336242675781
F91.686836242675781
tF6.123054027557373
F208.03347778320312
F0.088716797530651093
I5178112
I-1
tp68
a((F232.24336242675781
F91.686836242675781
tF6.123054027557373
F22.51812744140625
F0.088716797530651093
I5178112
I-1
tp69
a((F300.15826416015625
F95.089111328125
tF6.9433398246765137
F227.77726745605469
F0.087022878229618073
I14222080
I-1
tp70
a((F300.15826416015625
F95.089111328125
tF6.9433398246765137
F38.213836669921875
F0.087022878229618073
I14222080
I-1
tp71
a((F366.40151977539062
F73.745124816894531
tF8.3069248199462891
F258.52386474609375
F0.081377215683460236
I10486017
I-1
tp72
a((F366.40151977539062
F73.745124816894531
tF8.3069248199462891
F36.246002197265625
F0.081377215683460236
I10486017
I-1
tp73
a((F116.48950958251953
F80.800300598144531
tF8.8259477615356445
F287.77737426757812
F0.067877233028411865
I14876929
I-1
tp74
a((F116.48950958251953
F80.800300598144531
tF8.8259477615356445
F250.98966979980469
F0.067877233028411865
I14876929
I-1
tp75
a((F226.80305480957031
F83.596839904785156
tF7.8635215759277344
F275.31524658203125
F0.061148658394813538
I6553857
I-1
tp76
a((F253.87361145019531
F96.009262084960938
tF7.4574661254882812
F223.40164184570312
F0.086022235453128815
I2687233
I-1
tp77
a((F253.87361145019531
F96.009262084960938
tF7.4574661254882812
F37.42822265625
F0.086022235453128815
I2687233
I-1
tp78
a((F209.74349975585938
F97.981597900390625
tF8.1527061462402344
F28.601348876953125
F0.087914697825908661
I9175297
I-1
tp79
a((F344.16299438476562
F98.396148681640625
tF7.6236367225646973
F211.77119445800781
F0.093681752681732178
I4325633
I-1
tp80
a((F147.70350646972656
F100.00515747070312
tF8.094329833984375
F37.359771728515625
F0.080731213092803955
I8651009
I-1
tp81
a((F181.7818603515625
F99.973167419433594
tF8.8619298934936523
F203.21478271484375
F0.088756024837493896
I15204609
I-1
tp82
a((F181.7818603515625
F99.973167419433594
tF8.8619298934936523
F39.48284912109375
F0.088756024837493896
I15204609
I-1
tp83
a((F87.387115478515625
F121.62923431396484
tF8.3061981201171875
F0.29547119140625
F0.065831266343593597
I10486017
I-1
tp84
a((F87.387115478515625
F121.62923431396484
tF8.3061981201171875
F106.38627624511719
F0.065831266343593597
I10486017
I-1
tp85
a((F38.320278167724609
F80.430587768554688
tF10.664637565612793
F223.65068054199219
F0.078161083161830902
I11862529
I-1
tp86
a((F330.9676513671875
F81.914360046386719
tF11.108357429504395
F323.75689697265625
F0.059425562620162964
I14811649
I-1
tp87
a((F330.9676513671875
F81.914360046386719
tF11.108357429504395
F232.64251708984375
F0.059425562620162964
I14811649
I-1
tp88
a((F92.03887939453125
F84.604782104492188
tF9.2435827255249023
F220.26327514648438
F0.078173205256462097
I1507841
I-1
tp89
a((F246.81922912597656
F86.184036254882812
tF10.045546531677246
F261.8177490234375
F0.05938948318362236
I7537153
I-1
tp90
a((F171.505126953125
F89.947982788085938
tF11.059000968933105
F200.90611267089844
F0.04948342964053154
I14483969
I-1
tp91
a((F171.505126953125
F89.947982788085938
tF11.059000968933105
F35.611114501953125
F0.04948342964053154
I14483969
I-1
tp92
a((F286.59912109375
F103.76822662353516
tF10.73127269744873
F196.32643127441406
F0.046616718173027039
I12321281
I-1
tp93
a((F286.59912109375
F103.76822662353516
tF10.73127269744873
F140.22286987304688
F0.046616718173027039
I12321281
I-1
tp94
a((F238.18408203125
F106.10280609130859
tF10.145371437072754
F148.73593139648438
F0.054941814392805099
I8258049
I-1
tp95
a((F172.69334411621094
F113.85648345947266
tF11.347048759460449
F111.28616333007812
F0.067575566470623016
I16384513
I-1
tp96
a((F245.33845520019531
F128.33647155761719
tF10.734686851501465
F45.50482177734375
F0.055185064673423767
I12321281
I-1
tp97
a((F261.69888305664062
F128.76512145996094
tF9.5908269882202148
F48.307037353515625
F0.067064709961414337
I4194817
I-1
tp98
a((F339.47048950195312
F60.241519927978516
tF11.513767242431641
F339.30599975585938
F0.099084734916687012
I721665
I-1
tp99
a((F339.47048950195312
F60.241519927978516
tF11.513767242431641
F259.44522094726562
F0.099084734916687012
I721665
I-1
tp100
a((F339.47048950195312
F60.241519927978516
tF11.513767242431641
F180.44482421875
F0.099084734916687012
I721665
I-1
tp101
a((F307.9405517578125
F108.43340301513672
tF13.091090202331543
F53.683624267578125
F0.047380946576595306
I9962241
I-1
tp102
a((F101.82636260986328
F111.83268737792969
tF13.821542739868164
F93.263702392578125
F0.057472936809062958
I13894401
I-1
tp103
a((F139.91368103027344
F113.33317565917969
tF11.560951232910156
F88.6168212890625
F0.060662858188152313
I983809
I-1
tp104
a((F200.74943542480469
F112.36041259765625
tF14.178817749023438
F101.5242919921875
F0.068278975784778595
I15729409
I-1
tp105
a((F259.7340087890625
F111.80446624755859
tF12.406806945800781
F47.899688720703125
F0.048322770744562149
I6095617
I-1
tp106
a((F38.929431915283203
F113.71030426025391
tF14.113451957702637
F208.61758422851562
F0.087144643068313599
I15401729
I-1
tp107
a((F38.929431915283203
F113.71030426025391
tF14.113451957702637
F52.354461669921875
F0.087144643068313599
I15401729
I-1
tp108
a((F339.53121948242188
F113.30931854248047
tF13.396960258483887
F108.78582763671875
F0.066251568496227264
I11666177
I-1
tp109
a((F339.53121948242188
F113.30931854248047
tF13.396960258483887
F73.768524169921875
F0.066251568496227264
I11666177
I-1
tp110
a((F225.70481872558594
F116.92788696289062
tF12.36906623840332
F225.45426940917969
F0.070830792188644409
I5899009
I-1
tp111
a((F225.70481872558594
F116.92788696289062
tF12.36906623840332
F52.026458740234375
F0.070830792188644409
I5899009
I-1
tp112
a((F73.258430480957031
F125.00337219238281
tF12.514670372009277
F142.15118408203125
F0.077531985938549042
I6750977
I-1
tp113
a((F73.258430480957031
F125.00337219238281
tF12.514670372009277
F30.24713134765625
F0.077531985938549042
I6750977
I-1
tp114
a((F221.67594909667969
F144.08659362792969
tF12.726592063903809
F61.35723876953125
F0.08322472870349884
I7930625
I-1
tp115
a((F270.46023559570312
F143.99067687988281
tF12.025107383728027
F59.564239501953125
F0.08082619309425354
I3867393
I-1
tp116
a((F121.37834930419922
F40.469165802001953
tF14.834652900695801
F226.44265747070312
F0.087420471012592316
I2294018
I-1
tp117
a((F203.66400146484375
F46.636539459228516
tF14.815909385681152
F240.29107666015625
F0.084557369351387024
I2228482
I-1
tp118
a((F203.66400146484375
F46.636539459228516
tF14.815909385681152
F18.71337890625
F0.084557369351387024
I2228482
I-1
tp119
a((F124.53511047363281
F66.397880554199219
tF15.413334846496582
F229.7509765625
F0.068222776055335999
I5112066
I-1
tp120
a((F124.53511047363281
F66.397880554199219
tF15.413334846496582
F39.379150390625
F0.068222776055335999
I5112066
I-1
tp121
a((F341.4652099609375
F96.411766052246094
tF37.923351287841797
F60.955047607421875
F0.052807293832302094
I3342851
I-1
tp122
a((F71.499824523925781
F90.996772766113281
tF54.709117889404297
F256.32687377929688
F0.059946086257696152
I13173507
I-1
tp123
a((F71.499824523925781
F90.996772766113281
tF54.709117889404297
F89.85089111328125
F0.059946086257696152
I13173507
I-1
tp124
a.