(lp1
((F551.4918212890625
F208.23567199707031
tF2.2045314311981201
F204.77854919433594
F0.041117478162050247
I14811647
I-1
tp2
a((F599.30517578125
F222.17071533203125
tF2.1896617412567139
F226.05999755859375
F0.067421920597553253
I14352895
I-1
tp3
a((F599.30517578125
F222.17071533203125
tF2.1896617412567139
F92.082794189453125
F0.067421920597553253
I14352895
I-1
tp4
a((F840.69976806640625
F248.41586303710938
tF2.0962438583374023
F283.159912109375
F0.06950051337480545
I11207167
I-1
tp5
a((F840.69976806640625
F248.41586303710938
tF2.0962438583374023
F44.1529541015625
F0.06950051337480545
I11207167
I-1
tp6
a((F814.84527587890625
F268.20773315429688
tF2.0473713874816895
F187.17428588867188
F0.066777385771274567
I9503231
I-1
tp7
a((F814.84527587890625
F268.20773315429688
tF2.0473713874816895
F56.103271484375
F0.066777385771274567
I9503231
I-1
tp8
a((F627.76727294921875
F281.0753173828125
tF1.9269593954086304
F207.93621826171875
F0.070261135697364807
I5112319
I-1
tp9
a((F627.76727294921875
F281.0753173828125
tF1.9269593954086304
F62.1995849609375
F0.070261135697364807
I5112319
I-1
tp10
a((F214.89443969726562
F322.51199340820312
tF2.1008002758026123
F271.97021484375
F0.066088005900382996
I11338239
I-1
tp11
a((F214.89443969726562
F322.51199340820312
tF2.1008002758026123
F18.469970703125
F0.066088005900382996
I11338239
I-1
tp12
a((F673.20361328125
F197.66958618164062
tF2.6751410961151123
F1.680419921875
F0.064376659691333771
I12124927
I-1
tp13
a((F673.20361328125
F197.66958618164062
tF2.6751410961151123
F233.27859497070312
F0.064376659691333771
I12124927
I-1
tp14
a((F213.08918762207031
F204.90850830078125
tF2.6448371410369873
F335.76846313476562
F0.060220967978239059
I11272959
I-1
tp15
a((F213.08918762207031
F204.90850830078125
tF2.6448371410369873
F52.55865478515625
F0.060220967978239059
I11272959
I-1
tp16
a((F841.32464599609375
F248.21405029296875
tF2.5476534366607666
F287.150634765625
F0.068290233612060547
I8585983
I-1
tp17
a((F841.32464599609375
F248.21405029296875
tF2.5476534366607666
F45.601776123046875
F0.068290233612060547
I8585983
I-1
tp18
a((F314.09500122070312
F283.03369140625
tF2.7275795936584473
F140.0823974609375
F0.062655970454216003
I13501183
I-1
tp19
a((F314.09500122070312
F283.03369140625
tF2.7275795936584473
F54.651123046875
F0.062655970454216003
I13501183
I-1
tp20
a((F673.55218505859375
F197.06622314453125
tF3.0634086132049561
F237.08319091796875
F0.063803873956203461
I5178367
I-1
tp21
a((F399.56167602539062
F281.30880737304688
tF3.567720890045166
F157.49395751953125
F0.064788341522216797
I16253951
I-1
tp22
a((F399.56167602539062
F281.30880737304688
tF3.567720890045166
F58.49346923828125
F0.064788341522216797
I16253951
I-1
tp23
a((F674.07061767578125
F196.21670532226562
tF3.6444802284240723
F240.95948791503906
F0.06229131668806076
I1048832
I-1
tp24
a((F812.87786865234375
F271.40802001953125
tF4.3877668380737305
F178.66256713867188
F0.068049080669879913
I14483712
I-1
tp25
a((F812.87786865234375
F271.40802001953125
tF4.3877668380737305
F56.6236572265625
F0.068049080669879913
I14483712
I-1
tp26
a((F313.88836669921875
F284.2237548828125
tF3.9692318439483643
F137.00823974609375
F0.061533782631158829
I7209216
I-1
tp27
a((F313.88836669921875
F284.2237548828125
tF3.9692318439483643
F59.509246826171875
F0.061533782631158829
I7209216
I-1
tp28
a((F594.18463134765625
F224.16668701171875
tF5.4714550971984863
F218.47132873535156
F0.067973561584949493
I13697536
I-1
tp29
a((F594.18463134765625
F224.16668701171875
tF5.4714550971984863
F100.62069702148438
F0.067973561584949493
I13697536
I-1
tp30
a((F858.42010498046875
F261.65335083007812
tF6.136807918548584
F331.59304809570312
F0.069175831973552704
I5309184
I-1
tp31
a((F212.42951965332031
F267.56802368164062
tF4.9833202362060547
F8.248748779296875
F0.063263416290283203
I6947328
I-1
tp32
a((F398.94464111328125
F283.23797607421875
tF5.4659318923950195
F153.83538818359375
F0.064150333404541016
I13632000
I-1
tp33
a((F398.94464111328125
F283.23797607421875
tF5.4659318923950195
F61.925933837890625
F0.064150333404541016
I13632000
I-1
tp34
a((F738.68701171875
F284.63717651367188
tF4.8431611061096191
F239.65328979492188
F0.080309070646762848
I4915712
I-1
tp35
a((F738.68701171875
F284.63717651367188
tF4.8431611061096191
F63.943878173828125
F0.080309070646762848
I4915712
I-1
tp36
a((F232.43922424316406
F293.222900390625
tF5.2051434516906738
F83.80438232421875
F0.053278557956218719
I10093056
I-1
tp37
a((F210.24476623535156
F315.55343627929688
tF6.0761017799377441
F319.50491333007812
F0.047568507492542267
I4588288
I-1
tp38
a((F834.56207275390625
F171.10733032226562
tF6.5330095291137695
F201.44682312011719
F0.057644732296466827
I9831168
I-1
tp39
a((F834.56207275390625
F171.10733032226562
tF6.5330095291137695
F144.730224609375
F0.057644732296466827
I9831168
I-1
tp40
a((F848.6329345703125
F256.97943115234375
tF6.4002642631530762
F323.75360107421875
F0.047858648002147675
I8389376
I-1
tp41
a((F858.54156494140625
F261.34320068359375
tF6.5388102531433105
F331.22433471679688
F0.068923845887184143
I9896704
I-1
tp42
a((F858.54156494140625
F261.34320068359375
tF6.5388102531433105
F229.31559753417969
F0.068923845887184143
I9896704
I-1
tp43
a((F683.7821044921875
F267.236328125
tF6.752753734588623
F237.6041259765625
F0.074283808469772339
I12256000
I-1
tp44
a((F683.7821044921875
F267.236328125
tF6.752753734588623
F20.8338623046875
F0.074283808469772339
I12256000
I-1
tp45
a((F274.05551147460938
F270.55007934570312
tF6.7068953514099121
F259.69619750976562
F0.078639335930347443
I11731712
I-1
tp46
a((F274.05551147460938
F270.55007934570312
tF6.7068953514099121
F46.7579345703125
F0.078639335930347443
I11731712
I-1
tp47
a((F619.41650390625
F288.77352905273438
tF6.8947610855102539
F70.7100830078125
F0.079872399568557739
I13763328
I-1
tp48
a((F210.13505554199219
F314.82254028320312
tF6.7176613807678223
F325.596923828125
F0.047404665499925613
I11862784
I-1
tp49
a((F839.30889892578125
F182.11888122558594
tF8.7569875717163086
F192.38676452636719
F0.075663529336452484
I14352641
I-1
tp50
a((F839.30889892578125
F182.11888122558594
tF8.7569875717163086
F71.181976318359375
F0.075663529336452484
I14352641
I-1
tp51
a((F914.48614501953125
F206.14689636230469
tF9.4416046142578125
F68.131591796875
F0.059405788779258728
I3080705
I-1
tp52
a((F914.48614501953125
F206.14689636230469
tF9.4416046142578125
F7.49249267578125
F0.059405788779258728
I3080705
I-1
tp53
a((F275.75360107421875
F269.74270629882812
tF7.6843910217285156
F255.14811706542969
F0.078038536012172699
I4849921
I-1
tp54
a((F275.75360107421875
F269.74270629882812
tF7.6843910217285156
F45.032928466796875
F0.078038536012172699
I4849921
I-1
tp55
a((F683.20159912109375
F268.19143676757812
tF7.1845259666442871
F248.40914916992188
F0.074433512985706329
I257
I-1
tp56
a((F683.20159912109375
F268.19143676757812
tF7.1845259666442871
F26.0028076171875
F0.074433512985706329
I257
I-1
tp57
a((F397.96221923828125
F286.02532958984375
tF8.2887783050537109
F146.66532897949219
F0.062406010925769806
I10354945
I-1
tp58
a((F397.96221923828125
F286.02532958984375
tF8.2887783050537109
F62.540557861328125
F0.062406010925769806
I10354945
I-1
tp59
a((F768.487060546875
F304.72238159179688
tF9.2782478332519531
F47.302276611328125
F0.04242904856801033
I1769985
I-1
tp60
a((F210.23295593261719
F313.16897583007812
tF8.0430183410644531
F329.11630249023438
F0.047433245927095413
I8192257
I-1
tp61
a((F646.18524169921875
F314.72354125976562
tF8.718480110168457
F50.3934326171875
F0.042847704142332077
I14024961
I-1
tp62
a((F395.18997192382812
F154.71611022949219
tF10.085580825805664
F201.16885375976562
F0.080651760101318359
I7799297
I-1
tp63
a((F395.18997192382812
F154.71611022949219
tF10.085580825805664
F51.859161376953125
F0.080651760101318359
I7799297
I-1
tp64
a((F153.14054870605469
F179.54255676269531
tF10.244356155395508
F207.45071411132812
F0.078727483749389648
I8978945
I-1
tp65
a((F785.4180908203125
F190.97760009765625
tF12.958371162414551
F269.11297607421875
F0.068584389984607697
I9241345
I-1
tp66
a((F276.93389892578125
F224.62132263183594
tF9.871612548828125
F206.23274230957031
F0.08339141309261322
I6291969
I-1
tp67
a((F276.93389892578125
F224.62132263183594
tF9.871612548828125
F40.69512939453125
F0.08339141309261322
I6291969
I-1
tp68
a((F704.6396484375
F294.07623291015625
tF13.482307434082031
F237.88514709472656
F0.060103539377450943
I12124929
I-1
tp69
a((F694.55975341796875
F341.91033935546875
tF9.968195915222168
F233.50486755371094
F0.083922922611236572
I7012865
I-1
tp70
a((F694.55975341796875
F341.91033935546875
tF9.968195915222168
F40.23944091796875
F0.083922922611236572
I7012865
I-1
tp71
a((F574.5029296875
F344.22122192382812
tF10.232528686523438
F236.08740234375
F0.083332978188991547
I8847873
I-1
tp72
a((F574.5029296875
F344.22122192382812
tF10.232528686523438
F40.872833251953125
F0.083332978188991547
I8847873
I-1
tp73
a((F658.34979248046875
F195.76113891601562
tF13.159797668457031
F260.09347534179688
F0.061181273311376572
I10355457
I-1
tp74
a((F303.5753173828125
F247.89813232421875
tF13.99860668182373
F38.652587890625
F0.079549387097358704
I14811905
I-1
tp75
a((F687.308349609375
F252.53074645996094
tF13.763476371765137
F29.98712158203125
F0.075763583183288574
I13632257
I-1
tp76
a((F220.108154296875
F257.98464965820312
tF13.963081359863281
F7.630645751953125
F0.083315543830394745
I14615297
I-1
tp77
a((F707.58782958984375
F277.94546508789062
tF12.165019989013672
F130.30351257324219
F0.047548409551382065
I4653825
I-1
tp78
a((F221.63778686523438
F281.68026733398438
tF13.617838859558105
F98.458221435546875
F0.052817452698945999
I12845825
I-1
tp79
a((F212.61300659179688
F121.32440948486328
tF18.385704040527344
F244.70770263671875
F0.080530650913715363
I1114626
I-1
tp80
a((F534.56011962890625
F200.49331665039062
tF15.112555503845215
F260.49664306640625
F0.067401230335235596
I3670274
I-1
tp81
a((F617.31689453125
F215.52252197265625
tF25.09642219543457
F261.93853759765625
F0.059298507869243622
I6947586
I-1
tp82
a((F691.18206787109375
F202.63949584960938
tF16.615442276000977
F356.90530395507812
F0.069546759128570557
I10486018
I-1
tp83
a((F691.18206787109375
F202.63949584960938
tF16.615442276000977
F270.30267333984375
F0.069546759128570557
I10486018
I-1
tp84
a((F798.835693359375
F215.7327880859375
tF16.771961212158203
F322.85806274414062
F0.06448441743850708
I11206914
I-1
tp85
a((F798.835693359375
F215.7327880859375
tF16.771961212158203
F5.406524658203125
F0.06448441743850708
I11206914
I-1
tp86
a((F581.0950927734375
F229.56004333496094
tF15.198869705200195
F207.10955810546875
F0.089264377951622009
I4063490
I-1
tp87
a((F581.0950927734375
F229.56004333496094
tF15.198869705200195
F24.021575927734375
F0.089264377951622009
I4063490
I-1
tp88
a((F749.92633056640625
F238.67225646972656
tF16.836654663085938
F231.64176940917969
F0.086897045373916626
I11469058
I-1
tp89
a((F749.92633056640625
F238.67225646972656
tF16.836654663085938
F34.169342041015625
F0.086897045373916626
I11469058
I-1
tp90
a((F633.38238525390625
F242.08055114746094
tF17.967126846313477
F228.80783081054688
F0.086069069802761078
I16187650
I-1
tp91
a((F633.38238525390625
F242.08055114746094
tF17.967126846313477
F36.42095947265625
F0.086069069802761078
I16187650
I-1
tp92
a((F787.95062255859375
F273.78085327148438
tF17.002803802490234
F59.627227783203125
F0.038768988102674484
I12189954
I-1
tp93
a((F772.3695068359375
F309.11441040039062
tF18.293586730957031
F47.38427734375
F0.041799504309892654
I786946
I-1
tp94
a((F916.4176025390625
F184.49514770507812
tF20.715574264526367
F256.61813354492188
F0.081365995109081268
I9765378
I-1
tp95
a((F916.4176025390625
F184.49514770507812
tF20.715574264526367
F38.0198974609375
F0.081365995109081268
I9765378
I-1
tp96
a((F568.1485595703125
F208.59303283691406
tF19.102396011352539
F275.9376220703125
F0.061633728444576263
I3867138
I-1
tp97
a((F524.4722900390625
F245.54072570800781
tF20.268619537353516
F28.22076416015625
F0.087907060980796814
I8192514
I-1
tp98
a((F860.6568603515625
F246.25666809082031
tF18.981475830078125
F212.53456115722656
F0.093574501574039459
I3408386
I-1
tp99
a((F368.1104736328125
F251.080322265625
tF19.266828536987305
F35.32635498046875
F0.081047095358371735
I4522498
I-1
tp100
a((F692.19464111328125
F293.57144165039062
tF21.753015518188477
F229.36915588378906
F0.074523672461509705
I13304322
I-1
tp101
a((F218.1357421875
F303.81594848632812
tF20.439212799072266
F0.39215087890625
F0.066158778965473175
I8782338
I-1
tp102
a((F218.1357421875
F303.81594848632812
tF20.439212799072266
F105.6842041015625
F0.066158778965473175
I8782338
I-1
tp103
a((F414.54830932617188
F128.40538024902344
tF28.431547164916992
F241.10963439941406
F0.072404332458972931
I15926018
I-1
tp104
a((F96.095176696777344
F201.2918701171875
tF26.584827423095703
F224.80006408691406
F0.078221514821052551
I11076354
I-1
tp105
a((F827.702392578125
F204.85379028320312
tF27.739618301391602
F323.97222900390625
F0.059282250702381134
I14156546
I-1
tp106
a((F827.702392578125
F204.85379028320312
tF27.739618301391602
F231.82742309570312
F0.059282250702381134
I14156546
I-1
tp107
a((F230.31527709960938
F211.59974670410156
tF23.059354782104492
F219.64382934570312
F0.077936612069606781
I787202
I-1
tp108
a((F429.96337890625
F225.2645263671875
tF27.893476486206055
F200.28244018554688
F0.049778107553720474
I14549762
I-1
tp109
a((F382.54421997070312
F240.50543212890625
tF24.093578338623047
F215.2169189453125
F0.080566264688968658
I3998466
I-1
tp110
a((F382.54421997070312
F240.50543212890625
tF24.093578338623047
F37.8643798828125
F0.080566264688968658
I3998466
I-1
tp111
a((F716.66668701171875
F259.91305541992188
tF26.743005752563477
F200.280517578125
F0.046579591929912567
I11535106
I-1
tp112
a((F716.66668701171875
F259.91305541992188
tF26.743005752563477
F139.46185302734375
F0.046579591929912567
I11535106
I-1
tp113
a((F595.73211669921875
F265.56344604492188
tF25.354410171508789
F148.70796203613281
F0.05487481877207756
I7668482
I-1
tp114
a((F431.39129638671875
F285.03042602539062
tF28.194961547851562
F112.35498046875
F0.067518711090087891
I15336194
I-1
tp115
a((F431.39129638671875
F285.03042602539062
tF28.194961547851562
F74.36236572265625
F0.067518711090087891
I15336194
I-1
tp116
a((F732.69366455078125
F316.43746948242188
tF28.15931510925293
F41.730224609375
F0.052642025053501129
I15270658
I-1
tp117
a((F849.126708984375
F151.04446411132812
tF28.845014572143555
F341.41928100585938
F0.098721012473106384
I262403
I-1
tp118
a((F849.126708984375
F151.04446411132812
tF28.845014572143555
F260.7491455078125
F0.098721012473106384
I262403
I-1
tp119
a((F849.126708984375
F151.04446411132812
tF28.845014572143555
F175.45198059082031
F0.098721012473106384
I262403
I-1
tp120
a((F342.94903564453125
F226.05699157714844
tF30.379659652709961
F228.06692504882812
F0.041983515024185181
I3997955
I-1
tp121
a((F769.73095703125
F271.43673706054688
tF32.819263458251953
F53.233154296875
F0.047287154942750931
I9634051
I-1
tp122
a((F254.89064025878906
F278.82284545898438
tF34.863498687744141
F95.072723388671875
F0.057685188949108124
I13959427
I-1
tp123
a((F649.5228271484375
F279.329345703125
tF31.054950714111328
F48.1484375
F0.048224575817584991
I5636355
I-1
tp124
a((F851.9376220703125
F283.52566528320312
tF33.832588195800781
F111.42434692382812
F0.066401280462741852
I11796739
I-1
tp125
a((F851.9376220703125
F283.52566528320312
tF33.832588195800781
F73.969146728515625
F0.066401280462741852
I11796739
I-1
tp126
a((F97.341468811035156
F284.50680541992188
tF35.112907409667969
F207.04722595214844
F0.087213434278964996
I14483715
I-1
tp127
a((F97.341468811035156
F284.50680541992188
tF35.112907409667969
F55.512054443359375
F0.087213434278964996
I14483715
I-1
tp128
a((F565.16021728515625
F291.95169067382812
tF30.397520065307617
F225.04043579101562
F0.070160835981369019
I4063491
I-1
tp129
a((F565.16021728515625
F291.95169067382812
tF30.397520065307617
F151.58489990234375
F0.070160835981369019
I4063491
I-1
tp130
a((F565.16021728515625
F291.95169067382812
tF30.397520065307617
F51.61474609375
F0.070160835981369019
I4063491
I-1
tp131
a((F183.16383361816406
F311.313232421875
tF31.686094284057617
F151.53192138671875
F0.077486798167228699
I7078147
I-1
tp132
a((F183.16383361816406
F311.313232421875
tF31.686094284057617
F32.22015380859375
F0.077486798167228699
I7078147
I-1
tp133
a((F554.55828857421875
F359.86224365234375
tF31.434164047241211
F192.66242980957031
F0.083534799516201019
I6488323
I-1
tp134
a((F554.55828857421875
F359.86224365234375
tF31.434164047241211
F85.716552734375
F0.083534799516201019
I6488323
I-1
tp135
a((F554.55828857421875
F359.86224365234375
tF31.434164047241211
F61.92108154296875
F0.083534799516201019
I6488323
I-1
tp136
a((F677.140869140625
F359.82659912109375
tF30.710941314697266
F56.75115966796875
F0.080113455653190613
I4784387
I-1
tp137
a((F303.5654296875
F101.00249481201172
tF37.367603302001953
F227.81256103515625
F0.087338894605636597
I2294275
I-1
tp138
a((F312.29080200195312
F165.86862182617188
tF38.820827484130859
F226.769287109375
F0.068387150764465332
I5046787
I-1
tp139
a((F312.29080200195312
F165.86862182617188
tF38.820827484130859
F39.326171875
F0.068387150764465332
I5046787
I-1
tp140
a((F746.08306884765625
F277.87515258789062
tF54.11822509765625
F52.954071044921875
F0.047035191208124161
I12387075
I-1
tp141
a((F853.06158447265625
F242.05595397949219
tF96.166252136230469
F268.02975463867188
F0.052213456481695175
I3801860
I-1
tp142
a((F853.06158447265625
F242.05595397949219
tF96.166252136230469
F62.06005859375
F0.052213456481695175
I3801860
I-1
tp143
a((F174.02342224121094
F225.39427185058594
tF129.72471618652344
F245.8743896484375
F0.059633154422044754
I8782085
I-1
tp144
a((F174.02342224121094
F225.39427185058594
tF129.72471618652344
F91.76959228515625
F0.059633154422044754
I8782085
I-1
tp145
a.