(lp1
((F849.39141845703125
F151.14382934570312
tF89
F246.08148193359375
F49912.34375
I2
I1
tp2
a((F553.8922119140625
F360.803955078125
tF89
F70.952804565429688
F30914.849609375
I2
I1
tp3
a((F859.70703125
F246.08146667480469
tF64
F215.67564392089844
F29341.361328125
I2
I-1
tp4
a((F675.58233642578125
F359.53173828125
tF89
F67.833732604980469
F29294.837890625
I2
I1
tp5
a((F579.9085693359375
F227.13877868652344
tF45
F204.8006591796875
F28841.56640625
I1
I-1
tp6
a((F454.792724609375
F252.30316162109375
tF67
F34.863765716552734
F28520.294921875
I2
I-1
tp7
a((F415.43304443359375
F129.86650085449219
tF89
F242.24177551269531
F25393.994140625
I2
I1
tp8
a((F96.700614929199219
F201.32728576660156
tF87
F226.95281982421875
F23664.69921875
I2
I1
tp9
a((F917.81817626953125
F183.402099609375
tF59
F256.942626953125
F22977.208984375
I2
I1
tp10
a((F93.169464111328125
F289.57260131835938
tF89
F204.95999145507812
F22857.6484375
I2
I1
tp11
a((F92.546180725097656
F206.08392333984375
tF69
F222.20552062988281
F22239.212890625
I2
I1
tp12
a((F310.07876586914062
F90.519142150878906
tF87
F229.20719909667969
F21643.16796875
I2
I1
tp13
a((F694.69708251953125
F291.50839233398438
tF65
F236.58518981933594
F21426.34765625
I2
I-1
tp14
a((F508.92718505859375
F117.46041107177734
tF119
F241.97467041015625
F21298.390625
I3
I1
tp15
a((F292.69573974609375
F202.84471130371094
tF68
F252.7952880859375
F21211.916015625
I2
I1
tp16
a((F519.69317626953125
F252.31791687011719
tF45
F20.323959350585938
F21054.2265625
I1
I-1
tp17
a((F788.797119140625
F191.0689697265625
tF33
F283.26083374023438
F20982.572265625
I1
I1
tp18
a((F568.50360107421875
F290.48507690429688
tF89
F231.95449829101562
F20508.8828125
I2
I-1
tp19
a((F357.91241455078125
F255.92742919921875
tF33
F32.612346649169922
F20385.673828125
I1
I-1
tp20
a((F314.09075927734375
F86.565032958984375
tF70
F17.11767578125
F20370.083984375
I2
I1
tp21
a((F743.99969482421875
F244.33943176269531
tF31
F245.56396484375
F20223.458984375
I1
I-1
tp22
a((F792.302734375
F190.74618530273438
tF22
F285.86148071289062
F20176.39453125
I0
I1
tp23
a((F784.40289306640625
F190.61151123046875
tF42
F270.373046875
F19957.83203125
I1
I1
tp24
a((F837.611083984375
F182.52702331542969
tF21
F200.210693359375
F19931.455078125
I0
I1
tp25
a((F354.49441528320312
F255.67501831054688
tF23
F31.234210968017578
F19743.61328125
I0
I-1
tp26
a((F215.80009460449219
F117.68399810791016
tF43
F247.24342346191406
F19700.248046875
I1
I1
tp27
a((F858.876220703125
F259.97402954101562
tF21
F222.53646850585938
F19641.1015625
I0
I-1
tp28
a((F569.24090576171875
F348.4952392578125
tF16
F249.82687377929688
F19630.58203125
I0
I-1
tp29
a((F691.7869873046875
F201.79489135742188
tF45
F6.2732677459716797
F19620.1875
I1
I1
tp30
a((F518.22052001953125
F256.73739624023438
tF34
F240.9822998046875
F19609.9453125
I1
I-1
tp31
a((F542.3553466796875
F197.75790405273438
tF31
F272.65380859375
F19579.923828125
I1
I1
tp32
a((F500.75906372070312
F275.98291015625
tF127
F88.449783325195312
F19570.556640625
I3
I1
tp33
a((F684.610595703125
F265.62649536132812
tF16
F243.45246887207031
F19500.4453125
I0
I1
tp34
a((F520.7042236328125
F103.79130554199219
tF67
F248.85221862792969
F19391.451171875
I2
I1
tp35
a((F623.10784912109375
F252.23088073730469
tF23
F251.98887634277344
F19388.87109375
I0
I-1
tp36
a((F430.8162841796875
F285.92935180664062
tF83
F95.400741577148438
F19135.63671875
I2
I1
tp37
a((F221.61616516113281
F260.129150390625
tF39
F203.64146423339844
F18949.869140625
I1
I-1
tp38
a((F182.87820434570312
F309.89981079101562
tF113
F156.64404296875
F18593.791015625
I3
I1
tp39
a((F209.41494750976562
F325.08786010742188
tF22
F42.021785736083984
F18451.90625
I0
I1
tp40
a((F526.33526611328125
F240.98529052734375
tF84
F33.159553527832031
F18347.31640625
I2
I-1
tp41
a((F398.99664306640625
F149.6455078125
tF16
F64.024734497070312
F18326.70703125
I0
I-1
tp42
a((F418.3131103515625
F270.2423095703125
tF126
F86.899765014648438
F17876.4765625
I3
I1
tp43
a((F679.27166748046875
F209.48304748535156
tF84
F276.076904296875
F17650.681640625
I2
I1
tp44
a((F362.01177978515625
F255.21205139160156
tF42
F37.704708099365234
F17649.580078125
I1
I-1
tp45
a((F859.74713134765625
F256.39483642578125
tF32
F213.26654052734375
F17621.451171875
I1
I-1
tp46
a((F802.71832275390625
F208.94627380371094
tF33
F4.4321389198303223
F17585.228515625
I1
I1
tp47
a((F281.04519653320312
F218.88909912109375
tF15
F196.01202392578125
F17375.9453125
I0
I-1
tp48
a((F524.962646484375
F248.5428466796875
tF69
F22.56568717956543
F17296.609375
I2
I-1
tp49
a((F313.17922973632812
F287.21453857421875
tF22
F128.545654296875
F17189.787109375
I0
I-1
tp50
a((F596.02239990234375
F263.13095092773438
tF81
F165.36288452148438
F17103.84375
I2
I1
tp51
a((F225.85092163085938
F209.87606811523438
tF66
F13.470479965209961
F17088.392578125
I2
I-1
tp52
a((F205.44973754882812
F325.60153198242188
tF32
F69.37554931640625
F17052.80859375
I1
I1
tp53
a((F398.02627563476562
F285.56973266601562
tF22
F147.3370361328125
F16964.244140625
I0
I-1
tp54
a((F199.63156127929688
F325.85836791992188
tF44
F90.470787048339844
F16721.7578125
I1
I1
tp55
a((F576.78985595703125
F222.38252258300781
tF22
F20.732538223266602
F16654.88671875
I0
I-1
tp56
a((F397.07492065429688
F288.58444213867188
tF32
F67.206260681152344
F16636.138671875
I1
I-1
tp57
a((F662.33563232421875
F193.96853637695312
tF32
F267.9071044921875
F16619.859375
I1
I1
tp58
a((F217.08955383300781
F205.70878601074219
tF22
F54.396598815917969
F16541.484375
I0
I-1
tp59
a((F833.4200439453125
F170.92070007324219
tF22
F150.43350219726562
F16510.8203125
I0
I-1
tp60
a((F827.23406982421875
F203.868896484375
tF86
F237.86769104003906
F16127.5830078125
I2
I-1
tp61
a((F312.67831420898438
F290.22695922851562
tF32
F120.44416046142578
F15810.611328125
I1
I-1
tp62
a((F847.89715576171875
F246.60353088378906
tF22
F42.576999664306641
F15373.90234375
I0
I-1
tp63
a((F913.5003662109375
F204.64105224609375
tF24
F71.9571533203125
F15169.5654296875
I0
I-1
tp64
a((F853.53375244140625
F282.29995727539062
tF120
F92.978958129882812
F15127.9619140625
I3
I1
tp65
a((F915.22369384765625
F207.08706665039062
tF34
F13.409534454345703
F14932.505859375
I1
I-1
tp66
a((F459.8309326171875
F268.54949951171875
tF15
F264.09695434570312
F14875.0810546875
I0
I1
tp67
a((F852.33544921875
F246.00921630859375
tF35
F42.353378295898438
F14849.4521484375
I1
I-1
tp68
a((F395.6170654296875
F293.88751220703125
tF48
F71.421661376953125
F14745.685546875
I1
I-1
tp69
a((F219.71601867675781
F206.44207763671875
tF32
F3.135138988494873
F14695.06640625
I1
I-1
tp70
a((F271.91152954101562
F271.5745849609375
tF15
F276.28466796875
F14548.0947265625
I0
I-1
tp71
a((F256.62420654296875
F274.86492919921875
tF121
F88.586097717285156
F14445.38671875
I3
I1
tp72
a((F665.3216552734375
F192.64337158203125
tF23
F278.69927978515625
F14136.337890625
I0
I1
tp73
a((F831.01092529296875
F170.873779296875
tF31
F153.9227294921875
F13916.3046875
I1
I-1
tp74
a((F311.87347412109375
F295.4024658203125
tF47
F71.3717041015625
F13610.1240234375
I1
I-1
tp75
a((F393.86468505859375
F298.66943359375
tF65
F72.880973815917969
F13385.361328125
I2
I-1
tp76
a((F917.31658935546875
F210.20452880859375
tF46
F14.123032569885254
F13325.4462890625
I1
I-1
tp77
a((F231.67611694335938
F294.22113037109375
tF21
F112.10372161865234
F13245.7197265625
I0
I-1
tp78
a((F314.47348022460938
F173.62327575683594
tF112
F217.16365051269531
F13182.259765625
I3
I-1
tp79
a((F804.90521240234375
F292.04254150390625
tF67
F65.677444458007812
F13148.8447265625
I2
I-1
tp80
a((F801.9324951171875
F299.43646240234375
tF89
F60.550224304199219
F13123.8203125
I2
I-1
tp81
a((F860.17047119140625
F261.58200073242188
tF200
F35.556262969970703
F13013.87109375
I3
I1
tp82
a((F563.6990966796875
F209.98876953125
tF66
F271.08880615234375
F12757.91796875
I2
I1
tp83
a((F895.66094970703125
F197.00700378417969
tF146
F17.33329963684082
F12485.84375
I3
I1
tp84
a((F797.7113037109375
F310.02883911132812
tF126
F57.197128295898438
F12461.35546875
I3
I-1
tp85
a((F639.95257568359375
F240.21537780761719
tF84
F251.78244018554688
F12358.455078125
I2
I-1
tp86
a((F687.82452392578125
F256.08645629882812
tF35
F27.585886001586914
F12349.712890625
I1
I-1
tp87
a((F215.84483337402344
F302.501220703125
tF55
F104.41156768798828
F11962.2900390625
I2
I-1
tp88
a((F353.119873046875
F286.21188354492188
tF82
F89.422569274902344
F11955.3232421875
I2
I1
tp89
a((F464.96368408203125
F289.00204467773438
tF32
F36.072471618652344
F11831.17578125
I1
I-1
tp90
a((F464.79653930664062
F296.04266357421875
tF48
F58.882793426513672
F11735.154296875
I1
I-1
tp91
a((F216.21586608886719
F287.40985107421875
tF22
F100.95571899414062
F11595.046875
I0
I1
tp92
a((F676.3934326171875
F188.642333984375
tF32
F272.51931762695312
F11555.6923828125
I1
I-1
tp93
a((F310.99038696289062
F299.88272094726562
tF66
F91.19256591796875
F11425.30859375
I2
I-1
tp94
a((F219.66632080078125
F285.76351928710938
tF30
F100.14601135253906
F11421.4091796875
I1
I1
tp95
a((F754.549560546875
F232.04116821289062
tF85
F234.43283081054688
F11354.2734375
I2
I-1
tp96
a((F715.72998046875
F259.1114501953125
tF82
F210.18672180175781
F11347.671875
I2
I1
tp97
a((F675.41754150390625
F191.06050109863281
tF22
F248.74813842773438
F11310.1787109375
I0
I-1
tp98
a((F464.83978271484375
F301.31024169921875
tF64
F65.162994384765625
F11281.6982421875
I2
I-1
tp99
a((F230.6546630859375
F296.52798461914062
tF31
F107.71766662597656
F11157.123046875
I1
I-1
tp100
a((F691.01983642578125
F280.77029418945312
tF31
F31.939859390258789
F11069.6953125
I1
I-1
tp101
a((F754.75921630859375
F239.79916381835938
tF70
F227.02557373046875
F11067.3984375
I2
I-1
tp102
a((F276.36532592773438
F220.95854187011719
tF31
F41.954563140869141
F10912.294921875
I1
I-1
tp103
a((F609.56500244140625
F216.69416809082031
tF81
F265.54721069335938
F10854.845703125
I2
I1
tp104
a((F465.1080322265625
F284.22439575195312
tF22
F159.02340698242188
F10675.4716796875
I0
I-1
tp105
a((F337.59890747070312
F274.09451293945312
tF138
F88.532424926757812
F10363.3271484375
I3
I1
tp106
a((F318.31842041015625
F183.32368469238281
tF67
F206.01275634765625
F10146.4453125
I2
I-1
tp107
a((F464.76626586914062
F308.34881591796875
tF84
F107.08253479003906
F9850.2890625
I2
I-1
tp108
a((F827.61102294921875
F254.03289794921875
tF80
F235.47624206542969
F9538.2607421875
I2
I1
tp109
a((F691.22998046875
F276.50253295898438
tF22
F156.68019104003906
F9529.1435546875
I0
I-1
tp110
a((F710.600830078125
F267.65814208984375
tF65
F196.048583984375
F9522.4736328125
I2
I1
tp111
a((F453.22677612304688
F105.93206024169922
tF89
F239.55105590820312
F9263.9267578125
I2
I-1
tp112
a((F554.4830322265625
F193.59278869628906
tF22
F251.68975830078125
F9189.123046875
I0
I-1
tp113
a((F173.92413330078125
F220.55099487304688
tF29
F184.20866394042969
F9181.677734375
I1
I-1
tp114
a((F158.63896179199219
F172.78300476074219
tF14
F65.234260559082031
F9173.994140625
I0
I-1
tp115
a((F565.77081298828125
F201.28253173828125
tF33
F271.92047119140625
F9140.234375
I1
I1
tp116
a((F272.11273193359375
F223.42109680175781
tF45
F218.85780334472656
F9087.5107421875
I1
I-1
tp117
a((F705.08612060546875
F293.61724853515625
tF32
F242.77592468261719
F8906.35546875
I1
I-1
tp118
a((F388.41070556640625
F244.92237854003906
tF86
F213.04008483886719
F8819.0810546875
I2
I-1
tp119
a((F174.20028686523438
F217.78102111816406
tF23
F179.12821960449219
F8813.611328125
I0
I-1
tp120
a((F493.6866455078125
F135.62351989746094
tF14
F59.722496032714844
F8733.8828125
I0
I-1
tp121
a((F453.71881103515625
F274.63113403320312
tF29
F282.659423828125
F8609.9384765625
I1
I1
tp122
a((F803.03875732421875
F194.38616943359375
tF30
F299.4954833984375
F8603.169921875
I1
I-1
tp123
a((F226.02923583984375
F312.54800415039062
tF86
F93.816886901855469
F8513.958984375
I2
I-1
tp124
a((F220.78108215332031
F280.6724853515625
tF39
F102.60564422607422
F8411.0380859375
I1
I1
tp125
a((F75.366958618164062
F238.28793334960938
tF91
F210.69926452636719
F8358.3271484375
I2
I-1
tp126
a((F209.81454467773438
F314.77642822265625
tF22
F335.76821899414062
F8321.240234375
I0
I-1
tp127
a((F181.92195129394531
F210.49722290039062
tF19
F182.07170104980469
F8300.9619140625
I0
I1
tp128
a((F233.18408203125
F323.35888671875
tF122
F87.295013427734375
F8269.0810546875
I3
I-1
tp129
a((F848.10693359375
F256.4281005859375
tF23
F323.74090576171875
F8169.0185546875
I0
I1
tp130
a((F562.51141357421875
F199.16018676757812
tF22
F259.201416015625
F8125.3623046875
I0
I1
tp131
a((F588.2763671875
F296.4830322265625
tF31
F247.47317504882812
F8117.27587890625
I1
I-1
tp132
a((F555.5489501953125
F191.18290710449219
tF32
F282.20849609375
F7988.755859375
I1
I-1
tp133
a((F262.94891357421875
F292.94180297851562
tF64
F88.857803344726562
F7982.1064453125
I2
I1
tp134
a((F272.04736328125
F229.52694702148438
tF60
F212.66046142578125
F7726.5361328125
I2
I-1
tp135
a((F208.09620666503906
F292.05715942382812
tF15
F8.8758792877197266
F7379.2998046875
I0
I-1
tp136
a((F620.684326171875
F290.50326538085938
tF27
F242.76235961914062
F7352.96044921875
I1
I-1
tp137
a((F394.36041259765625
F151.18902587890625
tF30
F50.268962860107422
F7330.470703125
I1
I-1
tp138
a((F776.3338623046875
F208.83772277832031
tF139
F274.3597412109375
F7299.10693359375
I3
I1
tp139
a((F453.16616821289062
F94.872802734375
tF125
F248.9027099609375
F7233.005859375
I3
I-1
tp140
a((F739.60235595703125
F273.28887939453125
tF140
F52.161273956298828
F7199.74853515625
I3
I1
tp141
a((F717.70477294921875
F187.60345458984375
tF91
F251.42453002929688
F7189.95068359375
I2
I-1
tp142
a((F739.46771240234375
F285.83786010742188
tF18
F241.85690307617188
F7149.234375
I0
I-1
tp143
a((F375.734130859375
F230.5443115234375
tF128
F205.73658752441406
F7124.669921875
I3
I-1
tp144
a((F308.7210693359375
F249.79330444335938
tF22
F209.71473693847656
F7059.068359375
I0
I-1
tp145
a((F136.20405578613281
F324.1827392578125
tF126
F150.15092468261719
F7010.97802734375
I3
I-1
tp146
a((F173.86563110351562
F214.49069213867188
tF16
F26.951335906982422
F6968.81494140625
I0
I-1
tp147
a((F592.8204345703125
F223.15924072265625
tF15
F98.431556701660156
F6896.25
I0
I-1
tp148
a((F307.350830078125
F250.17544555664062
tF41
F215.5308837890625
F6851.28466796875
I1
I-1
tp149
a((F738.2098388671875
F262.72793579101562
tF177
F272.21963500976562
F6817.201171875
I3
I1
tp150
a((F591.0406494140625
F224.69931030273438
tF15
F97.863136291503906
F6504.537109375
I0
I-1
tp151
a((F708.1513671875
F281.78610229492188
tF32
F116.89566802978516
F6341.97314453125
I1
I1
tp152
a((F578.023681640625
F338.119140625
tF59
F235.3348388671875
F6309.8017578125
I2
I-1
tp153
a((F170.70745849609375
F162.54826354980469
tF91
F241.03131103515625
F6099.203125
I2
I1
tp154
a((F718.56097412109375
F176.93157958984375
tF125
F276.5107421875
F6069.384765625
I3
I-1
tp155
a((F186.56480407714844
F172.29573059082031
tF176
F244.70439147949219
F5918.5146484375
I3
I1
tp156
a((F241.58247375488281
F92.6871337890625
tF127
F228.00047302246094
F5711.203125
I3
I-1
tp157
a((F898.14788818359375
F144.37745666503906
tF115
F294.58230590820312
F5692.01025390625
I3
I-1
tp158
a((F397.46954345703125
F241.92713928222656
tF23
F211.48764038085938
F5643.11669921875
I0
I-1
tp159
a((F545.50555419921875
F211.97972106933594
tF14
F187.76837158203125
F5542.59326171875
I0
I-1
tp160
a((F395.64480590820312
F241.34646606445312
tF33
F212.33221435546875
F5395.826171875
I1
I-1
tp161
a((F389.97625732421875
F152.96644592285156
tF43
F214.40048217773438
F5367.486328125
I1
I-1
tp162
a((F216.00936889648438
F274.08047485351562
tF20
F244.87185668945312
F5322.712890625
I0
I1
tp163
a((F694.4931640625
F344.99172973632812
tF32
F234.83837890625
F5319.36328125
I1
I-1
tp164
a((F876.66387939453125
F221.82720947265625
tF14
F183.35595703125
F5281.298828125
I0
I-1
tp165
a((F698.2462158203125
F335.57220458984375
tF60
F229.6434326171875
F5095.951171875
I2
I-1
tp166
a((F318.22769165039062
F199.84358215332031
tF30
F203.4814453125
F5040.25146484375
I1
I-1
tp167
a((F308.69137573242188
F250.99429321289062
tF55
F214.66473388671875
F5007.74609375
I2
I-1
tp168
a((F191.00785827636719
F191.877685546875
tF21
F231.0001220703125
F5005.0380859375
I0
I1
tp169
a.