(lp1
((F294.88677978515625
F849.3470458984375
tF88
F335.791259765625
F50081.69140625
I2
I1
tp2
a((F85.052787780761719
F553.9527587890625
tF89
F160.94737243652344
F30779.39453125
I2
I1
tp3
a((F86.551689147949219
F675.84417724609375
tF90
F157.79510498046875
F29363.689453125
I2
I1
tp4
a((F218.71322631835938
F579.85577392578125
tF45
F294.8006591796875
F28590.265625
I1
I-1
tp5
a((F199.80941772460938
F859.82568359375
tF63
F305.48831176757812
F28563.90625
I2
I-1
tp6
a((F193.57876586914062
F454.818603515625
tF67
F124.74286651611328
F28278.001953125
I2
I-1
tp7
a((F315.59109497070312
F415.15753173828125
tF90
F331.766845703125
F25173.302734375
I2
I1
tp8
a((F244.86537170410156
F96.678085327148438
tF87
F317.04098510742188
F23599.33203125
I2
I1
tp9
a((F261.972412109375
F917.41455078125
tF60
F348.10162353515625
F23568.390625
I2
I1
tp10
a((F239.19479370117188
F92.645927429199219
tF68
F311.43807983398438
F22986.923828125
I2
I1
tp11
a((F156.55523681640625
F93.150146484375
tF89
F294.726806640625
F22760.234375
I2
I1
tp12
a((F154.43905639648438
F694.0970458984375
tF64
F326.62994384765625
F22608.40625
I2
I-1
tp13
a((F255.06329345703125
F788.9715576171875
tF32
F9.7455959320068359
F21575.8671875
I1
I1
tp14
a((F355.53729248046875
F310.06341552734375
tF87
F319.20718383789062
F21550.966796875
I2
I1
tp15
a((F328.44830322265625
F508.97186279296875
tF119
F332.2188720703125
F21193.60546875
I3
I1
tp16
a((F242.50149536132812
F292.60452270507812
tF69
F342.06240844726562
F20949.3671875
I2
I1
tp17
a((F194.13471984863281
F519.989990234375
tF46
F111.84230041503906
F20591.05078125
I1
I-1
tp18
a((F190.1787109375
F357.9580078125
tF33
F122.61235046386719
F20245.8125
I1
I-1
tp19
a((F155.54397583007812
F567.92071533203125
tF91
F321.76956176757812
F20243.890625
I2
I-1
tp20
a((F255.25381469726562
F792.302734375
tF22
F15.861484527587891
F20176.39453125
I0
I1
tp21
a((F328.1968994140625
F215.64401245117188
tF43
F336.42581176757812
F20132.556640625
I1
I1
tp22
a((F358.46511840820312
F313.5494384765625
tF72
F331.017822265625
F20038.830078125
I2
I1
tp23
a((F263.47299194335938
F837.611083984375
tF21
F290.210693359375
F19931.455078125
I0
I1
tp24
a((F189.23939514160156
F518.28289794921875
tF33
F330.94281005859375
F19810.203125
I1
I-1
tp25
a((F190.32498168945312
F354.49441528320312
tF23
F121.23420715332031
F19743.61328125
I0
I-1
tp26
a((F244.66122436523438
F691.86676025390625
tF44
F96.375900268554688
F19708.10546875
I1
I1
tp27
a((F248.46690368652344
F542.30096435546875
tF32
F351.64584350585938
F19706.220703125
I1
I1
tp28
a((F186.02595520019531
F858.876220703125
tF21
F312.53646850585938
F19641.1015625
I0
I-1
tp29
a((F97.504753112792969
F569.24090576171875
tF16
F339.82687377929688
F19630.58203125
I0
I-1
tp30
a((F180.37350463867188
F684.610595703125
tF16
F333.45245361328125
F19500.4453125
I0
I1
tp31
a((F169.88420104980469
F500.95025634765625
tF127
F178.99354553222656
F19390.388671875
I3
I1
tp32
a((F193.76911926269531
F623.10784912109375
tF23
F341.9888916015625
F19388.87109375
I0
I-1
tp33
a((F186.03179931640625
F221.70414733886719
tF40
F294.56973266601562
F19307.16015625
I1
I-1
tp34
a((F201.78021240234375
F743.978759765625
tF32
F109.72278594970703
F19296.25
I1
I-1
tp35
a((F160.09414672851562
F430.80764770507812
tF83
F185.40074157714844
F18852.185546875
I2
I1
tp36
a((F255.36717224121094
F783.9698486328125
tF43
F358.4327392578125
F18494.921875
I1
I1
tp37
a((F120.91213226318359
F209.41494750976562
tF22
F132.02177429199219
F18451.90625
I0
I1
tp38
a((F205.14631652832031
F526.2559814453125
tF84
F123.15955352783203
F18370.4453125
I2
I-1
tp39
a((F134.89231872558594
F183.06759643554688
tF112
F127.67256164550781
F18328.55078125
I3
I1
tp40
a((F296.3544921875
F398.99664306640625
tF16
F154.02473449707031
F18326.70703125
I0
I-1
tp41
a((F120.42453765869141
F205.58985900878906
tF32
F67.956268310546875
F18309.765625
I1
I1
tp42
a((F190.77301025390625
F361.80722045898438
tF41
F127.78777313232422
F18050.5
I1
I-1
tp43
a((F236.43035888671875
F679.3470458984375
tF84
F6.0768933296203613
F17539.021484375
I2
I1
tp44
a((F175.6251220703125
F418.34140014648438
tF127
F183.39863586425781
F17443.845703125
I3
I1
tp45
a((F189.5865478515625
F859.799560546875
tF32
F303.26654052734375
F17438.7109375
I1
I-1
tp46
a((F227.11090087890625
F281.04519653320312
tF15
F286.01202392578125
F17375.9453125
I0
I-1
tp47
a((F232.47224426269531
F798.7791748046875
tF48
F85.570877075195312
F17312.140625
I1
I1
tp48
a((F158.78546142578125
F313.17922973632812
tF22
F218.545654296875
F17189.787109375
I0
I-1
tp49
a((F197.2918701171875
F524.8514404296875
tF68
F112.45536041259766
F17177.6328125
I2
I-1
tp50
a((F160.43026733398438
F398.02627563476562
tF22
F237.3370361328125
F16964.244140625
I0
I-1
tp51
a((F236.96157836914062
F802.769775390625
tF34
F94.9136962890625
F16918.9609375
I1
I1
tp52
a((F182.85414123535156
F596.0614013671875
tF81
F255.36288452148438
F16835.244140625
I2
I1
tp53
a((F236.05181884765625
F225.96319580078125
tF66
F103.47048187255859
F16675.75390625
I2
I-1
tp54
a((F223.61747741699219
F576.78985595703125
tF22
F110.73253631591797
F16654.88671875
I0
I-1
tp55
a((F120.08165740966797
F199.38284301757812
tF45
F180.15199279785156
F16568.228515625
I1
I1
tp56
a((F240.29121398925781
F217.08955383300781
tF22
F144.3966064453125
F16541.484375
I0
I-1
tp57
a((F275.07931518554688
F833.41998291015625
tF22
F240.43350219726562
F16510.8203125
I0
I-1
tp58
a((F251.57182312011719
F662.10302734375
tF33
F359.07806396484375
F16436.236328125
I1
I1
tp59
a((F159.51290893554688
F847.91070556640625
tF92
F177.07418823242188
F16431.931640625
I2
I1
tp60
a((F195.69007873535156
F625.16790771484375
tF30
F333.84637451171875
F16366.048828125
I1
I-1
tp61
a((F242.22369384765625
F827.84912109375
tF85
F324.47314453125
F16173.62890625
I2
I-1
tp62
a((F157.32968139648438
F397.0938720703125
tF32
F157.20637512207031
F16126.146484375
I1
I-1
tp63
a((F155.66441345214844
F312.68740844726562
tF32
F210.74916076660156
F15859.82421875
I1
I-1
tp64
a((F199.39646911621094
F847.89715576171875
tF22
F132.57701110839844
F15373.90234375
I0
I-1
tp65
a((F164.09596252441406
F853.5201416015625
tF121
F170.79924011230469
F15305.5810546875
I3
I1
tp66
a((F241.35894775390625
F913.5003662109375
tF24
F161.9571533203125
F15169.5654296875
I0
I-1
tp67
a((F200.14364624023438
F851.646728515625
tF33
F132.06787109375
F14920.3779296875
I1
I-1
tp68
a((F177.45050048828125
F459.8309326171875
tF15
F354.09695434570312
F14875.0810546875
I0
I1
tp69
a((F238.94734191894531
F915.1483154296875
tF33
F101.57719421386719
F14760.7509765625
I1
I-1
tp70
a((F174.42543029785156
F271.91152954101562
tF15
F6.2846541404724121
F14548.0947265625
I0
I-1
tp71
a((F170.97169494628906
F256.4664306640625
tF121
F178.88601684570312
F14418.0732421875
I3
I1
tp72
a((F253.35662841796875
F665.3216552734375
tF23
F8.6992654800415039
F14136.337890625
I0
I1
tp73
a((F275.07598876953125
F831.03570556640625
tF31
F243.9227294921875
F13912.103515625
I1
I-1
tp74
a((F151.77886962890625
F231.67611694335938
tF21
F202.10371398925781
F13245.7197265625
I0
I-1
tp75
a((F154.19172668457031
F804.94805908203125
tF66
F155.32249450683594
F13133.50390625
I2
I-1
tp76
a((F147.08427429199219
F393.885498046875
tF66
F167.8343505859375
F13055.12109375
I2
I-1
tp77
a((F183.59393310546875
F859.78851318359375
tF196
F125.29562377929688
F12993.4912109375
I3
I1
tp78
a((F272.67160034179688
F314.61663818359375
tF112
F307.13345336914062
F12956.39453125
I3
I-1
tp79
a((F235.61593627929688
F563.54913330078125
tF67
F2.0835649967193604
F12693.203125
I2
I1
tp80
a((F205.95828247070312
F639.908447265625
tF85
F342.47817993164062
F12628.29296875
I2
I-1
tp81
a((F189.84169006347656
F687.45330810546875
tF37
F118.75048065185547
F12561.615234375
I1
I-1
tp82
a((F250.07293701171875
F896.24993896484375
tF148
F106.03425598144531
F12465.88671875
I3
I1
tp83
a((F135.98214721679688
F797.70758056640625
tF126
F147.19712829589844
F12273.173828125
I3
I-1
tp84
a((F146.04313659667969
F310.93505859375
tF65
F181.39767456054688
F11870.673828125
I2
I-1
tp85
a((F158.59014892578125
F216.21586608886719
tF22
F190.95571899414062
F11595.046875
I0
I1
tp86
a((F157.11457824707031
F464.96316528320312
tF32
F125.60130310058594
F11485.2998046875
I1
I-1
tp87
a((F213.93460083007812
F754.5252685546875
tF85
F324.43283081054688
F11468.9970703125
I2
I-1
tp88
a((F144.55340576171875
F464.83746337890625
tF64
F155.16307067871094
F11356.42578125
I2
I-1
tp89
a((F257.39382934570312
F676.3831787109375
tF32
F2.5193278789520264
F11344.8466796875
I1
I-1
tp90
a((F159.61898803710938
F352.9676513671875
tF81
F179.52542114257812
F11333.6025390625
I2
I1
tp91
a((F254.93949890136719
F675.41754150390625
tF22
F338.7481689453125
F11310.1787109375
I0
I-1
tp92
a((F186.93367004394531
F715.71539306640625
tF82
F300.060791015625
F11295.7802734375
I2
I1
tp93
a((F229.36729431152344
F609.6798095703125
tF82
F357.16748046875
F11234.42578125
I2
I1
tp94
a((F160.49264526367188
F219.62628173828125
tF31
F190.7900390625
F11231.1357421875
I1
I1
tp95
a((F165.3011474609375
F691.06817626953125
tF31
F122.06538391113281
F10719.51171875
I1
I-1
tp96
a((F161.77558898925781
F465.1080322265625
tF22
F249.02340698242188
F10675.4716796875
I0
I-1
tp97
a((F174.46281433105469
F335.94830322265625
tF130
F180.57359313964844
F10316.9892578125
I3
I1
tp98
a((F224.87759399414062
F276.20877075195312
tF32
F128.88676452636719
F10314.3447265625
I1
I-1
tp99
a((F139.4576416015625
F310.2271728515625
tF84
F179.86917114257812
F10292.4423828125
I2
I-1
tp100
a((F137.71603393554688
F464.73922729492188
tF83
F195.76565551757812
F10018.578125
I2
I-1
tp101
a((F152.4168701171875
F705.15631103515625
tF32
F332.77593994140625
F9865.8095703125
I1
I-1
tp102
a((F196.9420166015625
F629.923583984375
tF44
F324.94302368164062
F9739.265625
I1
I-1
tp103
a((F178.9385986328125
F710.23028564453125
tF66
F286.26437377929688
F9581.8388671875
I2
I1
tp104
a((F169.49746704101562
F691.22998046875
tF22
F246.68017578125
F9529.1435546875
I0
I-1
tp105
a((F191.94912719726562
F827.51507568359375
tF79
F325.76052856445312
F9303.580078125
I2
I1
tp106
a((F340.06094360351562
F453.08038330078125
tF89
F329.48574829101562
F9207.130859375
I2
I-1
tp107
a((F252.40721130371094
F554.4830322265625
tF22
F341.68975830078125
F9189.123046875
I0
I-1
tp108
a((F273.21697998046875
F158.63896179199219
tF14
F155.2342529296875
F9173.994140625
I0
I-1
tp109
a((F201.14848327636719
F388.40420532226562
tF87
F303.53179931640625
F8947.345703125
I2
I-1
tp110
a((F228.21897888183594
F174.20028686523438
tF23
F269.12820434570312
F8813.611328125
I0
I-1
tp111
a((F133.7152099609375
F225.81871032714844
tF86
F183.56523132324219
F8810.232421875
I2
I-1
tp112
a((F225.59017944335938
F173.80690002441406
tF29
F273.51898193359375
F8753.208984375
I1
I-1
tp113
a((F310.37649536132812
F493.6866455078125
tF14
F149.72248840332031
F8733.8828125
I0
I-1
tp114
a((F254.87489318847656
F555.46624755859375
tF31
F11.298564910888672
F8368.2353515625
I1
I-1
tp115
a((F131.22355651855469
F209.81454467773438
tF22
F65.768234252929688
F8321.240234375
I0
I-1
tp116
a((F235.50277709960938
F181.92195129394531
tF19
F272.07171630859375
F8300.9619140625
I0
I1
tp117
a((F251.71730041503906
F803.0830078125
tF31
F34.592170715332031
F8281.59765625
I1
I-1
tp118
a((F165.85420227050781
F221.11138916015625
tF39
F192.88871765136719
F8256.6259765625
I1
I1
tp119
a((F102.21815490722656
F570.7080078125
tF31
F132.071044921875
F8252.2744140625
I1
I-1
tp120
a((F169.97047424316406
F709.0277099609375
tF46
F207.83270263671875
F8228.8095703125
I1
I1
tp121
a((F189.57188415527344
F848.10693359375
tF23
F53.740898132324219
F8169.0185546875
I0
I1
tp122
a((F246.83981323242188
F562.51141357421875
tF22
F349.201416015625
F8125.3623046875
I0
I1
tp123
a((F122.82543182373047
F232.99476623535156
tF123
F176.70291137695312
F8086.7158203125
I3
I-1
tp124
a((F171.56962585449219
F453.80010986328125
tF29
F11.970822334289551
F7979.3056640625
I1
I1
tp125
a((F207.81756591796875
F75.538978576660156
tF91
F300.67218017578125
F7966.6376953125
I2
I-1
tp126
a((F294.6103515625
F394.303466796875
tF30
F140.26896667480469
F7867.7119140625
I1
I-1
tp127
a((F153.38507080078125
F263.581787109375
tF65
F179.83172607421875
F7829.42822265625
I2
I1
tp128
a((F216.42521667480469
F271.77700805664062
tF59
F309.40072631835938
F7641.4873046875
I2
I-1
tp129
a((F104.565185546875
F690.7628173828125
tF31
F130.74813842773438
F7503.408203125
I1
I-1
tp130
a((F153.94284057617188
F208.09620666503906
tF15
F98.875877380371094
F7379.2998046875
I0
I-1
tp131
a((F351.72201538085938
F453.1878662109375
tF126
F334.04843139648438
F7315.85986328125
I3
I-1
tp132
a((F106.86830139160156
F572.95782470703125
tF45
F323.79812622070312
F7314.79296875
I1
I-1
tp133
a((F258.28237915039062
F717.72027587890625
tF91
F341.42453002929688
F7222.57470703125
I2
I-1
tp134
a((F215.13114929199219
F376.1533203125
tF127
F295.42010498046875
F7205.1884765625
I3
I-1
tp135
a((F160.16215515136719
F739.46771240234375
tF18
F331.85690307617188
F7149.234375
I0
I-1
tp136
a((F121.97349548339844
F136.31196594238281
tF126
F240.15093994140625
F7147.91943359375
I3
I-1
tp137
a((F149.65098571777344
F588.43731689453125
tF31
F337.47109985351562
F7122.0458984375
I1
I-1
tp138
a((F109.01340484619141
F692.90704345703125
tF45
F318.80099487304688
F7094.2763671875
I1
I-1
tp139
a((F172.58198547363281
F739.37701416015625
tF140
F142.14729309082031
F7080.3984375
I3
I1
tp140
a((F196.20669555664062
F308.7210693359375
tF22
F299.71475219726562
F7059.068359375
I0
I-1
tp141
a((F196.27217102050781
F307.5557861328125
tF40
F304.80181884765625
F7042.13134765625
I1
I-1
tp142
a((F231.50930786132812
F173.86563110351562
tF16
F116.95133209228516
F6968.81494140625
I0
I-1
tp143
a((F155.20718383789062
F619.9146728515625
tF27
F331.51791381835938
F6908.57568359375
I1
I-1
tp144
a((F165.01268005371094
F625.1734619140625
tF136
F137.48997497558594
F6905.42578125
I3
I1
tp145
a((F222.84075927734375
F592.8204345703125
tF15
F188.43154907226562
F6896.25
I0
I-1
tp146
a((F221.30068969726562
F591.0406494140625
tF15
F187.86314392089844
F6504.537109375
I0
I-1
tp147
a((F108.28467559814453
F577.64483642578125
tF57
F325.29458618164062
F6227.56982421875
I2
I-1
tp148
a((F268.814208984375
F718.43658447265625
tF125
F9.9650754928588867
F6132.2255859375
I3
I-1
tp149
a((F284.3941650390625
F171.40155029296875
tF90
F331.0479736328125
F5990.02099609375
I2
I1
tp150
a((F273.81735229492188
F186.59178161621094
tF176
F334.70437622070312
F5941.59033203125
I3
I1
tp151
a((F301.54049682617188
F898.20098876953125
tF115
F24.582296371459961
F5828.5673828125
I3
I-1
tp152
a((F100.73188781738281
F694.42120361328125
tF31
F328.7271728515625
F5782.560546875
I1
I-1
tp153
a((F98.439132690429688
F574.09881591796875
tF31
F328.01318359375
F5694.8505859375
I1
I-1
tp154
a((F204.07286071777344
F397.46954345703125
tF23
F301.48764038085938
F5643.11669921875
I0
I-1
tp155
a((F234.02027893066406
F545.50555419921875
tF14
F277.76837158203125
F5542.59326171875
I0
I-1
tp156
a((F204.48347473144531
F395.61529541015625
tF34
F303.797607421875
F5505.84912109375
I1
I-1
tp157
a((F171.91950988769531
F216.00936889648438
tF20
F334.87185668945312
F5322.712890625
I0
I1
tp158
a((F105.70362091064453
F701.33367919921875
tF55
F142.03981018066406
F5317.79833984375
I2
I-1
tp159
a((F224.17279052734375
F876.66387939453125
tF14
F273.35595703125
F5281.298828125
I0
I-1
tp160
a((F292.799072265625
F389.70529174804688
tF43
F304.25445556640625
F5200.42724609375
I1
I-1
tp161
a((F246.16357421875
F318.22280883789062
tF30
F293.4814453125
F5103.3134765625
I1
I-1
tp162
a((F254.122314453125
F191.00785827636719
tF21
F321.0001220703125
F5005.0380859375
I0
I1
tp163
a.