(lp1
((F123.98798370361328
F214.89442443847656
tF2.1008310317993164
F1.97021484375
F0.066087864339351654
I11338239
I-1
tp2
a((F123.98798370361328
F214.89442443847656
tF2.1008310317993164
F108.47007751464844
F0.066087864339351654
I11338239
I-1
tp3
a((F238.26429748535156
F551.4918212890625
tF2.2045505046844482
F294.77850341796875
F0.041117426007986069
I14811647
I-1
tp4
a((F224.32928466796875
F599.30517578125
tF2.1896600723266602
F316.05999755859375
F0.067421935498714447
I14352895
I-1
tp5
a((F224.32928466796875
F599.30517578125
tF2.1896600723266602
F182.08279418945312
F0.067421935498714447
I14352895
I-1
tp6
a((F165.4246826171875
F627.76727294921875
tF1.9269653558731079
F297.93621826171875
F0.070261098444461823
I5112319
I-1
tp7
a((F165.4246826171875
F627.76727294921875
tF1.9269653558731079
F152.19956970214844
F0.070261098444461823
I5112319
I-1
tp8
a((F178.29226684570312
F814.84527587890625
tF2.047391414642334
F277.17431640625
F0.066777437925338745
I9503231
I-1
tp9
a((F178.29226684570312
F814.84527587890625
tF2.047391414642334
F146.10322570800781
F0.066777437925338745
I9503231
I-1
tp10
a((F198.08413696289062
F840.69976806640625
tF2.0962331295013428
F134.15292358398438
F0.069500669836997986
I11207167
I-1
tp11
a((F198.08413696289062
F840.69976806640625
tF2.0962331295013428
F13.159942626953125
F0.069500669836997986
I11207167
I-1
tp12
a((F241.59147644042969
F213.08926391601562
tF2.644923210144043
F142.55903625488281
F0.060220997780561447
I11272959
I-1
tp13
a((F241.59147644042969
F213.08926391601562
tF2.644923210144043
F65.768310546875
F0.060220997780561447
I11272959
I-1
tp14
a((F163.46632385253906
F314.09500122070312
tF2.7275445461273193
F230.08232116699219
F0.062656119465827942
I13501183
I-1
tp15
a((F163.46632385253906
F314.09500122070312
tF2.7275445461273193
F144.65121459960938
F0.062656119465827942
I13501183
I-1
tp16
a((F248.83047485351562
F673.20367431640625
tF2.6751658916473389
F323.278564453125
F0.064376644790172577
I12124927
I-1
tp17
a((F248.83047485351562
F673.20367431640625
tF2.6751658916473389
F91.680419921875
F0.064376644790172577
I12124927
I-1
tp18
a((F198.2860107421875
F841.3248291015625
tF2.5477440357208252
F135.60202026367188
F0.068290136754512787
I8585983
I-1
tp19
a((F198.2860107421875
F841.3248291015625
tF2.5477440357208252
F17.150604248046875
F0.068290136754512787
I8585983
I-1
tp20
a((F165.191162109375
F399.5616455078125
tF3.5677628517150879
F247.49398803710938
F0.064788416028022766
I16253951
I-1
tp21
a((F165.191162109375
F399.5616455078125
tF3.5677628517150879
F148.49343872070312
F0.064788416028022766
I16253951
I-1
tp22
a((F249.43367004394531
F673.5521240234375
tF3.0633387565612793
F327.083251953125
F0.063803695142269135
I5178367
I-1
tp23
a((F235.79458618164062
F179.7381591796875
tF3.6834225654602051
F288.03134155273438
F0.048600587993860245
I1835264
I-1
tp24
a((F235.79458618164062
F179.7381591796875
tF3.6834225654602051
F261.001953125
F0.048600587993860245
I1835264
I-1
tp25
a((F153.793701171875
F232.66545104980469
tF4.4658317565917969
F225.79466247558594
F0.054012224078178406
I15728896
I-1
tp26
a((F153.793701171875
F232.66545104980469
tF4.4658317565917969
F173.88702392578125
F0.054012224078178406
I15728896
I-1
tp27
a((F222.59689331054688
F594.867919921875
tF4.9591693878173828
F307.87313842773438
F0.068047367036342621
I6619648
I-1
tp28
a((F222.59689331054688
F594.867919921875
tF4.9591693878173828
F190.8404541015625
F0.068047367036342621
I6619648
I-1
tp29
a((F174.68830871582031
F812.65728759765625
tF4.6153826713562012
F266.31137084960938
F0.067714162170886993
I1442304
I-1
tp30
a((F174.68830871582031
F812.65728759765625
tF4.6153826713562012
F149.43864440917969
F0.067714162170886993
I1442304
I-1
tp31
a((F198.85455322265625
F843.23333740234375
tF3.9141452312469482
F132.71792602539062
F0.066697224974632263
I6226176
I-1
tp32
a((F198.85455322265625
F843.23333740234375
tF3.9141452312469482
F24.5421142578125
F0.066697224974632263
I6226176
I-1
tp33
a((F241.15205383300781
F215.20751953125
tF4.9839611053466797
F141.3795166015625
F0.058111168444156647
I7012864
I-1
tp34
a((F241.15205383300781
F215.20751953125
tF4.9839611053466797
F74.077362060546875
F0.058111168444156647
I7012864
I-1
tp35
a((F176.12690734863281
F274.44448852539062
tF6.9479384422302246
F137.44998168945312
F0.078707858920097351
I14287616
I-1
tp36
a((F163.58273315429688
F399.02713012695312
tF5.1497588157653809
F152.37838745117188
F0.064162544906139374
I9372160
I-1
tp37
a((F234.58731079101562
F658.207763671875
tF7.0618247985839844
F293.845703125
F0.071870617568492889
I15467264
I-1
tp38
a((F234.58731079101562
F658.207763671875
tF7.0618247985839844
F152.32618713378906
F0.071870617568492889
I15467264
I-1
tp39
a((F161.87112426757812
F738.756591796875
tF4.9070467948913574
F153.69320678710938
F0.080183573067188263
I5833216
I-1
tp40
a((F131.36285400390625
F210.15925598144531
tF6.4544816017150879
F53.538482666015625
F0.047475248575210571
I8979200
I-1
tp41
a((F162.74156188964844
F398.7801513671875
tF5.9078893661499023
F238.98719787597656
F0.063632257282733917
I2556672
I-1
tp42
a((F162.74156188964844
F398.7801513671875
tF5.9078893661499023
F153.26007080078125
F0.063632257282733917
I2556672
I-1
tp43
a((F221.90798950195312
F593.0465087890625
tF6.3205709457397461
F307.78411865234375
F0.06741052120923996
I7471872
I-1
tp44
a((F221.90798950195312
F593.0465087890625
tF6.3205709457397461
F192.23052978515625
F0.06741052120923996
I7471872
I-1
tp45
a((F179.29789733886719
F683.76220703125
tF6.76031494140625
F327.04080200195312
F0.074205532670021057
I12321536
I-1
tp46
a((F179.29789733886719
F683.76220703125
tF6.76031494140625
F110.71699523925781
F0.074205532670021057
I12321536
I-1
tp47
a((F275.34603881835938
F834.57843017578125
tF6.527010440826416
F292.16400146484375
F0.057604700326919556
I9765632
I-1
tp48
a((F275.34603881835938
F834.57843017578125
tF6.527010440826416
F235.35125732421875
F0.057604700326919556
I9765632
I-1
tp49
a((F189.62655639648438
F848.64105224609375
tF6.2579345703125
F47.6748046875
F0.047956213355064392
I6750976
I-1
tp50
a((F240.3447265625
F218.22187805175781
tF8.5497961044311523
F142.44427490234375
F0.056098751723766327
I12583169
I-1
tp51
a((F240.3447265625
F218.22187805175781
tF8.5497961044311523
F82.41986083984375
F0.056098751723766327
I12583169
I-1
tp52
a((F176.61306762695312
F275.24240112304688
tF7.314849853515625
F346.35665893554688
F0.0781821608543396
I1310977
I-1
tp53
a((F176.61306762695312
F275.24240112304688
tF7.314849853515625
F133.68118286132812
F0.0781821608543396
I1310977
I-1
tp54
a((F222.41445922851562
F277.13018798828125
tF9.6697149276733398
F296.91342163085938
F0.083352044224739075
I4784641
I-1
tp55
a((F305.08474731445312
F489.517578125
tF9.1291799545288086
F288.21722412109375
F0.076841644942760468
I590337
I-1
tp56
a((F305.08474731445312
F489.517578125
tF9.1291799545288086
F143.22909545898438
F0.076841644942760468
I590337
I-1
tp57
a((F178.18740844726562
F683.13739013671875
tF7.2871866226196289
F334.24722290039062
F0.074085459113121033
I1048833
I-1
tp58
a((F178.18740844726562
F683.13739013671875
tF7.2871866226196289
F116.57254028320312
F0.074085459113121033
I1048833
I-1
tp59
a((F141.34159851074219
F768.72271728515625
tF10.39967155456543
F137.35067749023438
F0.042323272675275803
I10027521
I-1
tp60
a((F169.92945861816406
F810.10711669921875
tF8.6034164428710938
F255.42901611328125
F0.065231978893280029
I13041921
I-1
tp61
a((F169.92945861816406
F810.10711669921875
tF8.6034164428710938
F148.24826049804688
F0.065231978893280029
I13041921
I-1
tp62
a((F264.1641845703125
F838.973876953125
tF8.3843774795532227
F284.79815673828125
F0.076169997453689575
I11206913
I-1
tp63
a((F241.10623168945312
F914.0987548828125
tF8.7092313766479492
F164.37574768066406
F0.060163818299770355
I13959425
I-1
tp64
a((F241.10623168945312
F914.0987548828125
tF8.7092313766479492
F97.037017822265625
F0.060163818299770355
I13959425
I-1
tp65
a((F267.20315551757812
F153.37356567382812
tF10.174452781677246
F295.36117553710938
F0.078787811100482941
I8454657
I-1
tp66
a((F267.20315551757812
F153.37356567382812
tF10.174452781677246
F143.24943542480469
F0.078787811100482941
I8454657
I-1
tp67
a((F291.61233520507812
F395.06094360351562
tF10.189051628112793
F293.1724853515625
F0.080650210380554199
I8585729
I-1
tp68
a((F291.61233520507812
F395.06094360351562
tF10.189051628112793
F141.64096069335938
F0.080650210380554199
I8585729
I-1
tp69
a((F102.19727325439453
F574.4078369140625
tF10.19704532623291
F326.97244262695312
F0.083368971943855286
I8651265
I-1
tp70
a((F102.19727325439453
F574.4078369140625
tF10.19704532623291
F130.9429931640625
F0.083368971943855286
I8651265
I-1
tp71
a((F104.48954010009766
F694.4383544921875
tF9.9133644104003906
F323.7022705078125
F0.083917379379272461
I6554113
I-1
tp72
a((F104.48954010009766
F694.4383544921875
tF9.9133644104003906
F130.05966186523438
F0.083917379379272461
I6554113
I-1
tp73
a((F255.47706604003906
F785.24505615234375
tF13.094012260437012
F359.09561157226562
F0.068619772791862488
I10027777
I-1
tp74
a((F188.51460266113281
F220.10905456542969
tF13.965741157531738
F97.3572998046875
F0.083381637930870056
I14680833
I-1
tp75
a((F164.99607849121094
F221.73806762695312
tF13.774680137634277
F188.22648620605469
F0.052923254668712616
I13632257
I-1
tp76
a((F198.55332946777344
F303.52774047851562
tF14.029263496398926
F128.86564636230469
F0.079595007002353668
I15008513
I-1
tp77
a((F250.78390502929688
F658.4600830078125
tF13.142712593078613
F349.79904174804688
F0.06117161363363266
I10289921
I-1
tp78
a((F194.08790588378906
F687.34857177734375
tF13.762303352355957
F290.0244140625
F0.075780369341373444
I13632257
I-1
tp79
a((F194.08790588378906
F687.34857177734375
tF13.762303352355957
F119.90449523925781
F0.075780369341373444
I13632257
I-1
tp80
a((F168.43476867675781
F707.666015625
tF12.09076976776123
F220.08085632324219
F0.047622624784708023
I4260609
I-1
tp81
a((F326.57479858398438
F214.0562744140625
tF17.432140350341797
F334.47720336914062
F0.080826498568058014
I13959426
I-1
tp82
a((F326.57479858398438
F214.0562744140625
tF17.432140350341797
F115.14224243164062
F0.080826498568058014
I13959426
I-1
tp83
a((F216.91360473632812
F580.91339111328125
tF15.388236999511719
F298.47805786132812
F0.088456042110919952
I4980994
I-1
tp84
a((F216.91360473632812
F580.91339111328125
tF15.388236999511719
F112.80061340332031
F0.088456042110919952
I4980994
I-1
tp85
a((F231.08184814453125
F617.70404052734375
tF24.997152328491211
F351.96353149414062
F0.059407331049442291
I6619906
I-1
tp86
a((F243.82492065429688
F691.27569580078125
tF16.435888290405273
F359.95965576171875
F0.069846853613853455
I9699586
I-1
tp87
a((F209.03514099121094
F751.102783203125
tF17.558883666992188
F318.22564697265625
F0.087056592106819153
I14483714
I-1
tp88
a((F138.5662841796875
F772.13818359375
tF17.232946395874023
F138.18109130859375
F0.041992317885160446
I13172994
I-1
tp89
a((F230.97918701171875
F799.03857421875
tF16.614339828491211
F101.21331787109375
F0.064596571028232574
I10486018
I-1
tp90
a((F230.97918701171875
F799.03857421875
tF16.614339828491211
F58.173095703125
F0.064596571028232574
I10486018
I-1
tp91
a((F142.92167663574219
F217.63232421875
tF19.73710823059082
F90.68133544921875
F0.066741771996021271
I6226434
I-1
tp92
a((F244.19438171386719
F291.42822265625
tF21.971525192260742
F8.621063232421875
F0.067972853779792786
I14025218
I-1
tp93
a((F195.76109313964844
F368.70639038085938
tF19.644876480102539
F126.96200561523438
F0.080964371562004089
I5898754
I-1
tp94
a((F196.47270202636719
F454.83154296875
tF22.217487335205078
F293.07785034179688
F0.088752530515193939
I14811650
I-1
tp95
a((F196.47270202636719
F454.83154296875
tF22.217487335205078
F129.41998291015625
F0.088752530515193939
I14811650
I-1
tp96
a((F200.86222839355469
F524.3785400390625
tF20.198301315307617
F118.31497192382812
F0.088051788508892059
I7930370
I-1
tp97
a((F238.07342529296875
F568.708740234375
tF18.451997756958008
F6.15570068359375
F0.061900481581687927
I1376770
I-1
tp98
a((F206.53814697265625
F635.32958984375
tF18.777929306030273
F311.771728515625
F0.085890486836433411
I2621954
I-1
tp99
a((F206.53814697265625
F635.32958984375
tF18.777929306030273
F128.15420532226562
F0.085890486836433411
I2621954
I-1
tp100
a((F153.06741333007812
F692.17327880859375
tF21.634246826171875
F319.53982543945312
F0.074592232704162598
I12911106
I-1
tp101
a((F200.31532287597656
F860.76239013671875
tF19.054386138916016
F314.12335205078125
F0.093637079000473022
I3736066
I-1
tp102
a((F262.0091552734375
F916.48486328125
tF20.661724090576172
F346.423095703125
F0.081296592950820923
I9568770
I-1
tp103
a((F262.0091552734375
F916.48486328125
tF20.661724090576172
F128.02925109863281
F0.081296592950820923
I9568770
I-1
tp104
a((F245.36346435546875
F96.131462097167969
tF26.592184066772461
F312.68792724609375
F0.078304179012775421
I11076354
I-1
tp105
a((F234.8206787109375
F230.27447509765625
tF23.11585807800293
F309.88479614257812
F0.078018270432949066
I983810
I-1
tp106
a((F217.17147827148438
F341.77960205078125
tF28.542795181274414
F300.16281127929688
F0.04310990497469902
I16253698
I-1
tp107
a((F217.17147827148438
F341.77960205078125
tF28.542795181274414
F115.89068603515625
F0.04310990497469902
I16253698
I-1
tp108
a((F318.00869750976562
F414.4610595703125
tF28.612146377563477
F331.67745971679688
F0.072520904242992401
I16384770
I-1
tp109
a((F221.64920043945312
F429.75543212890625
tF27.63262939453125
F290.82138061523438
F0.049651127308607101
I13894402
I-1
tp110
a((F161.71029663085938
F431.83416748046875
tF28.289632797241211
F201.71217346191406
F0.067629098892211914
I15598338
I-1
tp111
a((F161.71029663085938
F431.83416748046875
tF28.289632797241211
F164.80206298828125
F0.067629098892211914
I15598338
I-1
tp112
a((F180.93446350097656
F595.70849609375
tF25.283744812011719
F239.55386352539062
F0.055000625550746918
I7471874
I-1
tp113
a((F125.88043212890625
F613.677490234375
tF26.943933486938477
F135.98196411132812
F0.054898850619792938
I12059394
I-1
tp114
a((F130.125732421875
F733.04412841796875
tF28.120580673217773
F131.72799682617188
F0.052750758826732635
I15139586
I-1
tp115
a((F241.77973937988281
F827.88397216796875
tF27.84002685546875
F322.193603515625
F0.05932379886507988
I14418690
I-1
tp116
a((F241.77973937988281
F827.88397216796875
tF27.84002685546875
F54.264373779296875
F0.05932379886507988
I14418690
I-1
tp117
a((F162.16911315917969
F97.5135498046875
tF35.123683929443359
F298.41949462890625
F0.087189309298992157
I14549251
I-1
tp118
a((F162.16911315917969
F97.5135498046875
tF35.123683929443359
F143.05860900878906
F0.087189309298992157
I14549251
I-1
tp119
a((F135.27244567871094
F183.09794616699219
tF31.784887313842773
F236.03887939453125
F0.077255755662918091
I7274755
I-1
tp120
a((F135.27244567871094
F183.09794616699219
tF31.784887313842773
F121.72467041015625
F0.077255755662918091
I7274755
I-1
tp121
a((F167.41322326660156
F255.15859985351562
tF34.832874298095703
F182.70614624023438
F0.057460732758045197
I13893891
I-1
tp122
a((F220.35929870605469
F342.9029541015625
tF30.492986679077148
F318.13726806640625
F0.041835524141788483
I4325635
I-1
tp123
a((F330.09271240234375
F509.80746459960938
tF36.402076721191406
F329.123046875
F0.084946058690547943
I393731
I-1
tp124
a((F330.09271240234375
F509.80746459960938
tF36.402076721191406
F105.86045837402344
F0.084946058690547943
I393731
I-1
tp125
a((F86.700042724609375
F554.5635986328125
tF31.699888229370117
F301.07891845703125
F0.083302929997444153
I7078147
I-1
tp126
a((F86.700042724609375
F554.5635986328125
tF31.699888229370117
F151.21868896484375
F0.083302929997444153
I7078147
I-1
tp127
a((F154.35324096679688
F564.27294921875
tF30.779996871948242
F315.05511474609375
F0.070933893322944641
I4980995
I-1
tp128
a((F154.35324096679688
F564.27294921875
tF30.779996871948242
F141.98513793945312
F0.070933893322944641
I4980995
I-1
tp129
a((F167.151611328125
F649.3033447265625
tF31.243066787719727
F137.90127563476562
F0.048125110566616058
I6029571
I-1
tp130
a((F86.690467834472656
F677.073974609375
tF30.801116943359375
F145.54928588867188
F0.079921804368495941
I5046531
I-1
tp131
a((F129.13124084472656
F731.53369140625
tF29.511594772338867
F133.42257690429688
F0.051498923450708389
I1900803
I-1
tp132
a((F175.00276184082031
F769.66070556640625
tF32.943336486816406
F143.00004577636719
F0.047279495745897293
I9896195
I-1
tp133
a((F163.17268371582031
F849.56207275390625
tF33.089412689208984
F200.45321655273438
F0.066243767738342285
I10223875
I-1
tp134
a((F163.17268371582031
F849.56207275390625
tF33.089412689208984
F172.02920532226562
F0.066243767738342285
I10223875
I-1
tp135
a((F345.57351684570312
F303.71832275390625
tF37.251018524169922
F317.63653564453125
F0.087402366101741791
I2032131
I-1
tp136
a((F345.57351684570312
F303.71832275390625
tF37.251018524169922
F122.20619201660156
F0.087402366101741791
I2032131
I-1
tp137
a((F280.72537231445312
F312.41650390625
tF38.914325714111328
F317.10400390625
F0.068388611078262329
I5243395
I-1
tp138
a((F280.72537231445312
F312.41650390625
tF38.914325714111328
F128.64846801757812
F0.068388611078262329
I5243395
I-1
tp139
a((F168.58682250976562
F746.1656494140625
tF54.176128387451172
F142.79197692871094
F0.047055624425411224
I12452611
I-1
tp140
a((F217.94012451171875
F173.96456909179688
tF130.3614501953125
F182.54173278808594
F0.059719376266002655
I9109765
I-1
tp141
a((F174.19853210449219
F692.51910400390625
tF136.77505493164062
F1.2222900390625
F0.052000906318426132
I12583173
I-1
tp142
a((F174.19853210449219
F692.51910400390625
tF136.77505493164062
F157.34133911132812
F0.052000906318426132
I12583173
I-1
tp143
a.