(lp1
((F784.6055908203125
F123.98799896240234
tF2.1008155345916748
F198.47003173828125
F0.066087894141674042
I11338239
I-1
tp2
a((F784.6055908203125
F123.98799896240234
tF2.1008155345916748
F91.97021484375
F0.066087894141674042
I11338239
I-1
tp3
a((F371.73275756835938
F165.42466735839844
tF1.9269615411758423
F242.1995849609375
F0.070261061191558838
I5112319
I-1
tp4
a((F371.73275756835938
F165.42466735839844
tF1.9269615411758423
F27.93621826171875
F0.070261061191558838
I5112319
I-1
tp5
a((F184.65472412109375
F178.29229736328125
tF2.0473654270172119
F236.10330200195312
F0.066777430474758148
I9503231
I-1
tp6
a((F184.65472412109375
F178.29229736328125
tF2.0473654270172119
F7.17425537109375
F0.066777430474758148
I9503231
I-1
tp7
a((F158.80021667480469
F198.08413696289062
tF2.0962328910827637
F224.15292358398438
F0.069500565528869629
I11207167
I-1
tp8
a((F158.80021667480469
F198.08413696289062
tF2.0962328910827637
F103.159912109375
F0.069500565528869629
I11207167
I-1
tp9
a((F400.19479370117188
F224.32929992675781
tF2.1896398067474365
F272.08282470703125
F0.067421950399875641
I14352895
I-1
tp10
a((F400.19479370117188
F224.32929992675781
tF2.1896398067474365
F46.0599365234375
F0.067421950399875641
I14352895
I-1
tp11
a((F448.0081787109375
F238.26431274414062
tF2.2045419216156006
F24.77850341796875
F0.041117426007986069
I14811647
I-1
tp12
a((F685.405029296875
F163.46630859375
tF2.7275674343109131
F320.08236694335938
F0.0626559779047966
I13501183
I-1
tp13
a((F685.405029296875
F163.46630859375
tF2.7275674343109131
F234.65116882324219
F0.0626559779047966
I13501183
I-1
tp14
a((F158.17536926269531
F198.28593444824219
tF2.5476386547088623
F225.60176086425781
F0.068290151655673981
I8585983
I-1
tp15
a((F158.17536926269531
F198.28593444824219
tF2.5476386547088623
F107.150634765625
F0.068290151655673981
I8585983
I-1
tp16
a((F786.41070556640625
F241.59147644042969
tF2.6449246406555176
F232.55905151367188
F0.060220949351787567
I11272959
I-1
tp17
a((F786.41070556640625
F241.59147644042969
tF2.6449246406555176
F155.76829528808594
F0.060220949351787567
I11272959
I-1
tp18
a((F326.29635620117188
F248.83045959472656
tF2.6751711368560791
F181.680419921875
F0.064376600086688995
I12124927
I-1
tp19
a((F326.29635620117188
F248.83045959472656
tF2.6751711368560791
F53.278564453125
F0.064376600086688995
I12124927
I-1
tp20
a((F599.93829345703125
F165.19126892089844
tF3.5676791667938232
F337.49392700195312
F0.064788319170475006
I16253951
I-1
tp21
a((F599.93829345703125
F165.19126892089844
tF3.5676791667938232
F238.49348449707031
F0.064788319170475006
I16253951
I-1
tp22
a((F325.94784545898438
F249.43374633789062
tF3.0633876323699951
F57.08319091796875
F0.063803762197494507
I5178367
I-1
tp23
a((F786.30401611328125
F122.67247009277344
tF3.9692790508270264
F204.12638854980469
F0.064565710723400116
I7209216
I-1
tp24
a((F786.30401611328125
F122.67247009277344
tF3.9692790508270264
F115.17166137695312
F0.064565710723400116
I7209216
I-1
tp25
a((F766.95770263671875
F153.6116943359375
tF4.5667972564697266
F309.7479248046875
F0.053651858121156693
I655872
I-1
tp26
a((F766.95770263671875
F153.6116943359375
tF4.5667972564697266
F264.80880737304688
F0.053651858121156693
I655872
I-1
tp27
a((F685.6473388671875
F162.00335693359375
tF4.3110208511352539
F316.61627197265625
F0.061218809336423874
I13172992
I-1
tp28
a((F685.6473388671875
F162.00335693359375
tF4.3110208511352539
F238.6552734375
F0.061218809336423874
I13172992
I-1
tp29
a((F600.14105224609375
F164.59217834472656
tF4.1333861351013184
F335.29629516601562
F0.064790196716785431
I10158336
I-1
tp30
a((F600.14105224609375
F164.59217834472656
tF4.1333861351013184
F241.65812683105469
F0.064790196716785431
I10158336
I-1
tp31
a((F186.35882568359375
F175.51832580566406
tF4.0174918174743652
F358.2977294921875
F0.068186983466148376
I8126720
I-1
tp32
a((F186.35882568359375
F175.51832580566406
tF4.0174918174743652
F237.51902770996094
F0.068186983466148376
I8126720
I-1
tp33
a((F155.98626708984375
F198.92683410644531
tF4.1467938423156738
F224.98234558105469
F0.066589720547199249
I10420480
I-1
tp34
a((F155.98626708984375
F198.92683410644531
tF4.1467938423156738
F114.268310546875
F0.066589720547199249
I10420480
I-1
tp35
a((F601.4820556640625
F204.24554443359375
tF4.8060989379882812
F32.709320068359375
F0.045748163014650345
I4325888
I-1
tp36
a((F784.921875
F241.30145263671875
tF4.2877597808837891
F161.71377563476562
F0.058697476983070374
I12779776
I-1
tp37
a((F260.759033203125
F161.84909057617188
tF4.9194827079772949
F243.52784729003906
F0.080015517771244049
I6029824
I-1
tp38
a((F187.2069091796875
F174.00015258789062
tF5.256981372833252
F355.38351440429688
F0.067304141819477081
I10813952
I-1
tp39
a((F187.2069091796875
F174.00015258789062
tF5.256981372833252
F237.55754089355469
F0.067304141819477081
I10813952
I-1
tp40
a((F725.21875
F176.06295776367188
tF6.853367805480957
F227.42864990234375
F0.078650496900081635
I13304576
I-1
tp41
a((F725.21875
F176.06295776367188
tF6.853367805480957
F77.593841552734375
F0.078650496900081635
I13304576
I-1
tp42
a((F380.12457275390625
F157.71736145019531
tF6.8974885940551758
F250.82411193847656
F0.079931393265724182
I13763328
I-1
tp43
a((F600.90032958984375
F162.18040466308594
tF6.565946102142334
F329.43389892578125
F0.063367538154125214
I10224384
I-1
tp44
a((F600.90032958984375
F162.18040466308594
tF6.565946102142334
F242.66929626464844
F0.063367538154125214
I10224384
I-1
tp45
a((F315.63351440429688
F179.36416625976562
tF6.7113947868347168
F201.25555419921875
F0.074089318513870239
I11797248
I-1
tp46
a((F315.63351440429688
F179.36416625976562
tF6.7113947868347168
F57.9566650390625
F0.074089318513870239
I11797248
I-1
tp47
a((F140.91162109375
F185.18246459960938
tF6.537233829498291
F151.12875366210938
F0.069063887000083923
I9896704
I-1
tp48
a((F140.91162109375
F185.18246459960938
tF6.537233829498291
F49.60821533203125
F0.069063887000083923
I9896704
I-1
tp49
a((F150.973876953125
F189.6124267578125
tF6.4336442947387695
F136.448486328125
F0.047856025397777557
I8717056
I-1
tp50
a((F406.26773071289062
F221.98036193847656
tF6.1621060371398926
F282.15911865234375
F0.067456439137458801
I5636864
I-1
tp51
a((F406.26773071289062
F221.98036193847656
tF6.1621060371398926
F37.796478271484375
F0.067456439137458801
I5636864
I-1
tp52
a((F165.07456970214844
F275.41012573242188
tF6.7004404067993164
F325.07119750976562
F0.057626344263553619
I11666176
I-1
tp53
a((F165.07456970214844
F275.41012573242188
tF6.7004404067993164
F22.806365966796875
F0.057626344263553619
I11666176
I-1
tp54
a((F353.48342895507812
F131.51924133300781
tF8.8568611145019531
F228.28724670410156
F0.042899567633867264
I15139073
I-1
tp55
a((F231.16856384277344
F141.60722351074219
tF9.3284358978271484
F227.06712341308594
F0.04241035133600235
I2163201
I-1
tp56
a((F601.54888916015625
F160.32444763183594
tF8.4704580307006836
F326.8892822265625
F0.06208508089184761
I11927809
I-1
tp57
a((F601.54888916015625
F160.32444763183594
tF8.4704580307006836
F242.67556762695312
F0.06208508089184761
I11927809
I-1
tp58
a((F140.38296508789062
F186.3758544921875
tF7.5606913566589355
F143.14268493652344
F0.067820221185684204
I3670273
I-1
tp59
a((F140.38296508789062
F186.3758544921875
tF7.5606913566589355
F49.089080810546875
F0.067820221185684204
I3670273
I-1
tp60
a((F781.611083984375
F240.39364624023438
tF8.1601171493530273
F172.76176452636719
F0.056166008114814758
I9240833
I-1
tp61
a((F85.550735473632812
F241.21937561035156
tF8.458287239074707
F253.67745971679688
F0.060298454016447067
I11796737
I-1
tp62
a((F85.550735473632812
F241.21937561035156
tF8.458287239074707
F187.98861694335938
F0.060298454016447067
I11796737
I-1
tp63
a((F160.08363342285156
F264.37692260742188
tF8.7544183731079102
F252.48426818847656
F0.075932219624519348
I14287105
I-1
tp64
a((F160.08363342285156
F264.37692260742188
tF8.7544183731079102
F14.63104248046875
F0.075932219624519348
I14287105
I-1
tp65
a((F165.60516357421875
F275.36148071289062
tF7.2203278541564941
F327.08590698242188
F0.056850779801607132
I393473
I-1
tp66
a((F165.60516357421875
F275.36148071289062
tF7.2203278541564941
F15.236663818359375
F0.056850779801607132
I393473
I-1
tp67
a((F508.51992797851562
F307.14968872070312
tF7.8975305557250977
F236.1566162109375
F0.076922692358493805
I6881537
I-1
tp68
a((F508.51992797851562
F307.14968872070312
tF7.8975305557250977
F16.5120849609375
F0.076922692358493805
I6881537
I-1
tp69
a((F425.25848388671875
F102.03772735595703
tF10.069683074951172
F220.548583984375
F0.083374574780464172
I7733761
I-1
tp70
a((F425.25848388671875
F102.03772735595703
tF10.069683074951172
F57.4425048828125
F0.083374574780464172
I7733761
I-1
tp71
a((F305.197265625
F104.34046936035156
tF9.8075122833251953
F220.22219848632812
F0.08390643447637558
I5833217
I-1
tp72
a((F305.197265625
F104.34046936035156
tF9.8075122833251953
F54.525726318359375
F0.08390643447637558
I5833217
I-1
tp73
a((F189.93641662597656
F168.92832946777344
tF9.5480794906616211
F339.31600952148438
F0.064241215586662292
I3867137
I-1
tp74
a((F189.93641662597656
F168.92832946777344
tF9.5480794906616211
F241.60191345214844
F0.064241215586662292
I3867137
I-1
tp75
a((F722.51708984375
F222.10531616210938
tF9.9046688079833984
F220.41932678222656
F0.083320610225200653
I6488577
I-1
tp76
a((F722.51708984375
F222.10531616210938
tF9.9046688079833984
F28.17626953125
F0.083320610225200653
I6488577
I-1
tp77
a((F214.38381958007812
F255.44927978515625
tF13.155474662780762
F88.9842529296875
F0.068578928709030151
I10355457
I-1
tp78
a((F846.2703857421875
F267.03988647460938
tF10.251982688903809
F233.51239013671875
F0.078795790672302246
I9044481
I-1
tp79
a((F846.2703857421875
F267.03988647460938
tF10.251982688903809
F26.03173828125
F0.078795790672302246
I9044481
I-1
tp80
a((F604.60968017578125
F291.39151000976562
tF10.362649917602539
F231.2685546875
F0.080707594752311707
I9765377
I-1
tp81
a((F604.60968017578125
F291.39151000976562
tF10.362649917602539
F23.580322265625
F0.080707594752311707
I9765377
I-1
tp82
a((F777.7803955078125
F164.92996215820312
tF13.723388671875
F277.72381591796875
F0.052945580333471298
I13370113
I-1
tp83
a((F291.89273071289062
F168.44430541992188
tF12.021023750305176
F309.58450317382812
F0.047725781798362732
I3801857
I-1
tp84
a((F779.37066650390625
F188.54644775390625
tF13.986236572265625
F187.58195495605469
F0.083388209342956543
I14746369
I-1
tp85
a((F312.18777465820312
F194.03492736816406
tF13.754115104675293
F209.86798095703125
F0.075762294232845306
I13566721
I-1
tp86
a((F695.955078125
F198.54916381835938
tF13.995818138122559
F218.80145263671875
F0.079551950097084045
I14811905
I-1
tp87
a((F790.374267578125
F223.66423034667969
tF12.087061882019043
F178.96945190429688
F0.039652705192565918
I4195073
I-1
tp88
a((F462.87112426757812
F246.85467529296875
tF14.252997398376465
F78.30572509765625
F0.067746520042419434
I16122625
I-1
tp89
a((F227.65394592285156
F138.67173767089844
tF16.744699478149414
F228.041015625
F0.042037371546030045
I11075842
I-1
tp90
a((F634.3341064453125
F193.522705078125
tF17.363813400268555
F217.02046203613281
F0.081265278160572052
I13697282
I-1
tp91
a((F634.3341064453125
F193.522705078125
tF17.363813400268555
F71.33062744140625
F0.081265278160572052
I13697282
I-1
tp92
a((F248.37948608398438
F209.02458190917969
tF17.525665283203125
F50.07647705078125
F0.087081275880336761
I14352642
I-1
tp93
a((F418.62258911132812
F216.9049072265625
tF15.368743896484375
F202.92044067382812
F0.088494144380092621
I4849922
I-1
tp94
a((F418.62258911132812
F216.9049072265625
tF15.368743896484375
F28.91021728515625
F0.088494144380092621
I4849922
I-1
tp95
a((F200.60011291503906
F230.85885620117188
tF16.740324020385742
F188.43544006347656
F0.064538732171058655
I11075842
I-1
tp96
a((F200.60011291503906
F230.85885620117188
tF16.740324020385742
F145.60092163085938
F0.064538732171058655
I11075842
I-1
tp97
a((F308.3316650390625
F243.72755432128906
tF16.55506706237793
F91.1854248046875
F0.069754578173160553
I10223874
I-1
tp98
a((F785.6224365234375
F326.45401000976562
tF17.572275161743164
F204.86154174804688
F0.080883003771305084
I14549250
I-1
tp99
a((F785.6224365234375
F326.45401000976562
tF17.572275161743164
F65.25823974609375
F0.080883003771305084
I14549250
I-1
tp100
a((F781.413330078125
F142.77552795410156
tF20.337106704711914
F285.80215454101562
F0.066296614706516266
I8389122
I-1
tp101
a((F781.413330078125
F142.77552795410156
tF20.337106704711914
F179.79855346679688
F0.066296614706516266
I8389122
I-1
tp102
a((F307.19515991210938
F153.14620971679688
tF21.604135513305664
F49.52911376953125
F0.07461954653263092
I12780034
I-1
tp103
a((F544.62890625
F196.46257019042969
tF22.185886383056641
F219.34510803222656
F0.088706284761428833
I14746114
I-1
tp104
a((F544.62890625
F196.46257019042969
tF22.185886383056641
F22.995635986328125
F0.088706284761428833
I14746114
I-1
tp105
a((F138.73793029785156
F200.28153991699219
tF19.032333374023438
F40.622833251953125
F0.093608111143112183
I3604994
I-1
tp106
a((F475.18661499023438
F200.75418090820312
tF20.15778923034668
F208.29776000976562
F0.088035769760608673
I7799298
I-1
tp107
a((F364.23455810546875
F206.40536499023438
tF18.717939376831055
F218.4678955078125
F0.085944652557373047
I2425346
I-1
tp108
a((F364.23455810546875
F206.40536499023438
tF18.717939376831055
F42.405609130859375
F0.085944652557373047
I2425346
I-1
tp109
a((F430.78118896484375
F238.00540161132812
tF18.382053375244141
F96.266754150390625
F0.062027234584093094
I1114626
I-1
tp110
a((F707.95220947265625
F244.16738891601562
tF21.961271286010742
F106.20236206054688
F0.067893974483013153
I13959682
I-1
tp111
a((F707.95220947265625
F244.16738891601562
tF21.961271286010742
F72.733917236328125
F0.067893974483013153
I13959682
I-1
tp112
a((F266.308349609375
F130.03182983398438
tF28.12837028503418
F221.74574279785156
F0.05280066654086113
I15139586
I-1
tp113
a((F567.57305908203125
F161.82464599609375
tF28.378351211547852
F291.41619873046875
F0.067669257521629333
I15794946
I-1
tp114
a((F403.82366943359375
F180.89356994628906
tF25.246267318725586
F329.60507202148438
F0.055036872625350952
I7340802
I-1
tp115
a((F769.1429443359375
F234.88446044921875
tF23.124734878540039
F40.013885498046875
F0.078022539615631104
I983810
I-1
tp116
a((F171.61331176757812
F241.95304870605469
tF27.926664352416992
F143.32046508789062
F0.059361699968576431
I14680834
I-1
tp117
a((F171.61331176757812
F241.95304870605469
tF27.926664352416992
F52.59820556640625
F0.059361699968576431
I14680834
I-1
tp118
a((F903.4129638671875
F245.31240844726562
tF26.566553115844727
F42.780181884765625
F0.078314147889614105
I11010818
I-1
tp119
a((F584.9176025390625
F318.0631103515625
tF28.547534942626953
F60.86260986328125
F0.072476789355278015
I16253698
I-1
tp120
a((F322.340087890625
F86.732719421386719
tF30.812637329101562
F236.58294677734375
F0.080005034804344177
I5046531
I-1
tp121
a((F445.012451171875
F86.68353271484375
tF31.561548233032227
F241.33627319335938
F0.083307564258575439
I6816003
I-1
tp122
a((F445.012451171875
F86.68353271484375
tF31.561548233032227
F31.048431396484375
F0.083307564258575439
I6816003
I-1
tp123
a((F816.42840576171875
F135.34410095214844
tF31.814865112304688
F320.75872802734375
F0.077259600162506104
I7340291
I-1
tp124
a((F816.42840576171875
F135.34410095214844
tF31.814865112304688
F212.84220886230469
F0.077259600162506104
I7340291
I-1
tp125
a((F435.1292724609375
F154.32223510742188
tF30.789945602416992
F232.79576110839844
F0.070922471582889557
I4980995
I-1
tp126
a((F435.1292724609375
F154.32223510742188
tF30.789945602416992
F45.18670654296875
F0.070922471582889557
I4980995
I-1
tp127
a((F150.06205749511719
F163.20193481445312
tF33.086894989013672
F291.36663818359375
F0.066290684044361115
I10223875
I-1
tp128
a((F150.06205749511719
F163.20193481445312
tF33.086894989013672
F260.95455932617188
F0.066290684044361115
I10223875
I-1
tp129
a((F902.01544189453125
F162.11604309082031
tF35.121585845947266
F234.98623657226562
F0.087196648120880127
I14549251
I-1
tp130
a((F902.01544189453125
F162.11604309082031
tF35.121585845947266
F28.36541748046875
F0.087196648120880127
I14549251
I-1
tp131
a((F350.155029296875
F167.13740539550781
tF31.217672348022461
F227.59370422363281
F0.048085950314998627
I5964035
I-1
tp132
a((F744.2767333984375
F167.34269714355469
tF34.80865478515625
F274.04739379882812
F0.057489950209856033
I13893891
I-1
tp133
a((F229.83145141601562
F174.96455383300781
tF32.957187652587891
F233.01116943359375
F0.047253917902708054
I9896195
I-1
tp134
a((F656.6064453125
F220.28515625
tF30.420751571655273
F47.902618408203125
F0.041901834309101105
I4129027
I-1
tp135
a((F489.68048095703125
F330.03048706054688
tF36.515113830566406
F196.30052185058594
F0.084888674318790436
I590339
I-1
tp136
a((F489.68048095703125
F330.03048706054688
tF36.515113830566406
F58.7503662109375
F0.084888674318790436
I590339
I-1
tp137
a((F687.0880126953125
F280.72525024414062
tF38.91845703125
F219.4200439453125
F0.068366900086402893
I5243395
I-1
tp138
a((F687.0880126953125
F280.72525024414062
tF38.91845703125
F46.65032958984375
F0.068366900086402893
I5243395
I-1
tp139
a((F695.79876708984375
F345.50616455078125
tF37.303676605224609
F47.698760986328125
F0.087378382682800293
I2163203
I-1
tp140
a((F310.10562133789062
F174.09219360351562
tF136.13014221191406
F248.68661499023438
F0.052071340382099152
I12255493
I-1
tp141
a((F310.10562133789062
F174.09219360351562
tF136.13014221191406
F92.00244140625
F0.052071340382099152
I12255493
I-1
tp142
a((F568.222900390625
F232.70645141601562
tF132.98670959472656
F271.6087646484375
F0.04521583765745163
I10551557
I-1
tp143
a.