(lp1
((F149.6529541015625
F294.88677978515625
tF88
F65.791259765625
F50081.69140625
I2
I1
tp2
a((F445.0472412109375
F85.052787780761719
tF89
F250.94737243652344
F30779.39453125
I2
I1
tp3
a((F323.15582275390625
F86.551689147949219
tF90
F247.79510498046875
F29363.689453125
I2
I1
tp4
a((F419.14422607421875
F218.71322631835938
tF45
F24.80067253112793
F28590.265625
I1
I-1
tp5
a((F139.17433166503906
F199.80941772460938
tF63
F35.488311767578125
F28563.90625
I2
I-1
tp6
a((F544.181396484375
F193.57876586914062
tF67
F214.74285888671875
F28278.001953125
I2
I-1
tp7
a((F583.84246826171875
F315.59109497070312
tF90
F61.766849517822266
F25173.302734375
I2
I1
tp8
a((F902.3218994140625
F244.86537170410156
tF87
F47.040966033935547
F23599.33203125
I2
I1
tp9
a((F81.585456848144531
F261.972412109375
tF60
F78.10162353515625
F23568.390625
I2
I1
tp10
a((F906.35406494140625
F239.19479370117188
tF68
F41.438087463378906
F22986.923828125
I2
I1
tp11
a((F905.849853515625
F156.55523681640625
tF89
F24.726802825927734
F22760.234375
I2
I1
tp12
a((F304.90298461914062
F154.43905639648438
tF64
F56.62994384765625
F22608.40625
I2
I-1
tp13
a((F210.02842712402344
F255.06329345703125
tF32
F99.745597839355469
F21575.8671875
I1
I1
tp14
a((F688.93658447265625
F355.53729248046875
tF87
F49.207202911376953
F21550.966796875
I2
I1
tp15
a((F490.02813720703125
F328.44830322265625
tF119
F62.218868255615234
F21193.60546875
I3
I1
tp16
a((F706.39544677734375
F242.50149536132812
tF69
F72.062400817871094
F20949.3671875
I2
I1
tp17
a((F479.010009765625
F194.13471984863281
tF46
F201.84230041503906
F20591.05078125
I1
I-1
tp18
a((F641.0419921875
F190.1787109375
tF33
F212.61235046386719
F20245.8125
I1
I-1
tp19
a((F431.07928466796875
F155.54397583007812
tF91
F51.769550323486328
F20243.890625
I2
I-1
tp20
a((F206.69725036621094
F255.25381469726562
tF22
F105.86148071289062
F20176.39453125
I0
I1
tp21
a((F783.35595703125
F328.1968994140625
tF43
F66.425804138183594
F20132.556640625
I1
I1
tp22
a((F685.4505615234375
F358.46511840820312
tF72
F61.017829895019531
F20038.830078125
I2
I1
tp23
a((F161.38893127441406
F263.47299194335938
tF21
F20.210689544677734
F19931.455078125
I0
I1
tp24
a((F480.71710205078125
F189.23939514160156
tF33
F60.942798614501953
F19810.203125
I1
I-1
tp25
a((F644.50555419921875
F190.32498168945312
tF23
F211.23420715332031
F19743.61328125
I0
I-1
tp26
a((F307.13323974609375
F244.66122436523438
tF44
F186.37590026855469
F19708.10546875
I1
I1
tp27
a((F456.69900512695312
F248.46690368652344
tF32
F81.645851135253906
F19706.220703125
I1
I1
tp28
a((F140.123779296875
F186.02595520019531
tF21
F42.536464691162109
F19641.1015625
I0
I-1
tp29
a((F429.75909423828125
F97.504753112792969
tF16
F69.826881408691406
F19630.58203125
I0
I-1
tp30
a((F314.38943481445312
F180.37350463867188
tF16
F63.452468872070312
F19500.4453125
I0
I1
tp31
a((F498.04974365234375
F169.88420104980469
tF127
F268.99356079101562
F19390.388671875
I3
I1
tp32
a((F375.89218139648438
F193.76911926269531
tF23
F71.988876342773438
F19388.87109375
I0
I-1
tp33
a((F777.29583740234375
F186.03179931640625
tF40
F24.569732666015625
F19307.16015625
I1
I-1
tp34
a((F255.02122497558594
F201.78021240234375
tF32
F199.7227783203125
F19296.25
I1
I-1
tp35
a((F568.1923828125
F160.09414672851562
tF83
F275.4007568359375
F18852.185546875
I2
I1
tp36
a((F215.0301513671875
F255.36717224121094
tF43
F88.432731628417969
F18494.921875
I1
I1
tp37
a((F789.5850830078125
F120.91213226318359
tF22
F222.02178955078125
F18451.90625
I0
I1
tp38
a((F472.74404907226562
F205.14631652832031
tF84
F213.1595458984375
F18370.4453125
I2
I-1
tp39
a((F815.932373046875
F134.89231872558594
tF112
F217.67256164550781
F18328.55078125
I3
I1
tp40
a((F600.00335693359375
F296.3544921875
tF16
F244.02473449707031
F18326.70703125
I0
I-1
tp41
a((F793.41015625
F120.42453765869141
tF32
F157.95626831054688
F18309.765625
I1
I1
tp42
a((F637.1927490234375
F190.77301025390625
tF41
F217.78778076171875
F18050.5
I1
I-1
tp43
a((F319.65292358398438
F236.43035888671875
tF84
F96.076896667480469
F17539.021484375
I2
I1
tp44
a((F580.65863037109375
F175.6251220703125
tF127
F273.39862060546875
F17443.845703125
I3
I1
tp45
a((F139.200439453125
F189.5865478515625
tF32
F33.266525268554688
F17438.7109375
I1
I-1
tp46
a((F717.95477294921875
F227.11090087890625
tF15
F16.012018203735352
F17375.9453125
I0
I-1
tp47
a((F200.22080993652344
F232.47224426269531
tF48
F175.57087707519531
F17312.140625
I1
I1
tp48
a((F685.82073974609375
F158.78546142578125
tF22
F308.545654296875
F17189.787109375
I0
I-1
tp49
a((F474.14852905273438
F197.2918701171875
tF68
F202.45535278320312
F17177.6328125
I2
I-1
tp50
a((F600.97369384765625
F160.43026733398438
tF22
F327.3370361328125
F16964.244140625
I0
I-1
tp51
a((F196.23023986816406
F236.96157836914062
tF34
F184.9136962890625
F16918.9609375
I1
I1
tp52
a((F402.9385986328125
F182.85414123535156
tF81
F345.36288452148438
F16835.244140625
I2
I1
tp53
a((F773.03680419921875
F236.05181884765625
tF66
F193.47048950195312
F16675.75390625
I2
I-1
tp54
a((F422.21011352539062
F223.61747741699219
tF22
F200.73252868652344
F16654.88671875
I0
I-1
tp55
a((F799.61712646484375
F120.08165740966797
tF45
F270.15200805664062
F16568.228515625
I1
I1
tp56
a((F781.91046142578125
F240.29121398925781
tF22
F234.3966064453125
F16541.484375
I0
I-1
tp57
a((F165.57998657226562
F275.07931518554688
tF22
F330.43350219726562
F16510.8203125
I0
I-1
tp58
a((F336.89694213867188
F251.57182312011719
tF33
F89.078071594238281
F16436.236328125
I1
I1
tp59
a((F151.08926391601562
F159.51290893554688
tF92
F267.07418823242188
F16431.931640625
I2
I1
tp60
a((F373.83209228515625
F195.69007873535156
tF30
F63.846366882324219
F16366.048828125
I1
I-1
tp61
a((F171.15090942382812
F242.22369384765625
tF85
F54.47314453125
F16173.62890625
I2
I-1
tp62
a((F601.9061279296875
F157.32968139648438
tF32
F247.20637512207031
F16126.146484375
I1
I-1
tp63
a((F686.3126220703125
F155.66441345214844
tF32
F300.74917602539062
F15859.82421875
I1
I-1
tp64
a((F151.10282897949219
F199.39646911621094
tF22
F222.57699584960938
F15373.90234375
I0
I-1
tp65
a((F145.47984313964844
F164.09596252441406
tF121
F260.79922485351562
F15305.5810546875
I3
I1
tp66
a((F85.499649047851562
F241.35894775390625
tF24
F251.9571533203125
F15169.5654296875
I0
I-1
tp67
a((F147.353271484375
F200.14364624023438
tF33
F222.06787109375
F14920.3779296875
I1
I-1
tp68
a((F539.1690673828125
F177.45050048828125
tF15
F84.096946716308594
F14875.0810546875
I0
I1
tp69
a((F83.851715087890625
F238.94734191894531
tF33
F191.57719421386719
F14760.7509765625
I1
I-1
tp70
a((F727.08843994140625
F174.42543029785156
tF15
F96.284652709960938
F14548.0947265625
I0
I-1
tp71
a((F742.5335693359375
F170.97169494628906
tF121
F268.88601684570312
F14418.0732421875
I3
I1
tp72
a((F333.67831420898438
F253.35662841796875
tF23
F98.699264526367188
F14136.337890625
I0
I1
tp73
a((F167.96426391601562
F275.07598876953125
tF31
F333.9227294921875
F13912.103515625
I1
I-1
tp74
a((F767.3238525390625
F151.77886962890625
tF21
F292.10369873046875
F13245.7197265625
I0
I-1
tp75
a((F194.05194091796875
F154.19172668457031
tF66
F245.32249450683594
F13133.50390625
I2
I-1
tp76
a((F605.114501953125
F147.08427429199219
tF66
F257.8343505859375
F13055.12109375
I2
I-1
tp77
a((F139.21150207519531
F183.59393310546875
tF196
F215.29562377929688
F12993.4912109375
I3
I1
tp78
a((F684.38336181640625
F272.67160034179688
tF112
F37.133460998535156
F12956.39453125
I3
I-1
tp79
a((F435.45086669921875
F235.61593627929688
tF67
F92.083564758300781
F12693.203125
I2
I1
tp80
a((F359.091552734375
F205.95828247070312
tF85
F72.478187561035156
F12628.29296875
I2
I-1
tp81
a((F311.54666137695312
F189.84169006347656
tF37
F208.75047302246094
F12561.615234375
I1
I-1
tp82
a((F102.75006866455078
F250.07293701171875
tF148
F196.03425598144531
F12465.88671875
I3
I1
tp83
a((F201.29240417480469
F135.98214721679688
tF126
F237.19712829589844
F12273.173828125
I3
I-1
tp84
a((F688.06494140625
F146.04313659667969
tF65
F271.39767456054688
F11870.673828125
I2
I-1
tp85
a((F782.78411865234375
F158.59014892578125
tF22
F280.95571899414062
F11595.046875
I0
I1
tp86
a((F534.036865234375
F157.11457824707031
tF32
F215.601318359375
F11485.2998046875
I1
I-1
tp87
a((F244.47471618652344
F213.93460083007812
tF85
F54.432834625244141
F11468.9970703125
I2
I-1
tp88
a((F534.16253662109375
F144.55340576171875
tF64
F245.1630859375
F11356.42578125
I2
I-1
tp89
a((F322.6168212890625
F257.39382934570312
tF32
F92.519325256347656
F11344.8466796875
I1
I-1
tp90
a((F646.0323486328125
F159.61898803710938
tF81
F269.52542114257812
F11333.6025390625
I2
I1
tp91
a((F323.58248901367188
F254.93949890136719
tF22
F68.748146057128906
F11310.1787109375
I0
I-1
tp92
a((F283.28460693359375
F186.93367004394531
tF82
F30.060794830322266
F11295.7802734375
I2
I1
tp93
a((F389.3201904296875
F229.36729431152344
tF82
F87.167488098144531
F11234.42578125
I2
I1
tp94
a((F779.37371826171875
F160.49264526367188
tF31
F280.7900390625
F11231.1357421875
I1
I1
tp95
a((F307.93179321289062
F165.3011474609375
tF31
F212.06539916992188
F10719.51171875
I1
I-1
tp96
a((F533.8919677734375
F161.77558898925781
tF22
F339.02340698242188
F10675.4716796875
I0
I-1
tp97
a((F663.05169677734375
F174.46281433105469
tF130
F270.5736083984375
F10316.9892578125
I3
I1
tp98
a((F722.79119873046875
F224.87759399414062
tF32
F218.88677978515625
F10314.3447265625
I1
I-1
tp99
a((F688.7728271484375
F139.4576416015625
tF84
F269.86917114257812
F10292.4423828125
I2
I-1
tp100
a((F534.2607421875
F137.71603393554688
tF83
F285.76565551757812
F10018.578125
I2
I-1
tp101
a((F293.84365844726562
F152.4168701171875
tF32
F62.775924682617188
F9865.8095703125
I1
I-1
tp102
a((F369.076416015625
F196.9420166015625
tF44
F54.943008422851562
F9739.265625
I1
I-1
tp103
a((F288.76971435546875
F178.9385986328125
tF66
F16.264373779296875
F9581.8388671875
I2
I1
tp104
a((F307.77001953125
F169.49746704101562
tF22
F336.68017578125
F9529.1435546875
I0
I-1
tp105
a((F171.48490905761719
F191.94912719726562
tF79
F55.760517120361328
F9303.580078125
I2
I1
tp106
a((F545.91961669921875
F340.06094360351562
tF89
F59.485748291015625
F9207.130859375
I2
I-1
tp107
a((F444.51699829101562
F252.40721130371094
tF22
F71.689765930175781
F9189.123046875
I0
I-1
tp108
a((F840.36102294921875
F273.21697998046875
tF14
F245.2342529296875
F9173.994140625
I0
I-1
tp109
a((F610.5958251953125
F201.14848327636719
tF87
F33.531818389892578
F8947.345703125
I2
I-1
tp110
a((F824.79974365234375
F228.21897888183594
tF23
F359.12820434570312
F8813.611328125
I0
I-1
tp111
a((F773.1812744140625
F133.7152099609375
tF86
F273.56524658203125
F8810.232421875
I2
I-1
tp112
a((F825.193115234375
F225.59017944335938
tF29
F3.5189809799194336
F8753.208984375
I1
I-1
tp113
a((F505.3133544921875
F310.37649536132812
tF14
F239.72250366210938
F8733.8828125
I0
I-1
tp114
a((F443.53375244140625
F254.87489318847656
tF31
F101.29856872558594
F8368.2353515625
I1
I-1
tp115
a((F789.18548583984375
F131.22355651855469
tF22
F155.76823425292969
F8321.240234375
I0
I-1
tp116
a((F817.07806396484375
F235.50277709960938
tF19
F2.071704626083374
F8300.9619140625
I0
I1
tp117
a((F195.9169921875
F251.71730041503906
tF31
F124.5921630859375
F8281.59765625
I1
I-1
tp118
a((F777.88861083984375
F165.85420227050781
tF39
F282.88873291015625
F8256.6259765625
I1
I1
tp119
a((F428.2919921875
F102.21815490722656
tF31
F222.07102966308594
F8252.2744140625
I1
I-1
tp120
a((F289.9722900390625
F169.97047424316406
tF46
F297.83270263671875
F8228.8095703125
I1
I1
tp121
a((F150.89306640625
F189.57188415527344
tF23
F143.74090576171875
F8169.0185546875
I0
I1
tp122
a((F436.48858642578125
F246.83981323242188
tF22
F79.201400756835938
F8125.3623046875
I0
I1
tp123
a((F766.0052490234375
F122.82543182373047
tF123
F266.70291137695312
F8086.7158203125
I3
I-1
tp124
a((F545.19989013671875
F171.56962585449219
tF29
F101.97081756591797
F7979.3056640625
I1
I1
tp125
a((F923.46099853515625
F207.81756591796875
tF91
F30.672176361083984
F7966.6376953125
I2
I-1
tp126
a((F604.696533203125
F294.6103515625
tF30
F230.26898193359375
F7867.7119140625
I1
I-1
tp127
a((F735.418212890625
F153.38507080078125
tF65
F269.83172607421875
F7829.42822265625
I2
I1
tp128
a((F727.2230224609375
F216.42521667480469
tF59
F39.400714874267578
F7641.4873046875
I2
I-1
tp129
a((F308.2371826171875
F104.565185546875
tF31
F220.74813842773438
F7503.408203125
I1
I-1
tp130
a((F790.90380859375
F153.94284057617188
tF15
F188.87588500976562
F7379.2998046875
I0
I-1
tp131
a((F545.8121337890625
F351.72201538085938
tF126
F64.048431396484375
F7315.85986328125
I3
I-1
tp132
a((F426.04217529296875
F106.86830139160156
tF45
F53.798133850097656
F7314.79296875
I1
I-1
tp133
a((F281.27969360351562
F258.28237915039062
tF91
F71.424537658691406
F7222.57470703125
I2
I-1
tp134
a((F622.8466796875
F215.13114929199219
tF127
F25.42009162902832
F7205.1884765625
I3
I-1
tp135
a((F259.53228759765625
F160.16215515136719
tF18
F61.856903076171875
F7149.234375
I0
I-1
tp136
a((F862.68804931640625
F121.97349548339844
tF126
F330.15093994140625
F7147.91943359375
I3
I-1
tp137
a((F410.56268310546875
F149.65098571777344
tF31
F67.471107482910156
F7122.0458984375
I1
I-1
tp138
a((F306.09295654296875
F109.01340484619141
tF45
F48.800979614257812
F7094.2763671875
I1
I-1
tp139
a((F259.62301635742188
F172.58198547363281
tF140
F232.14729309082031
F7080.3984375
I3
I1
tp140
a((F690.2789306640625
F196.20669555664062
tF22
F29.714742660522461
F7059.068359375
I0
I-1
tp141
a((F691.4442138671875
F196.27217102050781
tF40
F34.801799774169922
F7042.13134765625
I1
I-1
tp142
a((F825.1343994140625
F231.50930786132812
tF16
F206.95132446289062
F6968.81494140625
I0
I-1
tp143
a((F379.08529663085938
F155.20718383789062
tF27
F61.517910003662109
F6908.57568359375
I1
I-1
tp144
a((F373.8265380859375
F165.01268005371094
tF136
F227.48997497558594
F6905.42578125
I3
I1
tp145
a((F406.1795654296875
F222.84075927734375
tF15
F278.43154907226562
F6896.25
I0
I-1
tp146
a((F407.9593505859375
F221.30068969726562
tF15
F277.86312866210938
F6504.537109375
I0
I-1
tp147
a((F421.35513305664062
F108.28467559814453
tF57
F55.294574737548828
F6227.56982421875
I2
I-1
tp148
a((F280.56341552734375
F268.814208984375
tF125
F99.965080261230469
F6132.2255859375
I3
I-1
tp149
a((F827.59844970703125
F284.3941650390625
tF90
F61.047981262207031
F5990.02099609375
I2
I1
tp150
a((F812.408203125
F273.81735229492188
tF176
F64.704383850097656
F5941.59033203125
I3
I1
tp151
a((F100.79903411865234
F301.54049682617188
tF115
F114.58229827880859
F5828.5673828125
I3
I-1
tp152
a((F304.57879638671875
F100.73188781738281
tF31
F58.727176666259766
F5782.560546875
I1
I-1
tp153
a((F424.90118408203125
F98.439132690429688
tF31
F58.013175964355469
F5694.8505859375
I1
I-1
tp154
a((F601.53045654296875
F204.07286071777344
tF23
F31.487646102905273
F5643.11669921875
I0
I-1
tp155
a((F453.49441528320312
F234.02027893066406
tF14
F7.7683777809143066
F5542.59326171875
I0
I-1
tp156
a((F603.38470458984375
F204.48347473144531
tF34
F33.797607421875
F5505.84912109375
I1
I-1
tp157
a((F782.99066162109375
F171.91950988769531
tF20
F64.871849060058594
F5322.712890625
I0
I1
tp158
a((F297.66635131835938
F105.70362091064453
tF55
F232.03982543945312
F5317.79833984375
I2
I-1
tp159
a((F122.33612060546875
F224.17279052734375
tF14
F3.3559610843658447
F5281.298828125
I0
I-1
tp160
a((F609.294677734375
F292.799072265625
tF43
F34.254444122314453
F5200.42724609375
I1
I-1
tp161
a((F680.77716064453125
F246.16357421875
tF30
F23.481460571289062
F5103.3134765625
I1
I-1
tp162
a((F807.99212646484375
F254.122314453125
tF21
F51.000129699707031
F5005.0380859375
I0
I1
tp163
a.