(lp1
((F151.14382934570312
F149.60856628417969
tF89
F156.08148193359375
F49912.34375
I2
I1
tp2
a((F360.803955078125
F445.1077880859375
tF89
F340.95281982421875
F30914.849609375
I2
I1
tp3
a((F246.08146667480469
F139.29299926757812
tF64
F125.67563629150391
F29341.361328125
I2
I-1
tp4
a((F359.53173828125
F323.41763305664062
tF89
F337.833740234375
F29294.837890625
I2
I1
tp5
a((F227.13877868652344
F419.0914306640625
tF45
F114.80066680908203
F28841.56640625
I1
I-1
tp6
a((F252.30316162109375
F544.207275390625
tF67
F304.86376953125
F28520.294921875
I2
I-1
tp7
a((F129.86650085449219
F583.56695556640625
tF89
F152.24177551269531
F25393.994140625
I2
I1
tp8
a((F201.32728576660156
F902.29937744140625
tF87
F136.95281982421875
F23664.69921875
I2
I1
tp9
a((F183.402099609375
F81.181854248046875
tF59
F166.942626953125
F22977.208984375
I2
I1
tp10
a((F289.57260131835938
F905.83050537109375
tF89
F114.95999145507812
F22857.6484375
I2
I1
tp11
a((F206.08392333984375
F906.45379638671875
tF69
F132.20553588867188
F22239.212890625
I2
I1
tp12
a((F90.519142150878906
F688.9212646484375
tF87
F139.20719909667969
F21643.16796875
I2
I1
tp13
a((F291.50839233398438
F304.30288696289062
tF65
F146.58518981933594
F21426.34765625
I2
I-1
tp14
a((F117.46041107177734
F490.07281494140625
tF119
F151.97467041015625
F21298.390625
I3
I1
tp15
a((F202.84471130371094
F706.30426025390625
tF68
F162.7952880859375
F21211.916015625
I2
I1
tp16
a((F252.31791687011719
F479.30685424804688
tF45
F290.323974609375
F21054.2265625
I1
I-1
tp17
a((F191.0689697265625
F210.202880859375
tF33
F193.26081848144531
F20982.572265625
I1
I1
tp18
a((F290.48507690429688
F430.49642944335938
tF89
F141.95449829101562
F20508.8828125
I2
I-1
tp19
a((F255.92742919921875
F641.08758544921875
tF33
F302.61233520507812
F20385.673828125
I1
I-1
tp20
a((F86.565032958984375
F684.90924072265625
tF70
F287.11767578125
F20370.083984375
I2
I1
tp21
a((F244.33943176269531
F255.00032043457031
tF31
F155.56396484375
F20223.458984375
I1
I-1
tp22
a((F190.74618530273438
F206.69725036621094
tF22
F195.86148071289062
F20176.39453125
I0
I1
tp23
a((F190.61151123046875
F214.59710693359375
tF42
F180.37306213378906
F19957.83203125
I1
I1
tp24
a((F182.52702331542969
F161.38893127441406
tF21
F110.210693359375
F19931.455078125
I0
I1
tp25
a((F255.67501831054688
F644.50555419921875
tF23
F301.23422241210938
F19743.61328125
I0
I-1
tp26
a((F117.68399810791016
F783.19989013671875
tF43
F157.24342346191406
F19700.248046875
I1
I1
tp27
a((F259.97402954101562
F140.123779296875
tF21
F132.53646850585938
F19641.1015625
I0
I-1
tp28
a((F348.4952392578125
F429.75909423828125
tF16
F159.82688903808594
F19630.58203125
I0
I-1
tp29
a((F201.79489135742188
F307.21298217773438
tF45
F276.27325439453125
F19620.1875
I1
I1
tp30
a((F256.73739624023438
F480.77947998046875
tF34
F150.9822998046875
F19609.9453125
I1
I-1
tp31
a((F197.75790405273438
F456.64462280273438
tF31
F182.65382385253906
F19579.923828125
I1
I1
tp32
a((F275.98291015625
F498.24093627929688
tF127
F358.44976806640625
F19570.556640625
I3
I1
tp33
a((F265.62649536132812
F314.38943481445312
tF16
F153.45246887207031
F19500.4453125
I0
I1
tp34
a((F103.79130554199219
F478.29580688476562
tF67
F158.85221862792969
F19391.451171875
I2
I1
tp35
a((F252.23088073730469
F375.89218139648438
tF23
F161.98887634277344
F19388.87109375
I0
I-1
tp36
a((F285.92935180664062
F568.1837158203125
tF83
F5.4007391929626465
F19135.63671875
I2
I1
tp37
a((F260.129150390625
F777.38385009765625
tF39
F113.64146423339844
F18949.869140625
I1
I-1
tp38
a((F309.89981079101562
F816.12176513671875
tF113
F66.64404296875
F18593.791015625
I3
I1
tp39
a((F325.08786010742188
F789.5850830078125
tF22
F312.02178955078125
F18451.90625
I0
I1
tp40
a((F240.98529052734375
F472.66473388671875
tF84
F303.1595458984375
F18347.31640625
I2
I-1
tp41
a((F149.6455078125
F600.00335693359375
tF16
F334.02471923828125
F18326.70703125
I0
I-1
tp42
a((F270.2423095703125
F580.6868896484375
tF126
F356.8997802734375
F17876.4765625
I3
I1
tp43
a((F209.48304748535156
F319.72833251953125
tF84
F186.07688903808594
F17650.681640625
I2
I1
tp44
a((F255.21205139160156
F636.98822021484375
tF42
F307.7047119140625
F17649.580078125
I1
I-1
tp45
a((F256.39483642578125
F139.25285339355469
tF32
F123.26652526855469
F17621.451171875
I1
I-1
tp46
a((F208.94627380371094
F196.28170776367188
tF33
F274.43212890625
F17585.228515625
I1
I1
tp47
a((F218.88909912109375
F717.95477294921875
tF15
F106.01201629638672
F17375.9453125
I0
I-1
tp48
a((F248.5428466796875
F474.03732299804688
tF69
F292.565673828125
F17296.609375
I2
I-1
tp49
a((F287.21453857421875
F685.82073974609375
tF22
F38.545654296875
F17189.787109375
I0
I-1
tp50
a((F263.13095092773438
F402.97760009765625
tF81
F75.362892150878906
F17103.84375
I2
I1
tp51
a((F209.87606811523438
F773.1490478515625
tF66
F283.47048950195312
F17088.392578125
I2
I-1
tp52
a((F325.60153198242188
F793.55029296875
tF32
F339.37554931640625
F17052.80859375
I1
I1
tp53
a((F285.56973266601562
F600.97369384765625
tF22
F57.337039947509766
F16964.244140625
I0
I-1
tp54
a((F325.85836791992188
F799.368408203125
tF44
F0.47078996896743774
F16721.7578125
I1
I1
tp55
a((F222.38252258300781
F422.21011352539062
tF22
F290.7325439453125
F16654.88671875
I0
I-1
tp56
a((F288.58444213867188
F601.92510986328125
tF32
F337.20626831054688
F16636.138671875
I1
I-1
tp57
a((F193.96853637695312
F336.66439819335938
tF32
F177.90711975097656
F16619.859375
I1
I1
tp58
a((F205.70878601074219
F781.91046142578125
tF22
F324.3966064453125
F16541.484375
I0
I-1
tp59
a((F170.92070007324219
F165.57998657226562
tF22
F60.433502197265625
F16510.8203125
I0
I-1
tp60
a((F203.868896484375
F171.76596069335938
tF86
F147.86767578125
F16127.5830078125
I2
I-1
tp61
a((F290.22695922851562
F686.3216552734375
tF32
F30.444164276123047
F15810.611328125
I1
I-1
tp62
a((F246.60353088378906
F151.10282897949219
tF22
F312.57699584960938
F15373.90234375
I0
I-1
tp63
a((F204.64105224609375
F85.499649047851562
tF24
F341.9571533203125
F15169.5654296875
I0
I-1
tp64
a((F282.29995727539062
F145.46624755859375
tF120
F2.9789621829986572
F15127.9619140625
I3
I1
tp65
a((F207.08706665039062
F83.776283264160156
tF34
F283.4095458984375
F14932.505859375
I1
I-1
tp66
a((F268.54949951171875
F539.1690673828125
tF15
F174.09695434570312
F14875.0810546875
I0
I1
tp67
a((F246.00921630859375
F146.66455078125
tF35
F312.35336303710938
F14849.4521484375
I1
I-1
tp68
a((F293.88751220703125
F603.3829345703125
tF48
F341.42166137695312
F14745.685546875
I1
I-1
tp69
a((F206.44207763671875
F779.28399658203125
tF32
F273.1351318359375
F14695.06640625
I1
I-1
tp70
a((F271.5745849609375
F727.08843994140625
tF15
F186.28465270996094
F14548.0947265625
I0
I-1
tp71
a((F274.86492919921875
F742.37579345703125
tF121
F358.58609008789062
F14445.38671875
I3
I1
tp72
a((F192.64337158203125
F333.67831420898438
tF23
F188.69926452636719
F14136.337890625
I0
I1
tp73
a((F170.873779296875
F167.98905944824219
tF31
F63.922721862792969
F13916.3046875
I1
I-1
tp74
a((F295.4024658203125
F687.12652587890625
tF47
F341.3717041015625
F13610.1240234375
I1
I-1
tp75
a((F298.66943359375
F605.13531494140625
tF65
F342.8809814453125
F13385.361328125
I2
I-1
tp76
a((F210.20452880859375
F81.68341064453125
tF46
F284.123046875
F13325.4462890625
I1
I-1
tp77
a((F294.22113037109375
F767.3238525390625
tF21
F22.103719711303711
F13245.7197265625
I0
I-1
tp78
a((F173.62327575683594
F684.5264892578125
tF112
F127.16365051269531
F13182.259765625
I3
I-1
tp79
a((F292.04254150390625
F194.09480285644531
tF67
F335.67745971679688
F13148.8447265625
I2
I-1
tp80
a((F299.43646240234375
F197.0675048828125
tF89
F330.55023193359375
F13123.8203125
I2
I-1
tp81
a((F261.58200073242188
F138.82954406738281
tF200
F305.5562744140625
F13013.87109375
I3
I1
tp82
a((F209.98876953125
F435.3009033203125
tF66
F181.08879089355469
F12757.91796875
I2
I1
tp83
a((F197.00700378417969
F103.33905792236328
tF146
F287.33331298828125
F12485.84375
I3
I1
tp84
a((F310.02883911132812
F201.28871154785156
tF126
F327.1971435546875
F12461.35546875
I3
I-1
tp85
a((F240.21537780761719
F359.04745483398438
tF84
F161.78245544433594
F12358.455078125
I2
I-1
tp86
a((F256.08645629882812
F311.17550659179688
tF35
F297.58587646484375
F12349.712890625
I1
I-1
tp87
a((F302.501220703125
F783.1551513671875
tF55
F14.411564826965332
F11962.2900390625
I2
I-1
tp88
a((F286.21188354492188
F645.880126953125
tF82
F359.42257690429688
F11955.3232421875
I2
I1
tp89
a((F289.00204467773438
F534.03631591796875
tF32
F306.07247924804688
F11831.17578125
I1
I-1
tp90
a((F296.04266357421875
F534.2034912109375
tF48
F328.88278198242188
F11735.154296875
I1
I-1
tp91
a((F287.40985107421875
F782.78411865234375
tF22
F10.955720901489258
F11595.046875
I0
I1
tp92
a((F188.642333984375
F322.6065673828125
tF32
F182.51933288574219
F11555.6923828125
I1
I-1
tp93
a((F299.88272094726562
F688.00958251953125
tF66
F1.1925653219223022
F11425.30859375
I2
I-1
tp94
a((F285.76351928710938
F779.33367919921875
tF30
F10.14600944519043
F11421.4091796875
I1
I1
tp95
a((F232.04116821289062
F244.45040893554688
tF85
F144.43283081054688
F11354.2734375
I2
I-1
tp96
a((F259.1114501953125
F283.27005004882812
tF82
F120.18672180175781
F11347.671875
I2
I1
tp97
a((F191.06050109863281
F323.58248901367188
tF22
F158.74813842773438
F11310.1787109375
I0
I-1
tp98
a((F301.31024169921875
F534.16021728515625
tF64
F335.16299438476562
F11281.6982421875
I2
I-1
tp99
a((F296.52798461914062
F768.3453369140625
tF31
F17.717660903930664
F11157.123046875
I1
I-1
tp100
a((F280.77029418945312
F307.98019409179688
tF31
F301.93984985351562
F11069.6953125
I1
I-1
tp101
a((F239.79916381835938
F244.24078369140625
tF70
F137.02558898925781
F11067.3984375
I2
I-1
tp102
a((F220.95854187011719
F722.63470458984375
tF31
F311.95455932617188
F10912.294921875
I1
I-1
tp103
a((F216.69416809082031
F389.43496704101562
tF81
F175.54721069335938
F10854.845703125
I2
I1
tp104
a((F284.22439575195312
F533.8919677734375
tF22
F69.023391723632812
F10675.4716796875
I0
I-1
tp105
a((F274.09451293945312
F661.40106201171875
tF138
F358.53240966796875
F10363.3271484375
I3
I1
tp106
a((F183.32368469238281
F680.68157958984375
tF67
F116.01276397705078
F10146.4453125
I2
I-1
tp107
a((F308.34881591796875
F534.2337646484375
tF84
F17.082538604736328
F9850.2890625
I2
I-1
tp108
a((F254.03289794921875
F171.38896179199219
tF80
F145.47622680664062
F9538.2607421875
I2
I1
tp109
a((F276.50253295898438
F307.77001953125
tF22
F66.680191040039062
F9529.1435546875
I0
I-1
tp110
a((F267.65814208984375
F288.399169921875
tF65
F106.048583984375
F9522.4736328125
I2
I1
tp111
a((F105.93206024169922
F545.77325439453125
tF89
F149.55105590820312
F9263.9267578125
I2
I-1
tp112
a((F193.59278869628906
F444.51699829101562
tF22
F161.68977355957031
F9189.123046875
I0
I-1
tp113
a((F220.55099487304688
F825.07586669921875
tF29
F94.208663940429688
F9181.677734375
I1
I-1
tp114
a((F172.78300476074219
F840.36102294921875
tF14
F335.2342529296875
F9173.994140625
I0
I-1
tp115
a((F201.28253173828125
F433.22918701171875
tF33
F181.92048645019531
F9140.234375
I1
I1
tp116
a((F223.42109680175781
F726.88726806640625
tF45
F128.85781860351562
F9087.5107421875
I1
I-1
tp117
a((F293.61724853515625
F293.91384887695312
tF32
F152.77592468261719
F8906.35546875
I1
I-1
tp118
a((F244.92237854003906
F610.58929443359375
tF86
F123.04008483886719
F8819.0810546875
I2
I-1
tp119
a((F217.78102111816406
F824.79974365234375
tF23
F89.128211975097656
F8813.611328125
I0
I-1
tp120
a((F135.62351989746094
F505.3133544921875
tF14
F329.72250366210938
F8733.8828125
I0
I-1
tp121
a((F274.63113403320312
F545.28118896484375
tF29
F192.65940856933594
F8609.9384765625
I1
I1
tp122
a((F194.38616943359375
F195.96125793457031
tF30
F209.4954833984375
F8603.169921875
I1
I-1
tp123
a((F312.54800415039062
F772.97076416015625
tF86
F3.8168883323669434
F8513.958984375
I2
I-1
tp124
a((F280.6724853515625
F778.21893310546875
tF39
F12.605639457702637
F8411.0380859375
I1
I1
tp125
a((F238.28793334960938
F923.633056640625
tF91
F120.69926452636719
F8358.3271484375
I2
I-1
tp126
a((F314.77642822265625
F789.18548583984375
tF22
F245.76821899414062
F8321.240234375
I0
I-1
tp127
a((F210.49722290039062
F817.07806396484375
tF19
F92.071708679199219
F8300.9619140625
I0
I1
tp128
a((F323.35888671875
F765.81591796875
tF122
F357.29501342773438
F8269.0810546875
I3
I-1
tp129
a((F256.4281005859375
F150.89306640625
tF23
F233.74090576171875
F8169.0185546875
I0
I1
tp130
a((F199.16018676757812
F436.48858642578125
tF22
F169.20140075683594
F8125.3623046875
I0
I1
tp131
a((F296.4830322265625
F410.7236328125
tF31
F157.47319030761719
F8117.27587890625
I1
I-1
tp132
a((F191.18290710449219
F443.45101928710938
tF32
F192.20849609375
F7988.755859375
I1
I-1
tp133
a((F292.94180297851562
F736.05108642578125
tF64
F358.8577880859375
F7982.1064453125
I2
I1
tp134
a((F229.52694702148438
F726.95263671875
tF60
F122.66046142578125
F7726.5361328125
I2
I-1
tp135
a((F292.05715942382812
F790.90380859375
tF15
F278.87588500976562
F7379.2998046875
I0
I-1
tp136
a((F290.50326538085938
F378.315673828125
tF27
F152.76235961914062
F7352.96044921875
I1
I-1
tp137
a((F151.18902587890625
F604.63958740234375
tF30
F320.26895141601562
F7330.470703125
I1
I-1
tp138
a((F208.83772277832031
F222.66612243652344
tF139
F184.35975646972656
F7299.10693359375
I3
I1
tp139
a((F94.872802734375
F545.83380126953125
tF125
F158.90269470214844
F7233.005859375
I3
I-1
tp140
a((F273.28887939453125
F259.39764404296875
tF140
F322.16128540039062
F7199.74853515625
I3
I1
tp141
a((F187.60345458984375
F281.29525756835938
tF91
F161.42454528808594
F7189.95068359375
I2
I-1
tp142
a((F285.83786010742188
F259.53228759765625
tF18
F151.85690307617188
F7149.234375
I0
I-1
tp143
a((F230.5443115234375
F623.265869140625
tF128
F115.73658752441406
F7124.669921875
I3
I-1
tp144
a((F249.79330444335938
F690.2789306640625
tF22
F119.71474456787109
F7059.068359375
I0
I-1
tp145
a((F324.1827392578125
F862.79595947265625
tF126
F60.150924682617188
F7010.97802734375
I3
I-1
tp146
a((F214.49069213867188
F825.1343994140625
tF16
F296.95132446289062
F6968.81494140625
I0
I-1
tp147
a((F223.15924072265625
F406.1795654296875
tF15
F8.4315557479858398
F6896.25
I0
I-1
tp148
a((F250.17544555664062
F691.649169921875
tF41
F125.5308837890625
F6851.28466796875
I1
I-1
tp149
a((F262.72793579101562
F260.7901611328125
tF177
F182.21963500976562
F6817.201171875
I3
I1
tp150
a((F224.69931030273438
F407.9593505859375
tF15
F7.8631367683410645
F6504.537109375
I0
I-1
tp151
a((F281.78610229492188
F290.84860229492188
tF32
F26.895668029785156
F6341.97314453125
I1
I1
tp152
a((F338.119140625
F420.97628784179688
tF59
F145.3348388671875
F6309.8017578125
I2
I-1
tp153
a((F162.54826354980469
F828.29254150390625
tF91
F151.03131103515625
F6099.203125
I2
I1
tp154
a((F176.93157958984375
F280.43905639648438
tF125
F186.5107421875
F6069.384765625
I3
I-1
tp155
a((F172.29573059082031
F812.4351806640625
tF176
F154.70439147949219
F5918.5146484375
I3
I1
tp156
a((F92.6871337890625
F757.41754150390625
tF127
F138.00045776367188
F5711.203125
I3
I-1
tp157
a((F144.37745666503906
F100.85209655761719
tF115
F204.58229064941406
F5692.01025390625
I3
I-1
tp158
a((F241.92713928222656
F601.53045654296875
tF23
F121.48764038085938
F5643.11669921875
I0
I-1
tp159
a((F211.97972106933594
F453.49441528320312
tF14
F97.768379211425781
F5542.59326171875
I0
I-1
tp160
a((F241.34646606445312
F603.355224609375
tF33
F122.33222198486328
F5395.826171875
I1
I-1
tp161
a((F152.96644592285156
F609.02374267578125
tF43
F124.40048217773438
F5367.486328125
I1
I-1
tp162
a((F274.08047485351562
F782.99066162109375
tF20
F154.87185668945312
F5322.712890625
I0
I1
tp163
a((F344.99172973632812
F304.5068359375
tF32
F144.83837890625
F5319.36328125
I1
I-1
tp164
a((F221.82720947265625
F122.33612060546875
tF14
F93.355964660644531
F5281.298828125
I0
I-1
tp165
a((F335.57220458984375
F300.7537841796875
tF60
F139.6434326171875
F5095.951171875
I2
I-1
tp166
a((F199.84358215332031
F680.7723388671875
tF30
F113.48145294189453
F5040.25146484375
I1
I-1
tp167
a((F250.99429321289062
F690.30865478515625
tF55
F124.66473388671875
F5007.74609375
I2
I-1
tp168
a((F191.877685546875
F807.99212646484375
tF21
F141.00013732910156
F5005.0380859375
I0
I1
tp169
a.