(lp1
((F248.41586303710938
F158.80023193359375
tF2.0962259769439697
F314.15289306640625
F0.069500647485256195
I11207167
I-1
tp2
a((F248.41586303710938
F158.80023193359375
tF2.0962259769439697
F193.15992736816406
F0.069500647485256195
I11207167
I-1
tp3
a((F268.20773315429688
F184.65473937988281
tF2.0473856925964355
F326.10324096679688
F0.066777385771274567
I9503231
I-1
tp4
a((F268.20773315429688
F184.65473937988281
tF2.0473856925964355
F97.17431640625
F0.066777385771274567
I9503231
I-1
tp5
a((F281.0753173828125
F371.73275756835938
tF1.9269707202911377
F332.1995849609375
F0.070261210203170776
I5112319
I-1
tp6
a((F281.0753173828125
F371.73275756835938
tF1.9269707202911377
F117.93623352050781
F0.070261210203170776
I5112319
I-1
tp7
a((F222.17073059082031
F400.19488525390625
tF2.1896817684173584
F2.082794189453125
F0.067421965301036835
I14352895
I-1
tp8
a((F222.17073059082031
F400.19488525390625
tF2.1896817684173584
F136.06002807617188
F0.067421965301036835
I14352895
I-1
tp9
a((F208.23568725585938
F448.0081787109375
tF2.2045419216156006
F114.77853393554688
F0.041117455810308456
I14811647
I-1
tp10
a((F322.51202392578125
F784.6055908203125
tF2.1008331775665283
F288.4700927734375
F0.066087856888771057
I11338239
I-1
tp11
a((F322.51202392578125
F784.6055908203125
tF2.1008331775665283
F181.97023010253906
F0.066087856888771057
I11338239
I-1
tp12
a((F248.2139892578125
F158.17518615722656
tF2.5477542877197266
F315.60205078125
F0.068290084600448608
I8585983
I-1
tp13
a((F248.2139892578125
F158.17518615722656
tF2.5477542877197266
F197.15058898925781
F0.068290084600448608
I8585983
I-1
tp14
a((F197.66960144042969
F326.29638671875
tF2.6751334667205811
F271.680419921875
F0.064376704394817352
I12124927
I-1
tp15
a((F197.66960144042969
F326.29638671875
tF2.6751334667205811
F143.27859497070312
F0.064376704394817352
I12124927
I-1
tp16
a((F283.03359985351562
F685.40496826171875
tF2.7274627685546875
F324.65142822265625
F0.062656164169311523
I13501183
I-1
tp17
a((F283.03359985351562
F685.40496826171875
tF2.7274627685546875
F50.0821533203125
F0.062656164169311523
I13501183
I-1
tp18
a((F204.90852355957031
F786.4107666015625
tF2.6449153423309326
F322.55899047851562
F0.060220945626497269
I11272959
I-1
tp19
a((F204.90852355957031
F786.4107666015625
tF2.6449153423309326
F245.768310546875
F0.060220945626497269
I11272959
I-1
tp20
a((F197.06632995605469
F325.9478759765625
tF3.0633344650268555
F147.08326721191406
F0.063803695142269135
I5178367
I-1
tp21
a((F281.30874633789062
F599.93829345703125
tF3.56768798828125
F328.49346923828125
F0.064788468182086945
I16253951
I-1
tp22
a((F281.30874633789062
F599.93829345703125
tF3.56768798828125
F67.493927001953125
F0.064788468182086945
I16253951
I-1
tp23
a((F246.3006591796875
F736.500732421875
tF4.0892529487609863
F279.2205810546875
F0.072905465960502625
I9371904
I-1
tp24
a((F323.92843627929688
F786.38531494140625
tF4.1093864440917969
F298.6229248046875
F0.064135827124118805
I9765120
I-1
tp25
a((F323.92843627929688
F786.38531494140625
tF4.1093864440917969
F207.07015991210938
F0.064135827124118805
I9765120
I-1
tp26
a((F268.62905883789062
F787.758544921875
tF4.2900433540344238
F278.75717163085938
F0.063796468079090118
I12845312
I-1
tp27
a((F272.32009887695312
F187.11808776855469
tF5.1104583740234375
F328.08697509765625
F0.067409254610538483
I8782336
I-1
tp28
a((F272.32009887695312
F187.11808776855469
tF5.1104583740234375
F86.1038818359375
F0.067409254610538483
I8782336
I-1
tp29
a((F284.71588134765625
F260.88186645507812
tF4.9419312477111816
F333.49990844726562
F0.080010510981082916
I6357504
I-1
tp30
a((F284.71588134765625
F260.88186645507812
tF4.9419312477111816
F150.4063720703125
F0.080010510981082916
I6357504
I-1
tp31
a((F224.16473388671875
F405.34814453125
tF5.4969758987426758
F128.23167419433594
F0.068040795624256134
I14090752
I-1
tp32
a((F224.16473388671875
F405.34814453125
tF5.4969758987426758
F10.354888916015625
F0.068040795624256134
I14090752
I-1
tp33
a((F285.17373657226562
F685.799072265625
tF5.0339088439941406
F329.904296875
F0.060632098466157913
I7733760
I-1
tp34
a((F285.17373657226562
F685.799072265625
tF5.0339088439941406
F46.181396484375
F0.060632098466157913
I7733760
I-1
tp35
a((F293.24777221679688
F767.06329345703125
tF5.2060112953186035
F354.01937866210938
F0.053461305797100067
I10158592
I-1
tp36
a((F293.24777221679688
F767.06329345703125
tF5.2060112953186035
F42.45721435546875
F0.053461305797100067
I10158592
I-1
tp37
a((F316.50888061523438
F789.073486328125
tF5.3862390518188477
F223.86862182617188
F0.047493882477283478
I12583424
I-1
tp38
a((F261.29269409179688
F140.88807678222656
tF6.5660147666931152
F241.42971801757812
F0.068971656262874603
I10224384
I-1
tp39
a((F261.29269409179688
F140.88807678222656
tF6.5660147666931152
F139.212890625
F0.068971656262874603
I10224384
I-1
tp40
a((F256.95230102539062
F150.96388244628906
tF6.474456787109375
F226.54304504394531
F0.047779273241758347
I9175808
I-1
tp41
a((F247.43792724609375
F155.28939819335938
tF4.6850132942199707
F314.52987670898438
F0.065681114792823792
I2490880
I-1
tp42
a((F247.43792724609375
F155.28939819335938
tF4.6850132942199707
F210.93438720703125
F0.065681114792823792
I2490880
I-1
tp43
a((F171.12001037597656
F165.09397888183594
tF6.7087106704711914
F111.89492797851562
F0.057632379233837128
I11731712
I-1
tp44
a((F171.12001037597656
F165.09397888183594
tF6.7087106704711914
F54.695526123046875
F0.057632379233837128
I11731712
I-1
tp45
a((F274.05593872070312
F188.05390930175781
tF6.5413675308227539
F327.930908203125
F0.066438578069210052
I9962240
I-1
tp46
a((F274.05593872070312
F188.05390930175781
tF6.5413675308227539
F80.361236572265625
F0.066438578069210052
I9962240
I-1
tp47
a((F267.24920654296875
F315.6917724609375
tF6.7728738784790039
F147.54415893554688
F0.074195228517055511
I12452608
I-1
tp48
a((F211.4837646484375
F340.86911010742188
tF6.7440056800842285
F333.219482421875
F0.071856260299682617
I12124928
I-1
tp49
a((F211.4837646484375
F340.86911010742188
tF6.7440056800842285
F113.77595520019531
F0.071856260299682617
I12124928
I-1
tp50
a((F288.79379272460938
F380.1304931640625
tF6.903355598449707
F340.68179321289062
F0.079943887889385223
I13828864
I-1
tp51
a((F224.66667175292969
F406.67648315429688
tF6.4947929382324219
F127.94802856445312
F0.067267104983329773
I9437952
I-1
tp52
a((F224.66667175292969
F406.67648315429688
tF6.4947929382324219
F11.77032470703125
F0.067267104983329773
I9437952
I-1
tp53
a((F284.19046020507812
F600.8677978515625
tF6.4395689964294434
F332.86199951171875
F0.063427284359931946
I8782592
I-1
tp54
a((F284.19046020507812
F600.8677978515625
tF6.4395689964294434
F59.008209228515625
F0.063427284359931946
I8782592
I-1
tp55
a((F270.593505859375
F725.533935546875
tF6.6687326431274414
F316.508544921875
F0.078661106526851654
I11338496
I-1
tp56
a((F270.593505859375
F725.533935546875
tF6.6687326431274414
F170.52456665039062
F0.078661106526851654
I11338496
I-1
tp57
a((F314.71914672851562
F789.37603759765625
tF6.7916808128356934
F236.2122802734375
F0.04731668159365654
I12649216
I-1
tp58
a((F205.66363525390625
F85.318824768066406
tF9.0074663162231445
F343.2171630859375
F0.059916868805885315
I16384257
I-1
tp59
a((F205.66363525390625
F85.318824768066406
tF9.0074663162231445
F274.75869750976562
F0.059916868805885315
I16384257
I-1
tp60
a((F259.79806518554688
F140.23846435546875
tF7.9476799964904785
F233.38803100585938
F0.067621216177940369
I7340289
I-1
tp61
a((F259.79806518554688
F140.23846435546875
tF7.9476799964904785
F137.50822448730469
F0.067621216177940369
I7340289
I-1
tp62
a((F182.07896423339844
F159.99420166015625
tF8.8104534149169922
F341.6068115234375
F0.075796447694301605
I14745857
I-1
tp63
a((F182.07896423339844
F159.99420166015625
tF8.8104534149169922
F102.34786987304688
F0.075796447694301605
I14745857
I-1
tp64
a((F171.08236694335938
F165.60035705566406
tF7.2860727310180664
F103.83786010742188
F0.056723974645137787
I1048833
I-1
tp65
a((F171.08236694335938
F165.60035705566406
tF7.2860727310180664
F60.35247802734375
F0.056723974645137787
I1048833
I-1
tp66
a((F268.40423583984375
F316.39312744140625
tF7.3884248733520508
F296.49996948242188
F0.074059255421161652
I2031873
I-1
tp67
a((F268.40423583984375
F316.39312744140625
tF7.3884248733520508
F153.18679809570312
F0.074059255421161652
I2031873
I-1
tp68
a((F286.03860473632812
F601.5361328125
tF8.3350620269775391
F332.7169189453125
F0.062203604727983475
I10748161
I-1
tp69
a((F286.03860473632812
F601.5361328125
tF8.3350620269775391
F56.224578857421875
F0.062203604727983475
I10748161
I-1
tp70
a((F269.81326293945312
F723.8609619140625
tF7.6170549392700195
F315.03839111328125
F0.078112252056598663
I4260097
I-1
tp71
a((F269.81326293945312
F723.8609619140625
tF7.6170549392700195
F164.65945434570312
F0.078112252056598663
I4260097
I-1
tp72
a((F206.06517028808594
F781.63336181640625
tF8.0864782333374023
F322.26544189453125
F0.056397389620542526
I8585473
I-1
tp73
a((F206.06517028808594
F781.63336181640625
tF8.0864782333374023
F263.25009155273438
F0.056397389620542526
I8585473
I-1
tp74
a((F179.95616149902344
F846.6605224609375
tF10.515566825866699
F322.22866821289062
F0.078757442533969879
I10879489
I-1
tp75
a((F179.95616149902344
F846.6605224609375
tF10.515566825866699
F117.54940795898438
F0.078757442533969879
I10879489
I-1
tp76
a((F277.57803344726562
F189.90020751953125
tF9.506251335144043
F331.5206298828125
F0.06432642787694931
I3539457
I-1
tp77
a((F277.57803344726562
F189.90020751953125
tF9.506251335144043
F68.7010498046875
F0.06432642787694931
I3539457
I-1
tp78
a((F191.10795593261719
F214.57696533203125
tF13.289979934692383
F177.84562683105469
F0.068539388477802277
I11076353
I-1
tp79
a((F341.69692993164062
F304.76547241210938
tF10.052450180053711
F312.35760498046875
F0.083825819194316864
I7602689
I-1
tp80
a((F341.69692993164062
F304.76547241210938
tF10.052450180053711
F142.81231689453125
F0.083825819194316864
I7602689
I-1
tp81
a((F344.09344482421875
F424.8690185546875
tF10.360095024108887
F312.419921875
F0.083209142088890076
I9765377
I-1
tp82
a((F344.09344482421875
F424.8690185546875
tF10.360095024108887
F145.65716552734375
F0.083209142088890076
I9765377
I-1
tp83
a((F154.89651489257812
F604.454833984375
tF10.220218658447266
F321.99423217773438
F0.080696620047092438
I8782337
I-1
tp84
a((F154.89651489257812
F604.454833984375
tF10.220218658447266
F111.74485778808594
F0.080696620047092438
I8782337
I-1
tp85
a((F224.29393005371094
F722.43206787109375
tF9.8643550872802734
F311.8074951171875
F0.083364918828010559
I6226433
I-1
tp86
a((F224.29393005371094
F722.43206787109375
tF9.8643550872802734
F115.76638793945312
F0.083364918828010559
I6226433
I-1
tp87
a((F306.88046264648438
F229.19406127929688
tF14.333327293395996
F317.46640014648438
F0.042200133204460144
I16515841
I-1
tp88
a((F277.93096923828125
F291.94656372070312
tF12.124712944030762
F40.285430908203125
F0.047630932182073593
I4457217
I-1
tp89
a((F252.53178405761719
F312.21847534179688
tF13.763463020324707
F299.93649291992188
F0.075746916234493256
I13632257
I-1
tp90
a((F209.14054870605469
F412.924560546875
tF13.828546524047852
F187.23519897460938
F0.055648896843194962
I13959937
I-1
tp91
a((F199.73583984375
F462.94412231445312
tF14.237698554992676
F168.46609497070312
F0.067691847681999207
I16057089
I-1
tp92
a((F155.70095825195312
F605.063232421875
tF10.790728569030762
F318.51153564453125
F0.080486096441745758
I12714497
I-1
tp93
a((F155.70095825195312
F605.063232421875
tF10.790728569030762
F115.22738647460938
F0.080486096441745758
I12714497
I-1
tp94
a((F247.93032836914062
F695.94073486328125
tF13.979765892028809
F308.8963623046875
F0.079517088830471039
I14746369
I-1
tp95
a((F281.70703125
F777.84136962890625
tF13.601117134094238
F7.7734375
F0.052853010594844818
I12714753
I-1
tp96
a((F257.96923828125
F779.3802490234375
tF13.982131004333496
F277.32354736328125
F0.083320669829845428
I14746369
I-1
tp97
a((F215.82431030273438
F200.78788757324219
tF16.859506607055664
F279.64010620117188
F0.06442241370677948
I11600130
I-1
tp98
a((F215.82431030273438
F200.78788757324219
tF16.859506607055664
F234.17465209960938
F0.06442241370677948
I11600130
I-1
tp99
a((F202.70126342773438
F308.39556884765625
tF16.674421310424805
F272.45379638671875
F0.069447256624698639
I10748162
I-1
tp100
a((F202.70126342773438
F308.39556884765625
tF16.674421310424805
F181.33294677734375
F0.069447256624698639
I10748162
I-1
tp101
a((F215.57781982421875
F382.24307250976562
tF25.123464584350586
F171.83908081054688
F0.059282034635543823
I7013122
I-1
tp102
a((F242.22355651855469
F366.28436279296875
tF17.906118392944336
F305.79278564453125
F0.086042024195194244
I15925506
I-1
tp103
a((F242.22355651855469
F366.28436279296875
tF17.906118392944336
F137.92169189453125
F0.086042024195194244
I15925506
I-1
tp104
a((F229.6483154296875
F418.41598510742188
tF15.178427696228027
F293.79977416992188
F0.089415788650512695
I3997954
I-1
tp105
a((F229.6483154296875
F418.41598510742188
tF15.178427696228027
F117.1734619140625
F0.089415788650512695
I3997954
I-1
tp106
a((F200.62907409667969
F465.19967651367188
tF15.282358169555664
F171.12435913085938
F0.067368172109127045
I4456706
I-1
tp107
a((F184.49687194824219
F83.051887512207031
tF20.732490539550781
F308.150390625
F0.081312015652656555
I9830914
I-1
tp108
a((F184.49687194824219
F83.051887512207031
tF20.732490539550781
F164.51759338378906
F0.081312015652656555
I9830914
I-1
tp109
a((F246.31590270996094
F138.85569763183594
tF18.955425262451172
F121.36727905273438
F0.093519993126392365
I3342850
I-1
tp110
a((F293.6519775390625
F307.398681640625
tF21.815351486206055
F139.35427856445312
F0.074563220143318176
I13500930
I-1
tp111
a((F208.64335632324219
F431.389404296875
tF19.083700180053711
F186.06423950195312
F0.06169610470533371
I3801602
I-1
tp112
a((F246.10881042480469
F475.41104125976562
tF20.032089233398438
F297.18426513671875
F0.088062666356563568
I7340546
I-1
tp113
a((F250.00161743164062
F544.73480224609375
tF22.239751815795898
F309.25881958007812
F0.088857389986515045
I14877186
I-1
tp114
a((F250.00161743164062
F544.73480224609375
tF22.239751815795898
F112.31649780273438
F0.088857389986515045
I14877186
I-1
tp115
a((F251.18426513671875
F631.5350341796875
tF19.167875289916992
F305.32315063476562
F0.081074461340904236
I4129282
I-1
tp116
a((F303.83123779296875
F781.20245361328125
tF20.44831657409668
F269.4710693359375
F0.066190876066684723
I8847874
I-1
tp117
a((F303.83123779296875
F781.20245361328125
tF20.44831657409668
F15.3883056640625
F0.066190876066684723
I8847874
I-1
tp118
a((F204.94253540039062
F171.71343994140625
tF27.669281005859375
F233.90652465820312
F0.059301864355802536
I13959938
I-1
tp119
a((F204.94253540039062
F171.71343994140625
tF27.669281005859375
F141.38912963867188
F0.059301864355802536
I13959938
I-1
tp120
a((F316.54904174804688
F266.75167846679688
tF28.124612808227539
F311.67935180664062
F0.052634261548519135
I15139586
I-1
tp121
a((F259.85574340820312
F282.81051635742188
tF26.771183013916016
F111.36248779296875
F0.046608354896306992
I11600642
I-1
tp122
a((F259.85574340820312
F282.81051635742188
tF26.771183013916016
F50.323822021484375
F0.046608354896306992
I11600642
I-1
tp123
a((F320.71957397460938
F385.58383178710938
tF26.775466918945312
F315.16595458984375
F0.05511929839849472
I11600642
I-1
tp124
a((F265.556396484375
F403.80166625976562
tF25.325288772583008
F59.083221435546875
F0.054907277226448059
I7602946
I-1
tp125
a((F285.02590942382812
F567.849365234375
tF28.135522842407227
F22.04022216796875
F0.067503884434700012
I15205122
I-1
tp126
a((F128.3408203125
F584.80963134765625
tF28.354726791381836
F150.2535400390625
F0.072355262935161591
I15729410
I-1
tp127
a((F211.57795715332031
F769.13104248046875
tF23.096181869506836
F129.58245849609375
F0.077930055558681488
I918274
I-1
tp128
a((F201.25625610351562
F903.35589599609375
tF26.617681503295898
F134.93797302246094
F0.07824031263589859
I11207426
I-1
tp129
a((F151.05064392089844
F150.34835815429688
tF28.827075958251953
F251.00799560546875
F0.098701044917106628
I262403
I-1
tp130
a((F151.05064392089844
F150.34835815429688
tF28.827075958251953
F163.82835388183594
F0.098701044917106628
I262403
I-1
tp131
a((F151.05064392089844
F150.34835815429688
tF28.827075958251953
F85.44073486328125
F0.098701044917106628
I262403
I-1
tp132
a((F271.46914672851562
F229.76768493652344
tF32.816013336181641
F323.77554321289062
F0.047255590558052063
I9634051
I-1
tp133
a((F359.798095703125
F322.29495239257812
tF30.693780899047852
F327.77313232421875
F0.080206185579299927
I4784387
I-1
tp134
a((F279.32559204101562
F349.92611694335938
tF31.015628814697266
F318.30941772460938
F0.048186779022216797
I5505283
I-1
tp135
a((F292.29464721679688
F435.41058349609375
tF30.693822860717773
F135.60498046875
F0.071000128984451294
I4784387
I-1
tp136
a((F359.875732421875
F445.01046752929688
tF31.283319473266602
F332.0015869140625
F0.083550989627838135
I6160643
I-1
tp137
a((F359.875732421875
F445.01046752929688
tF31.283319473266602
F102.34732055664062
F0.083550989627838135
I6160643
I-1
tp138
a((F279.65777587890625
F498.9560546875
tF36.130683898925781
F8.170440673828125
F0.068206667900085449
I16580867
I-1
tp139
a((F226.08576965332031
F656.556396484375
tF30.296661376953125
F137.63555908203125
F0.042048219591379166
I3801347
I-1
tp140
a((F278.95330810546875
F744.50567626953125
tF34.794277191162109
F4.966888427734375
F0.057702932506799698
I13828355
I-1
tp141
a((F311.28140258789062
F816.35260009765625
tF31.687978744506836
F302.64559936523438
F0.077491328120231628
I7078147
I-1
tp142
a((F311.28140258789062
F816.35260009765625
tF31.687978744506836
F58.915130615234375
F0.077491328120231628
I7078147
I-1
tp143
a((F284.57635498046875
F902.20166015625
tF35.091629028320312
F325.73812866210938
F0.087208926677703857
I14483715
I-1
tp144
a((F284.57635498046875
F902.20166015625
tF35.091629028320312
F116.99114990234375
F0.087208926677703857
I14483715
I-1
tp145
a((F165.89469909667969
F687.2261962890625
tF38.817733764648438
F309.2255859375
F0.068362057209014893
I5046787
I-1
tp146
a((F165.89469909667969
F687.2261962890625
tF38.817733764648438
F137.00051879882812
F0.068362057209014893
I5046787
I-1
tp147
a((F101.06433868408203
F695.9434814453125
tF37.432804107666016
F137.88543701171875
F0.087307699024677277
I2425347
I-1
tp148
a((F277.96017456054688
F253.47038269042969
tF54.046821594238281
F322.94338989257812
F0.047032859176397324
I12256003
I-1
tp149
a.